
dwall.o:     file format elf64-x86-64


Disassembly of section .text:

0000000000000000 <dwall>:
       0:	eb 00                	jmp    2 <.label0>

0000000000000002 <.label0>:
       2:	eb 00                	jmp    4 <.label1>

0000000000000004 <.label1>:
       4:	eb 00                	jmp    6 <.label2>

0000000000000006 <.label2>:
       6:	eb 00                	jmp    8 <.label3>

0000000000000008 <.label3>:
       8:	eb 00                	jmp    a <.label4>

000000000000000a <.label4>:
       a:	eb 00                	jmp    c <.label5>

000000000000000c <.label5>:
       c:	eb 00                	jmp    e <.label6>

000000000000000e <.label6>:
       e:	eb 00                	jmp    10 <.label7>

0000000000000010 <.label7>:
      10:	eb 00                	jmp    12 <.label8>

0000000000000012 <.label8>:
      12:	eb 00                	jmp    14 <.label9>

0000000000000014 <.label9>:
      14:	eb 00                	jmp    16 <.label10>

0000000000000016 <.label10>:
      16:	eb 00                	jmp    18 <.label11>

0000000000000018 <.label11>:
      18:	eb 00                	jmp    1a <.label12>

000000000000001a <.label12>:
      1a:	eb 00                	jmp    1c <.label13>

000000000000001c <.label13>:
      1c:	eb 00                	jmp    1e <.label14>

000000000000001e <.label14>:
      1e:	eb 00                	jmp    20 <.label15>

0000000000000020 <.label15>:
      20:	eb 00                	jmp    22 <.label16>

0000000000000022 <.label16>:
      22:	eb 00                	jmp    24 <.label17>

0000000000000024 <.label17>:
      24:	eb 00                	jmp    26 <.label18>

0000000000000026 <.label18>:
      26:	eb 00                	jmp    28 <.label19>

0000000000000028 <.label19>:
      28:	eb 00                	jmp    2a <.label20>

000000000000002a <.label20>:
      2a:	eb 00                	jmp    2c <.label21>

000000000000002c <.label21>:
      2c:	eb 00                	jmp    2e <.label22>

000000000000002e <.label22>:
      2e:	eb 00                	jmp    30 <.label23>

0000000000000030 <.label23>:
      30:	eb 00                	jmp    32 <.label24>

0000000000000032 <.label24>:
      32:	eb 00                	jmp    34 <.label25>

0000000000000034 <.label25>:
      34:	eb 00                	jmp    36 <.label26>

0000000000000036 <.label26>:
      36:	eb 00                	jmp    38 <.label27>

0000000000000038 <.label27>:
      38:	eb 00                	jmp    3a <.label28>

000000000000003a <.label28>:
      3a:	eb 00                	jmp    3c <.label29>

000000000000003c <.label29>:
      3c:	eb 00                	jmp    3e <.label30>

000000000000003e <.label30>:
      3e:	eb 00                	jmp    40 <.label31>

0000000000000040 <.label31>:
      40:	eb 00                	jmp    42 <.label32>

0000000000000042 <.label32>:
      42:	eb 00                	jmp    44 <.label33>

0000000000000044 <.label33>:
      44:	eb 00                	jmp    46 <.label34>

0000000000000046 <.label34>:
      46:	eb 00                	jmp    48 <.label35>

0000000000000048 <.label35>:
      48:	eb 00                	jmp    4a <.label36>

000000000000004a <.label36>:
      4a:	eb 00                	jmp    4c <.label37>

000000000000004c <.label37>:
      4c:	eb 00                	jmp    4e <.label38>

000000000000004e <.label38>:
      4e:	eb 00                	jmp    50 <.label39>

0000000000000050 <.label39>:
      50:	eb 00                	jmp    52 <.label40>

0000000000000052 <.label40>:
      52:	eb 00                	jmp    54 <.label41>

0000000000000054 <.label41>:
      54:	eb 00                	jmp    56 <.label42>

0000000000000056 <.label42>:
      56:	eb 00                	jmp    58 <.label43>

0000000000000058 <.label43>:
      58:	eb 00                	jmp    5a <.label44>

000000000000005a <.label44>:
      5a:	eb 00                	jmp    5c <.label45>

000000000000005c <.label45>:
      5c:	eb 00                	jmp    5e <.label46>

000000000000005e <.label46>:
      5e:	eb 00                	jmp    60 <.label47>

0000000000000060 <.label47>:
      60:	eb 00                	jmp    62 <.label48>

0000000000000062 <.label48>:
      62:	eb 00                	jmp    64 <.label49>

0000000000000064 <.label49>:
      64:	eb 00                	jmp    66 <.label50>

0000000000000066 <.label50>:
      66:	eb 00                	jmp    68 <.label51>

0000000000000068 <.label51>:
      68:	eb 00                	jmp    6a <.label52>

000000000000006a <.label52>:
      6a:	eb 00                	jmp    6c <.label53>

000000000000006c <.label53>:
      6c:	eb 00                	jmp    6e <.label54>

000000000000006e <.label54>:
      6e:	eb 00                	jmp    70 <.label55>

0000000000000070 <.label55>:
      70:	eb 00                	jmp    72 <.label56>

0000000000000072 <.label56>:
      72:	eb 00                	jmp    74 <.label57>

0000000000000074 <.label57>:
      74:	eb 00                	jmp    76 <.label58>

0000000000000076 <.label58>:
      76:	eb 00                	jmp    78 <.label59>

0000000000000078 <.label59>:
      78:	eb 00                	jmp    7a <.label60>

000000000000007a <.label60>:
      7a:	eb 00                	jmp    7c <.label61>

000000000000007c <.label61>:
      7c:	eb 00                	jmp    7e <.label62>

000000000000007e <.label62>:
      7e:	eb 00                	jmp    80 <.label63>

0000000000000080 <.label63>:
      80:	eb 00                	jmp    82 <.label64>

0000000000000082 <.label64>:
      82:	eb 00                	jmp    84 <.label65>

0000000000000084 <.label65>:
      84:	eb 00                	jmp    86 <.label66>

0000000000000086 <.label66>:
      86:	eb 00                	jmp    88 <.label67>

0000000000000088 <.label67>:
      88:	eb 00                	jmp    8a <.label68>

000000000000008a <.label68>:
      8a:	eb 00                	jmp    8c <.label69>

000000000000008c <.label69>:
      8c:	eb 00                	jmp    8e <.label70>

000000000000008e <.label70>:
      8e:	eb 00                	jmp    90 <.label71>

0000000000000090 <.label71>:
      90:	eb 00                	jmp    92 <.label72>

0000000000000092 <.label72>:
      92:	eb 00                	jmp    94 <.label73>

0000000000000094 <.label73>:
      94:	eb 00                	jmp    96 <.label74>

0000000000000096 <.label74>:
      96:	eb 00                	jmp    98 <.label75>

0000000000000098 <.label75>:
      98:	eb 00                	jmp    9a <.label76>

000000000000009a <.label76>:
      9a:	eb 00                	jmp    9c <.label77>

000000000000009c <.label77>:
      9c:	eb 00                	jmp    9e <.label78>

000000000000009e <.label78>:
      9e:	eb 00                	jmp    a0 <.label79>

00000000000000a0 <.label79>:
      a0:	eb 00                	jmp    a2 <.label80>

00000000000000a2 <.label80>:
      a2:	eb 00                	jmp    a4 <.label81>

00000000000000a4 <.label81>:
      a4:	eb 00                	jmp    a6 <.label82>

00000000000000a6 <.label82>:
      a6:	eb 00                	jmp    a8 <.label83>

00000000000000a8 <.label83>:
      a8:	eb 00                	jmp    aa <.label84>

00000000000000aa <.label84>:
      aa:	eb 00                	jmp    ac <.label85>

00000000000000ac <.label85>:
      ac:	eb 00                	jmp    ae <.label86>

00000000000000ae <.label86>:
      ae:	eb 00                	jmp    b0 <.label87>

00000000000000b0 <.label87>:
      b0:	eb 00                	jmp    b2 <.label88>

00000000000000b2 <.label88>:
      b2:	eb 00                	jmp    b4 <.label89>

00000000000000b4 <.label89>:
      b4:	eb 00                	jmp    b6 <.label90>

00000000000000b6 <.label90>:
      b6:	eb 00                	jmp    b8 <.label91>

00000000000000b8 <.label91>:
      b8:	eb 00                	jmp    ba <.label92>

00000000000000ba <.label92>:
      ba:	eb 00                	jmp    bc <.label93>

00000000000000bc <.label93>:
      bc:	eb 00                	jmp    be <.label94>

00000000000000be <.label94>:
      be:	eb 00                	jmp    c0 <.label95>

00000000000000c0 <.label95>:
      c0:	eb 00                	jmp    c2 <.label96>

00000000000000c2 <.label96>:
      c2:	eb 00                	jmp    c4 <.label97>

00000000000000c4 <.label97>:
      c4:	eb 00                	jmp    c6 <.label98>

00000000000000c6 <.label98>:
      c6:	eb 00                	jmp    c8 <.label99>

00000000000000c8 <.label99>:
      c8:	eb 00                	jmp    ca <.label100>

00000000000000ca <.label100>:
      ca:	eb 00                	jmp    cc <.label101>

00000000000000cc <.label101>:
      cc:	eb 00                	jmp    ce <.label102>

00000000000000ce <.label102>:
      ce:	eb 00                	jmp    d0 <.label103>

00000000000000d0 <.label103>:
      d0:	eb 00                	jmp    d2 <.label104>

00000000000000d2 <.label104>:
      d2:	eb 00                	jmp    d4 <.label105>

00000000000000d4 <.label105>:
      d4:	eb 00                	jmp    d6 <.label106>

00000000000000d6 <.label106>:
      d6:	eb 00                	jmp    d8 <.label107>

00000000000000d8 <.label107>:
      d8:	eb 00                	jmp    da <.label108>

00000000000000da <.label108>:
      da:	eb 00                	jmp    dc <.label109>

00000000000000dc <.label109>:
      dc:	eb 00                	jmp    de <.label110>

00000000000000de <.label110>:
      de:	eb 00                	jmp    e0 <.label111>

00000000000000e0 <.label111>:
      e0:	eb 00                	jmp    e2 <.label112>

00000000000000e2 <.label112>:
      e2:	eb 00                	jmp    e4 <.label113>

00000000000000e4 <.label113>:
      e4:	eb 00                	jmp    e6 <.label114>

00000000000000e6 <.label114>:
      e6:	eb 00                	jmp    e8 <.label115>

00000000000000e8 <.label115>:
      e8:	eb 00                	jmp    ea <.label116>

00000000000000ea <.label116>:
      ea:	eb 00                	jmp    ec <.label117>

00000000000000ec <.label117>:
      ec:	eb 00                	jmp    ee <.label118>

00000000000000ee <.label118>:
      ee:	eb 00                	jmp    f0 <.label119>

00000000000000f0 <.label119>:
      f0:	eb 00                	jmp    f2 <.label120>

00000000000000f2 <.label120>:
      f2:	eb 00                	jmp    f4 <.label121>

00000000000000f4 <.label121>:
      f4:	eb 00                	jmp    f6 <.label122>

00000000000000f6 <.label122>:
      f6:	eb 00                	jmp    f8 <.label123>

00000000000000f8 <.label123>:
      f8:	eb 00                	jmp    fa <.label124>

00000000000000fa <.label124>:
      fa:	eb 00                	jmp    fc <.label125>

00000000000000fc <.label125>:
      fc:	eb 00                	jmp    fe <.label126>

00000000000000fe <.label126>:
      fe:	eb 00                	jmp    100 <.label127>

0000000000000100 <.label127>:
     100:	eb 00                	jmp    102 <.label128>

0000000000000102 <.label128>:
     102:	eb 00                	jmp    104 <.label129>

0000000000000104 <.label129>:
     104:	eb 00                	jmp    106 <.label130>

0000000000000106 <.label130>:
     106:	eb 00                	jmp    108 <.label131>

0000000000000108 <.label131>:
     108:	eb 00                	jmp    10a <.label132>

000000000000010a <.label132>:
     10a:	eb 00                	jmp    10c <.label133>

000000000000010c <.label133>:
     10c:	eb 00                	jmp    10e <.label134>

000000000000010e <.label134>:
     10e:	eb 00                	jmp    110 <.label135>

0000000000000110 <.label135>:
     110:	eb 00                	jmp    112 <.label136>

0000000000000112 <.label136>:
     112:	eb 00                	jmp    114 <.label137>

0000000000000114 <.label137>:
     114:	eb 00                	jmp    116 <.label138>

0000000000000116 <.label138>:
     116:	eb 00                	jmp    118 <.label139>

0000000000000118 <.label139>:
     118:	eb 00                	jmp    11a <.label140>

000000000000011a <.label140>:
     11a:	eb 00                	jmp    11c <.label141>

000000000000011c <.label141>:
     11c:	eb 00                	jmp    11e <.label142>

000000000000011e <.label142>:
     11e:	eb 00                	jmp    120 <.label143>

0000000000000120 <.label143>:
     120:	eb 00                	jmp    122 <.label144>

0000000000000122 <.label144>:
     122:	eb 00                	jmp    124 <.label145>

0000000000000124 <.label145>:
     124:	eb 00                	jmp    126 <.label146>

0000000000000126 <.label146>:
     126:	eb 00                	jmp    128 <.label147>

0000000000000128 <.label147>:
     128:	eb 00                	jmp    12a <.label148>

000000000000012a <.label148>:
     12a:	eb 00                	jmp    12c <.label149>

000000000000012c <.label149>:
     12c:	eb 00                	jmp    12e <.label150>

000000000000012e <.label150>:
     12e:	eb 00                	jmp    130 <.label151>

0000000000000130 <.label151>:
     130:	eb 00                	jmp    132 <.label152>

0000000000000132 <.label152>:
     132:	eb 00                	jmp    134 <.label153>

0000000000000134 <.label153>:
     134:	eb 00                	jmp    136 <.label154>

0000000000000136 <.label154>:
     136:	eb 00                	jmp    138 <.label155>

0000000000000138 <.label155>:
     138:	eb 00                	jmp    13a <.label156>

000000000000013a <.label156>:
     13a:	eb 00                	jmp    13c <.label157>

000000000000013c <.label157>:
     13c:	eb 00                	jmp    13e <.label158>

000000000000013e <.label158>:
     13e:	eb 00                	jmp    140 <.label159>

0000000000000140 <.label159>:
     140:	eb 00                	jmp    142 <.label160>

0000000000000142 <.label160>:
     142:	eb 00                	jmp    144 <.label161>

0000000000000144 <.label161>:
     144:	eb 00                	jmp    146 <.label162>

0000000000000146 <.label162>:
     146:	eb 00                	jmp    148 <.label163>

0000000000000148 <.label163>:
     148:	eb 00                	jmp    14a <.label164>

000000000000014a <.label164>:
     14a:	eb 00                	jmp    14c <.label165>

000000000000014c <.label165>:
     14c:	eb 00                	jmp    14e <.label166>

000000000000014e <.label166>:
     14e:	eb 00                	jmp    150 <.label167>

0000000000000150 <.label167>:
     150:	eb 00                	jmp    152 <.label168>

0000000000000152 <.label168>:
     152:	eb 00                	jmp    154 <.label169>

0000000000000154 <.label169>:
     154:	eb 00                	jmp    156 <.label170>

0000000000000156 <.label170>:
     156:	eb 00                	jmp    158 <.label171>

0000000000000158 <.label171>:
     158:	eb 00                	jmp    15a <.label172>

000000000000015a <.label172>:
     15a:	eb 00                	jmp    15c <.label173>

000000000000015c <.label173>:
     15c:	eb 00                	jmp    15e <.label174>

000000000000015e <.label174>:
     15e:	eb 00                	jmp    160 <.label175>

0000000000000160 <.label175>:
     160:	eb 00                	jmp    162 <.label176>

0000000000000162 <.label176>:
     162:	eb 00                	jmp    164 <.label177>

0000000000000164 <.label177>:
     164:	eb 00                	jmp    166 <.label178>

0000000000000166 <.label178>:
     166:	eb 00                	jmp    168 <.label179>

0000000000000168 <.label179>:
     168:	eb 00                	jmp    16a <.label180>

000000000000016a <.label180>:
     16a:	eb 00                	jmp    16c <.label181>

000000000000016c <.label181>:
     16c:	eb 00                	jmp    16e <.label182>

000000000000016e <.label182>:
     16e:	eb 00                	jmp    170 <.label183>

0000000000000170 <.label183>:
     170:	eb 00                	jmp    172 <.label184>

0000000000000172 <.label184>:
     172:	eb 00                	jmp    174 <.label185>

0000000000000174 <.label185>:
     174:	eb 00                	jmp    176 <.label186>

0000000000000176 <.label186>:
     176:	eb 00                	jmp    178 <.label187>

0000000000000178 <.label187>:
     178:	eb 00                	jmp    17a <.label188>

000000000000017a <.label188>:
     17a:	eb 00                	jmp    17c <.label189>

000000000000017c <.label189>:
     17c:	eb 00                	jmp    17e <.label190>

000000000000017e <.label190>:
     17e:	eb 00                	jmp    180 <.label191>

0000000000000180 <.label191>:
     180:	eb 00                	jmp    182 <.label192>

0000000000000182 <.label192>:
     182:	eb 00                	jmp    184 <.label193>

0000000000000184 <.label193>:
     184:	eb 00                	jmp    186 <.label194>

0000000000000186 <.label194>:
     186:	eb 00                	jmp    188 <.label195>

0000000000000188 <.label195>:
     188:	eb 00                	jmp    18a <.label196>

000000000000018a <.label196>:
     18a:	eb 00                	jmp    18c <.label197>

000000000000018c <.label197>:
     18c:	eb 00                	jmp    18e <.label198>

000000000000018e <.label198>:
     18e:	eb 00                	jmp    190 <.label199>

0000000000000190 <.label199>:
     190:	eb 00                	jmp    192 <.label200>

0000000000000192 <.label200>:
     192:	eb 00                	jmp    194 <.label201>

0000000000000194 <.label201>:
     194:	eb 00                	jmp    196 <.label202>

0000000000000196 <.label202>:
     196:	eb 00                	jmp    198 <.label203>

0000000000000198 <.label203>:
     198:	eb 00                	jmp    19a <.label204>

000000000000019a <.label204>:
     19a:	eb 00                	jmp    19c <.label205>

000000000000019c <.label205>:
     19c:	eb 00                	jmp    19e <.label206>

000000000000019e <.label206>:
     19e:	eb 00                	jmp    1a0 <.label207>

00000000000001a0 <.label207>:
     1a0:	eb 00                	jmp    1a2 <.label208>

00000000000001a2 <.label208>:
     1a2:	eb 00                	jmp    1a4 <.label209>

00000000000001a4 <.label209>:
     1a4:	eb 00                	jmp    1a6 <.label210>

00000000000001a6 <.label210>:
     1a6:	eb 00                	jmp    1a8 <.label211>

00000000000001a8 <.label211>:
     1a8:	eb 00                	jmp    1aa <.label212>

00000000000001aa <.label212>:
     1aa:	eb 00                	jmp    1ac <.label213>

00000000000001ac <.label213>:
     1ac:	eb 00                	jmp    1ae <.label214>

00000000000001ae <.label214>:
     1ae:	eb 00                	jmp    1b0 <.label215>

00000000000001b0 <.label215>:
     1b0:	eb 00                	jmp    1b2 <.label216>

00000000000001b2 <.label216>:
     1b2:	eb 00                	jmp    1b4 <.label217>

00000000000001b4 <.label217>:
     1b4:	eb 00                	jmp    1b6 <.label218>

00000000000001b6 <.label218>:
     1b6:	eb 00                	jmp    1b8 <.label219>

00000000000001b8 <.label219>:
     1b8:	eb 00                	jmp    1ba <.label220>

00000000000001ba <.label220>:
     1ba:	eb 00                	jmp    1bc <.label221>

00000000000001bc <.label221>:
     1bc:	eb 00                	jmp    1be <.label222>

00000000000001be <.label222>:
     1be:	eb 00                	jmp    1c0 <.label223>

00000000000001c0 <.label223>:
     1c0:	eb 00                	jmp    1c2 <.label224>

00000000000001c2 <.label224>:
     1c2:	eb 00                	jmp    1c4 <.label225>

00000000000001c4 <.label225>:
     1c4:	eb 00                	jmp    1c6 <.label226>

00000000000001c6 <.label226>:
     1c6:	eb 00                	jmp    1c8 <.label227>

00000000000001c8 <.label227>:
     1c8:	eb 00                	jmp    1ca <.label228>

00000000000001ca <.label228>:
     1ca:	eb 00                	jmp    1cc <.label229>

00000000000001cc <.label229>:
     1cc:	eb 00                	jmp    1ce <.label230>

00000000000001ce <.label230>:
     1ce:	eb 00                	jmp    1d0 <.label231>

00000000000001d0 <.label231>:
     1d0:	eb 00                	jmp    1d2 <.label232>

00000000000001d2 <.label232>:
     1d2:	eb 00                	jmp    1d4 <.label233>

00000000000001d4 <.label233>:
     1d4:	eb 00                	jmp    1d6 <.label234>

00000000000001d6 <.label234>:
     1d6:	eb 00                	jmp    1d8 <.label235>

00000000000001d8 <.label235>:
     1d8:	eb 00                	jmp    1da <.label236>

00000000000001da <.label236>:
     1da:	eb 00                	jmp    1dc <.label237>

00000000000001dc <.label237>:
     1dc:	eb 00                	jmp    1de <.label238>

00000000000001de <.label238>:
     1de:	eb 00                	jmp    1e0 <.label239>

00000000000001e0 <.label239>:
     1e0:	eb 00                	jmp    1e2 <.label240>

00000000000001e2 <.label240>:
     1e2:	eb 00                	jmp    1e4 <.label241>

00000000000001e4 <.label241>:
     1e4:	eb 00                	jmp    1e6 <.label242>

00000000000001e6 <.label242>:
     1e6:	eb 00                	jmp    1e8 <.label243>

00000000000001e8 <.label243>:
     1e8:	eb 00                	jmp    1ea <.label244>

00000000000001ea <.label244>:
     1ea:	eb 00                	jmp    1ec <.label245>

00000000000001ec <.label245>:
     1ec:	eb 00                	jmp    1ee <.label246>

00000000000001ee <.label246>:
     1ee:	eb 00                	jmp    1f0 <.label247>

00000000000001f0 <.label247>:
     1f0:	eb 00                	jmp    1f2 <.label248>

00000000000001f2 <.label248>:
     1f2:	eb 00                	jmp    1f4 <.label249>

00000000000001f4 <.label249>:
     1f4:	eb 00                	jmp    1f6 <.label250>

00000000000001f6 <.label250>:
     1f6:	eb 00                	jmp    1f8 <.label251>

00000000000001f8 <.label251>:
     1f8:	eb 00                	jmp    1fa <.label252>

00000000000001fa <.label252>:
     1fa:	eb 00                	jmp    1fc <.label253>

00000000000001fc <.label253>:
     1fc:	eb 00                	jmp    1fe <.label254>

00000000000001fe <.label254>:
     1fe:	eb 00                	jmp    200 <.label255>

0000000000000200 <.label255>:
     200:	eb 00                	jmp    202 <.label256>

0000000000000202 <.label256>:
     202:	eb 00                	jmp    204 <.label257>

0000000000000204 <.label257>:
     204:	eb 00                	jmp    206 <.label258>

0000000000000206 <.label258>:
     206:	eb 00                	jmp    208 <.label259>

0000000000000208 <.label259>:
     208:	eb 00                	jmp    20a <.label260>

000000000000020a <.label260>:
     20a:	eb 00                	jmp    20c <.label261>

000000000000020c <.label261>:
     20c:	eb 00                	jmp    20e <.label262>

000000000000020e <.label262>:
     20e:	eb 00                	jmp    210 <.label263>

0000000000000210 <.label263>:
     210:	eb 00                	jmp    212 <.label264>

0000000000000212 <.label264>:
     212:	eb 00                	jmp    214 <.label265>

0000000000000214 <.label265>:
     214:	eb 00                	jmp    216 <.label266>

0000000000000216 <.label266>:
     216:	eb 00                	jmp    218 <.label267>

0000000000000218 <.label267>:
     218:	eb 00                	jmp    21a <.label268>

000000000000021a <.label268>:
     21a:	eb 00                	jmp    21c <.label269>

000000000000021c <.label269>:
     21c:	eb 00                	jmp    21e <.label270>

000000000000021e <.label270>:
     21e:	eb 00                	jmp    220 <.label271>

0000000000000220 <.label271>:
     220:	eb 00                	jmp    222 <.label272>

0000000000000222 <.label272>:
     222:	eb 00                	jmp    224 <.label273>

0000000000000224 <.label273>:
     224:	eb 00                	jmp    226 <.label274>

0000000000000226 <.label274>:
     226:	eb 00                	jmp    228 <.label275>

0000000000000228 <.label275>:
     228:	eb 00                	jmp    22a <.label276>

000000000000022a <.label276>:
     22a:	eb 00                	jmp    22c <.label277>

000000000000022c <.label277>:
     22c:	eb 00                	jmp    22e <.label278>

000000000000022e <.label278>:
     22e:	eb 00                	jmp    230 <.label279>

0000000000000230 <.label279>:
     230:	eb 00                	jmp    232 <.label280>

0000000000000232 <.label280>:
     232:	eb 00                	jmp    234 <.label281>

0000000000000234 <.label281>:
     234:	eb 00                	jmp    236 <.label282>

0000000000000236 <.label282>:
     236:	eb 00                	jmp    238 <.label283>

0000000000000238 <.label283>:
     238:	eb 00                	jmp    23a <.label284>

000000000000023a <.label284>:
     23a:	eb 00                	jmp    23c <.label285>

000000000000023c <.label285>:
     23c:	eb 00                	jmp    23e <.label286>

000000000000023e <.label286>:
     23e:	eb 00                	jmp    240 <.label287>

0000000000000240 <.label287>:
     240:	eb 00                	jmp    242 <.label288>

0000000000000242 <.label288>:
     242:	eb 00                	jmp    244 <.label289>

0000000000000244 <.label289>:
     244:	eb 00                	jmp    246 <.label290>

0000000000000246 <.label290>:
     246:	eb 00                	jmp    248 <.label291>

0000000000000248 <.label291>:
     248:	eb 00                	jmp    24a <.label292>

000000000000024a <.label292>:
     24a:	eb 00                	jmp    24c <.label293>

000000000000024c <.label293>:
     24c:	eb 00                	jmp    24e <.label294>

000000000000024e <.label294>:
     24e:	eb 00                	jmp    250 <.label295>

0000000000000250 <.label295>:
     250:	eb 00                	jmp    252 <.label296>

0000000000000252 <.label296>:
     252:	eb 00                	jmp    254 <.label297>

0000000000000254 <.label297>:
     254:	eb 00                	jmp    256 <.label298>

0000000000000256 <.label298>:
     256:	eb 00                	jmp    258 <.label299>

0000000000000258 <.label299>:
     258:	eb 00                	jmp    25a <.label300>

000000000000025a <.label300>:
     25a:	eb 00                	jmp    25c <.label301>

000000000000025c <.label301>:
     25c:	eb 00                	jmp    25e <.label302>

000000000000025e <.label302>:
     25e:	eb 00                	jmp    260 <.label303>

0000000000000260 <.label303>:
     260:	eb 00                	jmp    262 <.label304>

0000000000000262 <.label304>:
     262:	eb 00                	jmp    264 <.label305>

0000000000000264 <.label305>:
     264:	eb 00                	jmp    266 <.label306>

0000000000000266 <.label306>:
     266:	eb 00                	jmp    268 <.label307>

0000000000000268 <.label307>:
     268:	eb 00                	jmp    26a <.label308>

000000000000026a <.label308>:
     26a:	eb 00                	jmp    26c <.label309>

000000000000026c <.label309>:
     26c:	eb 00                	jmp    26e <.label310>

000000000000026e <.label310>:
     26e:	eb 00                	jmp    270 <.label311>

0000000000000270 <.label311>:
     270:	eb 00                	jmp    272 <.label312>

0000000000000272 <.label312>:
     272:	eb 00                	jmp    274 <.label313>

0000000000000274 <.label313>:
     274:	eb 00                	jmp    276 <.label314>

0000000000000276 <.label314>:
     276:	eb 00                	jmp    278 <.label315>

0000000000000278 <.label315>:
     278:	eb 00                	jmp    27a <.label316>

000000000000027a <.label316>:
     27a:	eb 00                	jmp    27c <.label317>

000000000000027c <.label317>:
     27c:	eb 00                	jmp    27e <.label318>

000000000000027e <.label318>:
     27e:	eb 00                	jmp    280 <.label319>

0000000000000280 <.label319>:
     280:	eb 00                	jmp    282 <.label320>

0000000000000282 <.label320>:
     282:	eb 00                	jmp    284 <.label321>

0000000000000284 <.label321>:
     284:	eb 00                	jmp    286 <.label322>

0000000000000286 <.label322>:
     286:	eb 00                	jmp    288 <.label323>

0000000000000288 <.label323>:
     288:	eb 00                	jmp    28a <.label324>

000000000000028a <.label324>:
     28a:	eb 00                	jmp    28c <.label325>

000000000000028c <.label325>:
     28c:	eb 00                	jmp    28e <.label326>

000000000000028e <.label326>:
     28e:	eb 00                	jmp    290 <.label327>

0000000000000290 <.label327>:
     290:	eb 00                	jmp    292 <.label328>

0000000000000292 <.label328>:
     292:	eb 00                	jmp    294 <.label329>

0000000000000294 <.label329>:
     294:	eb 00                	jmp    296 <.label330>

0000000000000296 <.label330>:
     296:	eb 00                	jmp    298 <.label331>

0000000000000298 <.label331>:
     298:	eb 00                	jmp    29a <.label332>

000000000000029a <.label332>:
     29a:	eb 00                	jmp    29c <.label333>

000000000000029c <.label333>:
     29c:	eb 00                	jmp    29e <.label334>

000000000000029e <.label334>:
     29e:	eb 00                	jmp    2a0 <.label335>

00000000000002a0 <.label335>:
     2a0:	eb 00                	jmp    2a2 <.label336>

00000000000002a2 <.label336>:
     2a2:	eb 00                	jmp    2a4 <.label337>

00000000000002a4 <.label337>:
     2a4:	eb 00                	jmp    2a6 <.label338>

00000000000002a6 <.label338>:
     2a6:	eb 00                	jmp    2a8 <.label339>

00000000000002a8 <.label339>:
     2a8:	eb 00                	jmp    2aa <.label340>

00000000000002aa <.label340>:
     2aa:	eb 00                	jmp    2ac <.label341>

00000000000002ac <.label341>:
     2ac:	eb 00                	jmp    2ae <.label342>

00000000000002ae <.label342>:
     2ae:	eb 00                	jmp    2b0 <.label343>

00000000000002b0 <.label343>:
     2b0:	eb 00                	jmp    2b2 <.label344>

00000000000002b2 <.label344>:
     2b2:	eb 00                	jmp    2b4 <.label345>

00000000000002b4 <.label345>:
     2b4:	eb 00                	jmp    2b6 <.label346>

00000000000002b6 <.label346>:
     2b6:	eb 00                	jmp    2b8 <.label347>

00000000000002b8 <.label347>:
     2b8:	eb 00                	jmp    2ba <.label348>

00000000000002ba <.label348>:
     2ba:	eb 00                	jmp    2bc <.label349>

00000000000002bc <.label349>:
     2bc:	eb 00                	jmp    2be <.label350>

00000000000002be <.label350>:
     2be:	eb 00                	jmp    2c0 <.label351>

00000000000002c0 <.label351>:
     2c0:	eb 00                	jmp    2c2 <.label352>

00000000000002c2 <.label352>:
     2c2:	eb 00                	jmp    2c4 <.label353>

00000000000002c4 <.label353>:
     2c4:	eb 00                	jmp    2c6 <.label354>

00000000000002c6 <.label354>:
     2c6:	eb 00                	jmp    2c8 <.label355>

00000000000002c8 <.label355>:
     2c8:	eb 00                	jmp    2ca <.label356>

00000000000002ca <.label356>:
     2ca:	eb 00                	jmp    2cc <.label357>

00000000000002cc <.label357>:
     2cc:	eb 00                	jmp    2ce <.label358>

00000000000002ce <.label358>:
     2ce:	eb 00                	jmp    2d0 <.label359>

00000000000002d0 <.label359>:
     2d0:	eb 00                	jmp    2d2 <.label360>

00000000000002d2 <.label360>:
     2d2:	eb 00                	jmp    2d4 <.label361>

00000000000002d4 <.label361>:
     2d4:	eb 00                	jmp    2d6 <.label362>

00000000000002d6 <.label362>:
     2d6:	eb 00                	jmp    2d8 <.label363>

00000000000002d8 <.label363>:
     2d8:	eb 00                	jmp    2da <.label364>

00000000000002da <.label364>:
     2da:	eb 00                	jmp    2dc <.label365>

00000000000002dc <.label365>:
     2dc:	eb 00                	jmp    2de <.label366>

00000000000002de <.label366>:
     2de:	eb 00                	jmp    2e0 <.label367>

00000000000002e0 <.label367>:
     2e0:	eb 00                	jmp    2e2 <.label368>

00000000000002e2 <.label368>:
     2e2:	eb 00                	jmp    2e4 <.label369>

00000000000002e4 <.label369>:
     2e4:	eb 00                	jmp    2e6 <.label370>

00000000000002e6 <.label370>:
     2e6:	eb 00                	jmp    2e8 <.label371>

00000000000002e8 <.label371>:
     2e8:	eb 00                	jmp    2ea <.label372>

00000000000002ea <.label372>:
     2ea:	eb 00                	jmp    2ec <.label373>

00000000000002ec <.label373>:
     2ec:	eb 00                	jmp    2ee <.label374>

00000000000002ee <.label374>:
     2ee:	eb 00                	jmp    2f0 <.label375>

00000000000002f0 <.label375>:
     2f0:	eb 00                	jmp    2f2 <.label376>

00000000000002f2 <.label376>:
     2f2:	eb 00                	jmp    2f4 <.label377>

00000000000002f4 <.label377>:
     2f4:	eb 00                	jmp    2f6 <.label378>

00000000000002f6 <.label378>:
     2f6:	eb 00                	jmp    2f8 <.label379>

00000000000002f8 <.label379>:
     2f8:	eb 00                	jmp    2fa <.label380>

00000000000002fa <.label380>:
     2fa:	eb 00                	jmp    2fc <.label381>

00000000000002fc <.label381>:
     2fc:	eb 00                	jmp    2fe <.label382>

00000000000002fe <.label382>:
     2fe:	eb 00                	jmp    300 <.label383>

0000000000000300 <.label383>:
     300:	eb 00                	jmp    302 <.label384>

0000000000000302 <.label384>:
     302:	eb 00                	jmp    304 <.label385>

0000000000000304 <.label385>:
     304:	eb 00                	jmp    306 <.label386>

0000000000000306 <.label386>:
     306:	eb 00                	jmp    308 <.label387>

0000000000000308 <.label387>:
     308:	eb 00                	jmp    30a <.label388>

000000000000030a <.label388>:
     30a:	eb 00                	jmp    30c <.label389>

000000000000030c <.label389>:
     30c:	eb 00                	jmp    30e <.label390>

000000000000030e <.label390>:
     30e:	eb 00                	jmp    310 <.label391>

0000000000000310 <.label391>:
     310:	eb 00                	jmp    312 <.label392>

0000000000000312 <.label392>:
     312:	eb 00                	jmp    314 <.label393>

0000000000000314 <.label393>:
     314:	eb 00                	jmp    316 <.label394>

0000000000000316 <.label394>:
     316:	eb 00                	jmp    318 <.label395>

0000000000000318 <.label395>:
     318:	eb 00                	jmp    31a <.label396>

000000000000031a <.label396>:
     31a:	eb 00                	jmp    31c <.label397>

000000000000031c <.label397>:
     31c:	eb 00                	jmp    31e <.label398>

000000000000031e <.label398>:
     31e:	eb 00                	jmp    320 <.label399>

0000000000000320 <.label399>:
     320:	eb 00                	jmp    322 <.label400>

0000000000000322 <.label400>:
     322:	eb 00                	jmp    324 <.label401>

0000000000000324 <.label401>:
     324:	eb 00                	jmp    326 <.label402>

0000000000000326 <.label402>:
     326:	eb 00                	jmp    328 <.label403>

0000000000000328 <.label403>:
     328:	eb 00                	jmp    32a <.label404>

000000000000032a <.label404>:
     32a:	eb 00                	jmp    32c <.label405>

000000000000032c <.label405>:
     32c:	eb 00                	jmp    32e <.label406>

000000000000032e <.label406>:
     32e:	eb 00                	jmp    330 <.label407>

0000000000000330 <.label407>:
     330:	eb 00                	jmp    332 <.label408>

0000000000000332 <.label408>:
     332:	eb 00                	jmp    334 <.label409>

0000000000000334 <.label409>:
     334:	eb 00                	jmp    336 <.label410>

0000000000000336 <.label410>:
     336:	eb 00                	jmp    338 <.label411>

0000000000000338 <.label411>:
     338:	eb 00                	jmp    33a <.label412>

000000000000033a <.label412>:
     33a:	eb 00                	jmp    33c <.label413>

000000000000033c <.label413>:
     33c:	eb 00                	jmp    33e <.label414>

000000000000033e <.label414>:
     33e:	eb 00                	jmp    340 <.label415>

0000000000000340 <.label415>:
     340:	eb 00                	jmp    342 <.label416>

0000000000000342 <.label416>:
     342:	eb 00                	jmp    344 <.label417>

0000000000000344 <.label417>:
     344:	eb 00                	jmp    346 <.label418>

0000000000000346 <.label418>:
     346:	eb 00                	jmp    348 <.label419>

0000000000000348 <.label419>:
     348:	eb 00                	jmp    34a <.label420>

000000000000034a <.label420>:
     34a:	eb 00                	jmp    34c <.label421>

000000000000034c <.label421>:
     34c:	eb 00                	jmp    34e <.label422>

000000000000034e <.label422>:
     34e:	eb 00                	jmp    350 <.label423>

0000000000000350 <.label423>:
     350:	eb 00                	jmp    352 <.label424>

0000000000000352 <.label424>:
     352:	eb 00                	jmp    354 <.label425>

0000000000000354 <.label425>:
     354:	eb 00                	jmp    356 <.label426>

0000000000000356 <.label426>:
     356:	eb 00                	jmp    358 <.label427>

0000000000000358 <.label427>:
     358:	eb 00                	jmp    35a <.label428>

000000000000035a <.label428>:
     35a:	eb 00                	jmp    35c <.label429>

000000000000035c <.label429>:
     35c:	eb 00                	jmp    35e <.label430>

000000000000035e <.label430>:
     35e:	eb 00                	jmp    360 <.label431>

0000000000000360 <.label431>:
     360:	eb 00                	jmp    362 <.label432>

0000000000000362 <.label432>:
     362:	eb 00                	jmp    364 <.label433>

0000000000000364 <.label433>:
     364:	eb 00                	jmp    366 <.label434>

0000000000000366 <.label434>:
     366:	eb 00                	jmp    368 <.label435>

0000000000000368 <.label435>:
     368:	eb 00                	jmp    36a <.label436>

000000000000036a <.label436>:
     36a:	eb 00                	jmp    36c <.label437>

000000000000036c <.label437>:
     36c:	eb 00                	jmp    36e <.label438>

000000000000036e <.label438>:
     36e:	eb 00                	jmp    370 <.label439>

0000000000000370 <.label439>:
     370:	eb 00                	jmp    372 <.label440>

0000000000000372 <.label440>:
     372:	eb 00                	jmp    374 <.label441>

0000000000000374 <.label441>:
     374:	eb 00                	jmp    376 <.label442>

0000000000000376 <.label442>:
     376:	eb 00                	jmp    378 <.label443>

0000000000000378 <.label443>:
     378:	eb 00                	jmp    37a <.label444>

000000000000037a <.label444>:
     37a:	eb 00                	jmp    37c <.label445>

000000000000037c <.label445>:
     37c:	eb 00                	jmp    37e <.label446>

000000000000037e <.label446>:
     37e:	eb 00                	jmp    380 <.label447>

0000000000000380 <.label447>:
     380:	eb 00                	jmp    382 <.label448>

0000000000000382 <.label448>:
     382:	eb 00                	jmp    384 <.label449>

0000000000000384 <.label449>:
     384:	eb 00                	jmp    386 <.label450>

0000000000000386 <.label450>:
     386:	eb 00                	jmp    388 <.label451>

0000000000000388 <.label451>:
     388:	eb 00                	jmp    38a <.label452>

000000000000038a <.label452>:
     38a:	eb 00                	jmp    38c <.label453>

000000000000038c <.label453>:
     38c:	eb 00                	jmp    38e <.label454>

000000000000038e <.label454>:
     38e:	eb 00                	jmp    390 <.label455>

0000000000000390 <.label455>:
     390:	eb 00                	jmp    392 <.label456>

0000000000000392 <.label456>:
     392:	eb 00                	jmp    394 <.label457>

0000000000000394 <.label457>:
     394:	eb 00                	jmp    396 <.label458>

0000000000000396 <.label458>:
     396:	eb 00                	jmp    398 <.label459>

0000000000000398 <.label459>:
     398:	eb 00                	jmp    39a <.label460>

000000000000039a <.label460>:
     39a:	eb 00                	jmp    39c <.label461>

000000000000039c <.label461>:
     39c:	eb 00                	jmp    39e <.label462>

000000000000039e <.label462>:
     39e:	eb 00                	jmp    3a0 <.label463>

00000000000003a0 <.label463>:
     3a0:	eb 00                	jmp    3a2 <.label464>

00000000000003a2 <.label464>:
     3a2:	eb 00                	jmp    3a4 <.label465>

00000000000003a4 <.label465>:
     3a4:	eb 00                	jmp    3a6 <.label466>

00000000000003a6 <.label466>:
     3a6:	eb 00                	jmp    3a8 <.label467>

00000000000003a8 <.label467>:
     3a8:	eb 00                	jmp    3aa <.label468>

00000000000003aa <.label468>:
     3aa:	eb 00                	jmp    3ac <.label469>

00000000000003ac <.label469>:
     3ac:	eb 00                	jmp    3ae <.label470>

00000000000003ae <.label470>:
     3ae:	eb 00                	jmp    3b0 <.label471>

00000000000003b0 <.label471>:
     3b0:	eb 00                	jmp    3b2 <.label472>

00000000000003b2 <.label472>:
     3b2:	eb 00                	jmp    3b4 <.label473>

00000000000003b4 <.label473>:
     3b4:	eb 00                	jmp    3b6 <.label474>

00000000000003b6 <.label474>:
     3b6:	eb 00                	jmp    3b8 <.label475>

00000000000003b8 <.label475>:
     3b8:	eb 00                	jmp    3ba <.label476>

00000000000003ba <.label476>:
     3ba:	eb 00                	jmp    3bc <.label477>

00000000000003bc <.label477>:
     3bc:	eb 00                	jmp    3be <.label478>

00000000000003be <.label478>:
     3be:	eb 00                	jmp    3c0 <.label479>

00000000000003c0 <.label479>:
     3c0:	eb 00                	jmp    3c2 <.label480>

00000000000003c2 <.label480>:
     3c2:	eb 00                	jmp    3c4 <.label481>

00000000000003c4 <.label481>:
     3c4:	eb 00                	jmp    3c6 <.label482>

00000000000003c6 <.label482>:
     3c6:	eb 00                	jmp    3c8 <.label483>

00000000000003c8 <.label483>:
     3c8:	eb 00                	jmp    3ca <.label484>

00000000000003ca <.label484>:
     3ca:	eb 00                	jmp    3cc <.label485>

00000000000003cc <.label485>:
     3cc:	eb 00                	jmp    3ce <.label486>

00000000000003ce <.label486>:
     3ce:	eb 00                	jmp    3d0 <.label487>

00000000000003d0 <.label487>:
     3d0:	eb 00                	jmp    3d2 <.label488>

00000000000003d2 <.label488>:
     3d2:	eb 00                	jmp    3d4 <.label489>

00000000000003d4 <.label489>:
     3d4:	eb 00                	jmp    3d6 <.label490>

00000000000003d6 <.label490>:
     3d6:	eb 00                	jmp    3d8 <.label491>

00000000000003d8 <.label491>:
     3d8:	eb 00                	jmp    3da <.label492>

00000000000003da <.label492>:
     3da:	eb 00                	jmp    3dc <.label493>

00000000000003dc <.label493>:
     3dc:	eb 00                	jmp    3de <.label494>

00000000000003de <.label494>:
     3de:	eb 00                	jmp    3e0 <.label495>

00000000000003e0 <.label495>:
     3e0:	eb 00                	jmp    3e2 <.label496>

00000000000003e2 <.label496>:
     3e2:	eb 00                	jmp    3e4 <.label497>

00000000000003e4 <.label497>:
     3e4:	eb 00                	jmp    3e6 <.label498>

00000000000003e6 <.label498>:
     3e6:	eb 00                	jmp    3e8 <.label499>

00000000000003e8 <.label499>:
     3e8:	eb 00                	jmp    3ea <.label500>

00000000000003ea <.label500>:
     3ea:	eb 00                	jmp    3ec <.label501>

00000000000003ec <.label501>:
     3ec:	eb 00                	jmp    3ee <.label502>

00000000000003ee <.label502>:
     3ee:	eb 00                	jmp    3f0 <.label503>

00000000000003f0 <.label503>:
     3f0:	eb 00                	jmp    3f2 <.label504>

00000000000003f2 <.label504>:
     3f2:	eb 00                	jmp    3f4 <.label505>

00000000000003f4 <.label505>:
     3f4:	eb 00                	jmp    3f6 <.label506>

00000000000003f6 <.label506>:
     3f6:	eb 00                	jmp    3f8 <.label507>

00000000000003f8 <.label507>:
     3f8:	eb 00                	jmp    3fa <.label508>

00000000000003fa <.label508>:
     3fa:	eb 00                	jmp    3fc <.label509>

00000000000003fc <.label509>:
     3fc:	eb 00                	jmp    3fe <.label510>

00000000000003fe <.label510>:
     3fe:	eb 00                	jmp    400 <.label511>

0000000000000400 <.label511>:
     400:	eb 00                	jmp    402 <.label512>

0000000000000402 <.label512>:
     402:	eb 00                	jmp    404 <.label513>

0000000000000404 <.label513>:
     404:	eb 00                	jmp    406 <.label514>

0000000000000406 <.label514>:
     406:	eb 00                	jmp    408 <.label515>

0000000000000408 <.label515>:
     408:	eb 00                	jmp    40a <.label516>

000000000000040a <.label516>:
     40a:	eb 00                	jmp    40c <.label517>

000000000000040c <.label517>:
     40c:	eb 00                	jmp    40e <.label518>

000000000000040e <.label518>:
     40e:	eb 00                	jmp    410 <.label519>

0000000000000410 <.label519>:
     410:	eb 00                	jmp    412 <.label520>

0000000000000412 <.label520>:
     412:	eb 00                	jmp    414 <.label521>

0000000000000414 <.label521>:
     414:	eb 00                	jmp    416 <.label522>

0000000000000416 <.label522>:
     416:	eb 00                	jmp    418 <.label523>

0000000000000418 <.label523>:
     418:	eb 00                	jmp    41a <.label524>

000000000000041a <.label524>:
     41a:	eb 00                	jmp    41c <.label525>

000000000000041c <.label525>:
     41c:	eb 00                	jmp    41e <.label526>

000000000000041e <.label526>:
     41e:	eb 00                	jmp    420 <.label527>

0000000000000420 <.label527>:
     420:	eb 00                	jmp    422 <.label528>

0000000000000422 <.label528>:
     422:	eb 00                	jmp    424 <.label529>

0000000000000424 <.label529>:
     424:	eb 00                	jmp    426 <.label530>

0000000000000426 <.label530>:
     426:	eb 00                	jmp    428 <.label531>

0000000000000428 <.label531>:
     428:	eb 00                	jmp    42a <.label532>

000000000000042a <.label532>:
     42a:	eb 00                	jmp    42c <.label533>

000000000000042c <.label533>:
     42c:	eb 00                	jmp    42e <.label534>

000000000000042e <.label534>:
     42e:	eb 00                	jmp    430 <.label535>

0000000000000430 <.label535>:
     430:	eb 00                	jmp    432 <.label536>

0000000000000432 <.label536>:
     432:	eb 00                	jmp    434 <.label537>

0000000000000434 <.label537>:
     434:	eb 00                	jmp    436 <.label538>

0000000000000436 <.label538>:
     436:	eb 00                	jmp    438 <.label539>

0000000000000438 <.label539>:
     438:	eb 00                	jmp    43a <.label540>

000000000000043a <.label540>:
     43a:	eb 00                	jmp    43c <.label541>

000000000000043c <.label541>:
     43c:	eb 00                	jmp    43e <.label542>

000000000000043e <.label542>:
     43e:	eb 00                	jmp    440 <.label543>

0000000000000440 <.label543>:
     440:	eb 00                	jmp    442 <.label544>

0000000000000442 <.label544>:
     442:	eb 00                	jmp    444 <.label545>

0000000000000444 <.label545>:
     444:	eb 00                	jmp    446 <.label546>

0000000000000446 <.label546>:
     446:	eb 00                	jmp    448 <.label547>

0000000000000448 <.label547>:
     448:	eb 00                	jmp    44a <.label548>

000000000000044a <.label548>:
     44a:	eb 00                	jmp    44c <.label549>

000000000000044c <.label549>:
     44c:	eb 00                	jmp    44e <.label550>

000000000000044e <.label550>:
     44e:	eb 00                	jmp    450 <.label551>

0000000000000450 <.label551>:
     450:	eb 00                	jmp    452 <.label552>

0000000000000452 <.label552>:
     452:	eb 00                	jmp    454 <.label553>

0000000000000454 <.label553>:
     454:	eb 00                	jmp    456 <.label554>

0000000000000456 <.label554>:
     456:	eb 00                	jmp    458 <.label555>

0000000000000458 <.label555>:
     458:	eb 00                	jmp    45a <.label556>

000000000000045a <.label556>:
     45a:	eb 00                	jmp    45c <.label557>

000000000000045c <.label557>:
     45c:	eb 00                	jmp    45e <.label558>

000000000000045e <.label558>:
     45e:	eb 00                	jmp    460 <.label559>

0000000000000460 <.label559>:
     460:	eb 00                	jmp    462 <.label560>

0000000000000462 <.label560>:
     462:	eb 00                	jmp    464 <.label561>

0000000000000464 <.label561>:
     464:	eb 00                	jmp    466 <.label562>

0000000000000466 <.label562>:
     466:	eb 00                	jmp    468 <.label563>

0000000000000468 <.label563>:
     468:	eb 00                	jmp    46a <.label564>

000000000000046a <.label564>:
     46a:	eb 00                	jmp    46c <.label565>

000000000000046c <.label565>:
     46c:	eb 00                	jmp    46e <.label566>

000000000000046e <.label566>:
     46e:	eb 00                	jmp    470 <.label567>

0000000000000470 <.label567>:
     470:	eb 00                	jmp    472 <.label568>

0000000000000472 <.label568>:
     472:	eb 00                	jmp    474 <.label569>

0000000000000474 <.label569>:
     474:	eb 00                	jmp    476 <.label570>

0000000000000476 <.label570>:
     476:	eb 00                	jmp    478 <.label571>

0000000000000478 <.label571>:
     478:	eb 00                	jmp    47a <.label572>

000000000000047a <.label572>:
     47a:	eb 00                	jmp    47c <.label573>

000000000000047c <.label573>:
     47c:	eb 00                	jmp    47e <.label574>

000000000000047e <.label574>:
     47e:	eb 00                	jmp    480 <.label575>

0000000000000480 <.label575>:
     480:	eb 00                	jmp    482 <.label576>

0000000000000482 <.label576>:
     482:	eb 00                	jmp    484 <.label577>

0000000000000484 <.label577>:
     484:	eb 00                	jmp    486 <.label578>

0000000000000486 <.label578>:
     486:	eb 00                	jmp    488 <.label579>

0000000000000488 <.label579>:
     488:	eb 00                	jmp    48a <.label580>

000000000000048a <.label580>:
     48a:	eb 00                	jmp    48c <.label581>

000000000000048c <.label581>:
     48c:	eb 00                	jmp    48e <.label582>

000000000000048e <.label582>:
     48e:	eb 00                	jmp    490 <.label583>

0000000000000490 <.label583>:
     490:	eb 00                	jmp    492 <.label584>

0000000000000492 <.label584>:
     492:	eb 00                	jmp    494 <.label585>

0000000000000494 <.label585>:
     494:	eb 00                	jmp    496 <.label586>

0000000000000496 <.label586>:
     496:	eb 00                	jmp    498 <.label587>

0000000000000498 <.label587>:
     498:	eb 00                	jmp    49a <.label588>

000000000000049a <.label588>:
     49a:	eb 00                	jmp    49c <.label589>

000000000000049c <.label589>:
     49c:	eb 00                	jmp    49e <.label590>

000000000000049e <.label590>:
     49e:	eb 00                	jmp    4a0 <.label591>

00000000000004a0 <.label591>:
     4a0:	eb 00                	jmp    4a2 <.label592>

00000000000004a2 <.label592>:
     4a2:	eb 00                	jmp    4a4 <.label593>

00000000000004a4 <.label593>:
     4a4:	eb 00                	jmp    4a6 <.label594>

00000000000004a6 <.label594>:
     4a6:	eb 00                	jmp    4a8 <.label595>

00000000000004a8 <.label595>:
     4a8:	eb 00                	jmp    4aa <.label596>

00000000000004aa <.label596>:
     4aa:	eb 00                	jmp    4ac <.label597>

00000000000004ac <.label597>:
     4ac:	eb 00                	jmp    4ae <.label598>

00000000000004ae <.label598>:
     4ae:	eb 00                	jmp    4b0 <.label599>

00000000000004b0 <.label599>:
     4b0:	eb 00                	jmp    4b2 <.label600>

00000000000004b2 <.label600>:
     4b2:	eb 00                	jmp    4b4 <.label601>

00000000000004b4 <.label601>:
     4b4:	eb 00                	jmp    4b6 <.label602>

00000000000004b6 <.label602>:
     4b6:	eb 00                	jmp    4b8 <.label603>

00000000000004b8 <.label603>:
     4b8:	eb 00                	jmp    4ba <.label604>

00000000000004ba <.label604>:
     4ba:	eb 00                	jmp    4bc <.label605>

00000000000004bc <.label605>:
     4bc:	eb 00                	jmp    4be <.label606>

00000000000004be <.label606>:
     4be:	eb 00                	jmp    4c0 <.label607>

00000000000004c0 <.label607>:
     4c0:	eb 00                	jmp    4c2 <.label608>

00000000000004c2 <.label608>:
     4c2:	eb 00                	jmp    4c4 <.label609>

00000000000004c4 <.label609>:
     4c4:	eb 00                	jmp    4c6 <.label610>

00000000000004c6 <.label610>:
     4c6:	eb 00                	jmp    4c8 <.label611>

00000000000004c8 <.label611>:
     4c8:	eb 00                	jmp    4ca <.label612>

00000000000004ca <.label612>:
     4ca:	eb 00                	jmp    4cc <.label613>

00000000000004cc <.label613>:
     4cc:	eb 00                	jmp    4ce <.label614>

00000000000004ce <.label614>:
     4ce:	eb 00                	jmp    4d0 <.label615>

00000000000004d0 <.label615>:
     4d0:	eb 00                	jmp    4d2 <.label616>

00000000000004d2 <.label616>:
     4d2:	eb 00                	jmp    4d4 <.label617>

00000000000004d4 <.label617>:
     4d4:	eb 00                	jmp    4d6 <.label618>

00000000000004d6 <.label618>:
     4d6:	eb 00                	jmp    4d8 <.label619>

00000000000004d8 <.label619>:
     4d8:	eb 00                	jmp    4da <.label620>

00000000000004da <.label620>:
     4da:	eb 00                	jmp    4dc <.label621>

00000000000004dc <.label621>:
     4dc:	eb 00                	jmp    4de <.label622>

00000000000004de <.label622>:
     4de:	eb 00                	jmp    4e0 <.label623>

00000000000004e0 <.label623>:
     4e0:	eb 00                	jmp    4e2 <.label624>

00000000000004e2 <.label624>:
     4e2:	eb 00                	jmp    4e4 <.label625>

00000000000004e4 <.label625>:
     4e4:	eb 00                	jmp    4e6 <.label626>

00000000000004e6 <.label626>:
     4e6:	eb 00                	jmp    4e8 <.label627>

00000000000004e8 <.label627>:
     4e8:	eb 00                	jmp    4ea <.label628>

00000000000004ea <.label628>:
     4ea:	eb 00                	jmp    4ec <.label629>

00000000000004ec <.label629>:
     4ec:	eb 00                	jmp    4ee <.label630>

00000000000004ee <.label630>:
     4ee:	eb 00                	jmp    4f0 <.label631>

00000000000004f0 <.label631>:
     4f0:	eb 00                	jmp    4f2 <.label632>

00000000000004f2 <.label632>:
     4f2:	eb 00                	jmp    4f4 <.label633>

00000000000004f4 <.label633>:
     4f4:	eb 00                	jmp    4f6 <.label634>

00000000000004f6 <.label634>:
     4f6:	eb 00                	jmp    4f8 <.label635>

00000000000004f8 <.label635>:
     4f8:	eb 00                	jmp    4fa <.label636>

00000000000004fa <.label636>:
     4fa:	eb 00                	jmp    4fc <.label637>

00000000000004fc <.label637>:
     4fc:	eb 00                	jmp    4fe <.label638>

00000000000004fe <.label638>:
     4fe:	eb 00                	jmp    500 <.label639>

0000000000000500 <.label639>:
     500:	eb 00                	jmp    502 <.label640>

0000000000000502 <.label640>:
     502:	eb 00                	jmp    504 <.label641>

0000000000000504 <.label641>:
     504:	eb 00                	jmp    506 <.label642>

0000000000000506 <.label642>:
     506:	eb 00                	jmp    508 <.label643>

0000000000000508 <.label643>:
     508:	eb 00                	jmp    50a <.label644>

000000000000050a <.label644>:
     50a:	eb 00                	jmp    50c <.label645>

000000000000050c <.label645>:
     50c:	eb 00                	jmp    50e <.label646>

000000000000050e <.label646>:
     50e:	eb 00                	jmp    510 <.label647>

0000000000000510 <.label647>:
     510:	eb 00                	jmp    512 <.label648>

0000000000000512 <.label648>:
     512:	eb 00                	jmp    514 <.label649>

0000000000000514 <.label649>:
     514:	eb 00                	jmp    516 <.label650>

0000000000000516 <.label650>:
     516:	eb 00                	jmp    518 <.label651>

0000000000000518 <.label651>:
     518:	eb 00                	jmp    51a <.label652>

000000000000051a <.label652>:
     51a:	eb 00                	jmp    51c <.label653>

000000000000051c <.label653>:
     51c:	eb 00                	jmp    51e <.label654>

000000000000051e <.label654>:
     51e:	eb 00                	jmp    520 <.label655>

0000000000000520 <.label655>:
     520:	eb 00                	jmp    522 <.label656>

0000000000000522 <.label656>:
     522:	eb 00                	jmp    524 <.label657>

0000000000000524 <.label657>:
     524:	eb 00                	jmp    526 <.label658>

0000000000000526 <.label658>:
     526:	eb 00                	jmp    528 <.label659>

0000000000000528 <.label659>:
     528:	eb 00                	jmp    52a <.label660>

000000000000052a <.label660>:
     52a:	eb 00                	jmp    52c <.label661>

000000000000052c <.label661>:
     52c:	eb 00                	jmp    52e <.label662>

000000000000052e <.label662>:
     52e:	eb 00                	jmp    530 <.label663>

0000000000000530 <.label663>:
     530:	eb 00                	jmp    532 <.label664>

0000000000000532 <.label664>:
     532:	eb 00                	jmp    534 <.label665>

0000000000000534 <.label665>:
     534:	eb 00                	jmp    536 <.label666>

0000000000000536 <.label666>:
     536:	eb 00                	jmp    538 <.label667>

0000000000000538 <.label667>:
     538:	eb 00                	jmp    53a <.label668>

000000000000053a <.label668>:
     53a:	eb 00                	jmp    53c <.label669>

000000000000053c <.label669>:
     53c:	eb 00                	jmp    53e <.label670>

000000000000053e <.label670>:
     53e:	eb 00                	jmp    540 <.label671>

0000000000000540 <.label671>:
     540:	eb 00                	jmp    542 <.label672>

0000000000000542 <.label672>:
     542:	eb 00                	jmp    544 <.label673>

0000000000000544 <.label673>:
     544:	eb 00                	jmp    546 <.label674>

0000000000000546 <.label674>:
     546:	eb 00                	jmp    548 <.label675>

0000000000000548 <.label675>:
     548:	eb 00                	jmp    54a <.label676>

000000000000054a <.label676>:
     54a:	eb 00                	jmp    54c <.label677>

000000000000054c <.label677>:
     54c:	eb 00                	jmp    54e <.label678>

000000000000054e <.label678>:
     54e:	eb 00                	jmp    550 <.label679>

0000000000000550 <.label679>:
     550:	eb 00                	jmp    552 <.label680>

0000000000000552 <.label680>:
     552:	eb 00                	jmp    554 <.label681>

0000000000000554 <.label681>:
     554:	eb 00                	jmp    556 <.label682>

0000000000000556 <.label682>:
     556:	eb 00                	jmp    558 <.label683>

0000000000000558 <.label683>:
     558:	eb 00                	jmp    55a <.label684>

000000000000055a <.label684>:
     55a:	eb 00                	jmp    55c <.label685>

000000000000055c <.label685>:
     55c:	eb 00                	jmp    55e <.label686>

000000000000055e <.label686>:
     55e:	eb 00                	jmp    560 <.label687>

0000000000000560 <.label687>:
     560:	eb 00                	jmp    562 <.label688>

0000000000000562 <.label688>:
     562:	eb 00                	jmp    564 <.label689>

0000000000000564 <.label689>:
     564:	eb 00                	jmp    566 <.label690>

0000000000000566 <.label690>:
     566:	eb 00                	jmp    568 <.label691>

0000000000000568 <.label691>:
     568:	eb 00                	jmp    56a <.label692>

000000000000056a <.label692>:
     56a:	eb 00                	jmp    56c <.label693>

000000000000056c <.label693>:
     56c:	eb 00                	jmp    56e <.label694>

000000000000056e <.label694>:
     56e:	eb 00                	jmp    570 <.label695>

0000000000000570 <.label695>:
     570:	eb 00                	jmp    572 <.label696>

0000000000000572 <.label696>:
     572:	eb 00                	jmp    574 <.label697>

0000000000000574 <.label697>:
     574:	eb 00                	jmp    576 <.label698>

0000000000000576 <.label698>:
     576:	eb 00                	jmp    578 <.label699>

0000000000000578 <.label699>:
     578:	eb 00                	jmp    57a <.label700>

000000000000057a <.label700>:
     57a:	eb 00                	jmp    57c <.label701>

000000000000057c <.label701>:
     57c:	eb 00                	jmp    57e <.label702>

000000000000057e <.label702>:
     57e:	eb 00                	jmp    580 <.label703>

0000000000000580 <.label703>:
     580:	eb 00                	jmp    582 <.label704>

0000000000000582 <.label704>:
     582:	eb 00                	jmp    584 <.label705>

0000000000000584 <.label705>:
     584:	eb 00                	jmp    586 <.label706>

0000000000000586 <.label706>:
     586:	eb 00                	jmp    588 <.label707>

0000000000000588 <.label707>:
     588:	eb 00                	jmp    58a <.label708>

000000000000058a <.label708>:
     58a:	eb 00                	jmp    58c <.label709>

000000000000058c <.label709>:
     58c:	eb 00                	jmp    58e <.label710>

000000000000058e <.label710>:
     58e:	eb 00                	jmp    590 <.label711>

0000000000000590 <.label711>:
     590:	eb 00                	jmp    592 <.label712>

0000000000000592 <.label712>:
     592:	eb 00                	jmp    594 <.label713>

0000000000000594 <.label713>:
     594:	eb 00                	jmp    596 <.label714>

0000000000000596 <.label714>:
     596:	eb 00                	jmp    598 <.label715>

0000000000000598 <.label715>:
     598:	eb 00                	jmp    59a <.label716>

000000000000059a <.label716>:
     59a:	eb 00                	jmp    59c <.label717>

000000000000059c <.label717>:
     59c:	eb 00                	jmp    59e <.label718>

000000000000059e <.label718>:
     59e:	eb 00                	jmp    5a0 <.label719>

00000000000005a0 <.label719>:
     5a0:	eb 00                	jmp    5a2 <.label720>

00000000000005a2 <.label720>:
     5a2:	eb 00                	jmp    5a4 <.label721>

00000000000005a4 <.label721>:
     5a4:	eb 00                	jmp    5a6 <.label722>

00000000000005a6 <.label722>:
     5a6:	eb 00                	jmp    5a8 <.label723>

00000000000005a8 <.label723>:
     5a8:	eb 00                	jmp    5aa <.label724>

00000000000005aa <.label724>:
     5aa:	eb 00                	jmp    5ac <.label725>

00000000000005ac <.label725>:
     5ac:	eb 00                	jmp    5ae <.label726>

00000000000005ae <.label726>:
     5ae:	eb 00                	jmp    5b0 <.label727>

00000000000005b0 <.label727>:
     5b0:	eb 00                	jmp    5b2 <.label728>

00000000000005b2 <.label728>:
     5b2:	eb 00                	jmp    5b4 <.label729>

00000000000005b4 <.label729>:
     5b4:	eb 00                	jmp    5b6 <.label730>

00000000000005b6 <.label730>:
     5b6:	eb 00                	jmp    5b8 <.label731>

00000000000005b8 <.label731>:
     5b8:	eb 00                	jmp    5ba <.label732>

00000000000005ba <.label732>:
     5ba:	eb 00                	jmp    5bc <.label733>

00000000000005bc <.label733>:
     5bc:	eb 00                	jmp    5be <.label734>

00000000000005be <.label734>:
     5be:	eb 00                	jmp    5c0 <.label735>

00000000000005c0 <.label735>:
     5c0:	eb 00                	jmp    5c2 <.label736>

00000000000005c2 <.label736>:
     5c2:	eb 00                	jmp    5c4 <.label737>

00000000000005c4 <.label737>:
     5c4:	eb 00                	jmp    5c6 <.label738>

00000000000005c6 <.label738>:
     5c6:	eb 00                	jmp    5c8 <.label739>

00000000000005c8 <.label739>:
     5c8:	eb 00                	jmp    5ca <.label740>

00000000000005ca <.label740>:
     5ca:	eb 00                	jmp    5cc <.label741>

00000000000005cc <.label741>:
     5cc:	eb 00                	jmp    5ce <.label742>

00000000000005ce <.label742>:
     5ce:	eb 00                	jmp    5d0 <.label743>

00000000000005d0 <.label743>:
     5d0:	eb 00                	jmp    5d2 <.label744>

00000000000005d2 <.label744>:
     5d2:	eb 00                	jmp    5d4 <.label745>

00000000000005d4 <.label745>:
     5d4:	eb 00                	jmp    5d6 <.label746>

00000000000005d6 <.label746>:
     5d6:	eb 00                	jmp    5d8 <.label747>

00000000000005d8 <.label747>:
     5d8:	eb 00                	jmp    5da <.label748>

00000000000005da <.label748>:
     5da:	eb 00                	jmp    5dc <.label749>

00000000000005dc <.label749>:
     5dc:	eb 00                	jmp    5de <.label750>

00000000000005de <.label750>:
     5de:	eb 00                	jmp    5e0 <.label751>

00000000000005e0 <.label751>:
     5e0:	eb 00                	jmp    5e2 <.label752>

00000000000005e2 <.label752>:
     5e2:	eb 00                	jmp    5e4 <.label753>

00000000000005e4 <.label753>:
     5e4:	eb 00                	jmp    5e6 <.label754>

00000000000005e6 <.label754>:
     5e6:	eb 00                	jmp    5e8 <.label755>

00000000000005e8 <.label755>:
     5e8:	eb 00                	jmp    5ea <.label756>

00000000000005ea <.label756>:
     5ea:	eb 00                	jmp    5ec <.label757>

00000000000005ec <.label757>:
     5ec:	eb 00                	jmp    5ee <.label758>

00000000000005ee <.label758>:
     5ee:	eb 00                	jmp    5f0 <.label759>

00000000000005f0 <.label759>:
     5f0:	eb 00                	jmp    5f2 <.label760>

00000000000005f2 <.label760>:
     5f2:	eb 00                	jmp    5f4 <.label761>

00000000000005f4 <.label761>:
     5f4:	eb 00                	jmp    5f6 <.label762>

00000000000005f6 <.label762>:
     5f6:	eb 00                	jmp    5f8 <.label763>

00000000000005f8 <.label763>:
     5f8:	eb 00                	jmp    5fa <.label764>

00000000000005fa <.label764>:
     5fa:	eb 00                	jmp    5fc <.label765>

00000000000005fc <.label765>:
     5fc:	eb 00                	jmp    5fe <.label766>

00000000000005fe <.label766>:
     5fe:	eb 00                	jmp    600 <.label767>

0000000000000600 <.label767>:
     600:	eb 00                	jmp    602 <.label768>

0000000000000602 <.label768>:
     602:	eb 00                	jmp    604 <.label769>

0000000000000604 <.label769>:
     604:	eb 00                	jmp    606 <.label770>

0000000000000606 <.label770>:
     606:	eb 00                	jmp    608 <.label771>

0000000000000608 <.label771>:
     608:	eb 00                	jmp    60a <.label772>

000000000000060a <.label772>:
     60a:	eb 00                	jmp    60c <.label773>

000000000000060c <.label773>:
     60c:	eb 00                	jmp    60e <.label774>

000000000000060e <.label774>:
     60e:	eb 00                	jmp    610 <.label775>

0000000000000610 <.label775>:
     610:	eb 00                	jmp    612 <.label776>

0000000000000612 <.label776>:
     612:	eb 00                	jmp    614 <.label777>

0000000000000614 <.label777>:
     614:	eb 00                	jmp    616 <.label778>

0000000000000616 <.label778>:
     616:	eb 00                	jmp    618 <.label779>

0000000000000618 <.label779>:
     618:	eb 00                	jmp    61a <.label780>

000000000000061a <.label780>:
     61a:	eb 00                	jmp    61c <.label781>

000000000000061c <.label781>:
     61c:	eb 00                	jmp    61e <.label782>

000000000000061e <.label782>:
     61e:	eb 00                	jmp    620 <.label783>

0000000000000620 <.label783>:
     620:	eb 00                	jmp    622 <.label784>

0000000000000622 <.label784>:
     622:	eb 00                	jmp    624 <.label785>

0000000000000624 <.label785>:
     624:	eb 00                	jmp    626 <.label786>

0000000000000626 <.label786>:
     626:	eb 00                	jmp    628 <.label787>

0000000000000628 <.label787>:
     628:	eb 00                	jmp    62a <.label788>

000000000000062a <.label788>:
     62a:	eb 00                	jmp    62c <.label789>

000000000000062c <.label789>:
     62c:	eb 00                	jmp    62e <.label790>

000000000000062e <.label790>:
     62e:	eb 00                	jmp    630 <.label791>

0000000000000630 <.label791>:
     630:	eb 00                	jmp    632 <.label792>

0000000000000632 <.label792>:
     632:	eb 00                	jmp    634 <.label793>

0000000000000634 <.label793>:
     634:	eb 00                	jmp    636 <.label794>

0000000000000636 <.label794>:
     636:	eb 00                	jmp    638 <.label795>

0000000000000638 <.label795>:
     638:	eb 00                	jmp    63a <.label796>

000000000000063a <.label796>:
     63a:	eb 00                	jmp    63c <.label797>

000000000000063c <.label797>:
     63c:	eb 00                	jmp    63e <.label798>

000000000000063e <.label798>:
     63e:	eb 00                	jmp    640 <.label799>

0000000000000640 <.label799>:
     640:	eb 00                	jmp    642 <.label800>

0000000000000642 <.label800>:
     642:	eb 00                	jmp    644 <.label801>

0000000000000644 <.label801>:
     644:	eb 00                	jmp    646 <.label802>

0000000000000646 <.label802>:
     646:	eb 00                	jmp    648 <.label803>

0000000000000648 <.label803>:
     648:	eb 00                	jmp    64a <.label804>

000000000000064a <.label804>:
     64a:	eb 00                	jmp    64c <.label805>

000000000000064c <.label805>:
     64c:	eb 00                	jmp    64e <.label806>

000000000000064e <.label806>:
     64e:	eb 00                	jmp    650 <.label807>

0000000000000650 <.label807>:
     650:	eb 00                	jmp    652 <.label808>

0000000000000652 <.label808>:
     652:	eb 00                	jmp    654 <.label809>

0000000000000654 <.label809>:
     654:	eb 00                	jmp    656 <.label810>

0000000000000656 <.label810>:
     656:	eb 00                	jmp    658 <.label811>

0000000000000658 <.label811>:
     658:	eb 00                	jmp    65a <.label812>

000000000000065a <.label812>:
     65a:	eb 00                	jmp    65c <.label813>

000000000000065c <.label813>:
     65c:	eb 00                	jmp    65e <.label814>

000000000000065e <.label814>:
     65e:	eb 00                	jmp    660 <.label815>

0000000000000660 <.label815>:
     660:	eb 00                	jmp    662 <.label816>

0000000000000662 <.label816>:
     662:	eb 00                	jmp    664 <.label817>

0000000000000664 <.label817>:
     664:	eb 00                	jmp    666 <.label818>

0000000000000666 <.label818>:
     666:	eb 00                	jmp    668 <.label819>

0000000000000668 <.label819>:
     668:	eb 00                	jmp    66a <.label820>

000000000000066a <.label820>:
     66a:	eb 00                	jmp    66c <.label821>

000000000000066c <.label821>:
     66c:	eb 00                	jmp    66e <.label822>

000000000000066e <.label822>:
     66e:	eb 00                	jmp    670 <.label823>

0000000000000670 <.label823>:
     670:	eb 00                	jmp    672 <.label824>

0000000000000672 <.label824>:
     672:	eb 00                	jmp    674 <.label825>

0000000000000674 <.label825>:
     674:	eb 00                	jmp    676 <.label826>

0000000000000676 <.label826>:
     676:	eb 00                	jmp    678 <.label827>

0000000000000678 <.label827>:
     678:	eb 00                	jmp    67a <.label828>

000000000000067a <.label828>:
     67a:	eb 00                	jmp    67c <.label829>

000000000000067c <.label829>:
     67c:	eb 00                	jmp    67e <.label830>

000000000000067e <.label830>:
     67e:	eb 00                	jmp    680 <.label831>

0000000000000680 <.label831>:
     680:	eb 00                	jmp    682 <.label832>

0000000000000682 <.label832>:
     682:	eb 00                	jmp    684 <.label833>

0000000000000684 <.label833>:
     684:	eb 00                	jmp    686 <.label834>

0000000000000686 <.label834>:
     686:	eb 00                	jmp    688 <.label835>

0000000000000688 <.label835>:
     688:	eb 00                	jmp    68a <.label836>

000000000000068a <.label836>:
     68a:	eb 00                	jmp    68c <.label837>

000000000000068c <.label837>:
     68c:	eb 00                	jmp    68e <.label838>

000000000000068e <.label838>:
     68e:	eb 00                	jmp    690 <.label839>

0000000000000690 <.label839>:
     690:	eb 00                	jmp    692 <.label840>

0000000000000692 <.label840>:
     692:	eb 00                	jmp    694 <.label841>

0000000000000694 <.label841>:
     694:	eb 00                	jmp    696 <.label842>

0000000000000696 <.label842>:
     696:	eb 00                	jmp    698 <.label843>

0000000000000698 <.label843>:
     698:	eb 00                	jmp    69a <.label844>

000000000000069a <.label844>:
     69a:	eb 00                	jmp    69c <.label845>

000000000000069c <.label845>:
     69c:	eb 00                	jmp    69e <.label846>

000000000000069e <.label846>:
     69e:	eb 00                	jmp    6a0 <.label847>

00000000000006a0 <.label847>:
     6a0:	eb 00                	jmp    6a2 <.label848>

00000000000006a2 <.label848>:
     6a2:	eb 00                	jmp    6a4 <.label849>

00000000000006a4 <.label849>:
     6a4:	eb 00                	jmp    6a6 <.label850>

00000000000006a6 <.label850>:
     6a6:	eb 00                	jmp    6a8 <.label851>

00000000000006a8 <.label851>:
     6a8:	eb 00                	jmp    6aa <.label852>

00000000000006aa <.label852>:
     6aa:	eb 00                	jmp    6ac <.label853>

00000000000006ac <.label853>:
     6ac:	eb 00                	jmp    6ae <.label854>

00000000000006ae <.label854>:
     6ae:	eb 00                	jmp    6b0 <.label855>

00000000000006b0 <.label855>:
     6b0:	eb 00                	jmp    6b2 <.label856>

00000000000006b2 <.label856>:
     6b2:	eb 00                	jmp    6b4 <.label857>

00000000000006b4 <.label857>:
     6b4:	eb 00                	jmp    6b6 <.label858>

00000000000006b6 <.label858>:
     6b6:	eb 00                	jmp    6b8 <.label859>

00000000000006b8 <.label859>:
     6b8:	eb 00                	jmp    6ba <.label860>

00000000000006ba <.label860>:
     6ba:	eb 00                	jmp    6bc <.label861>

00000000000006bc <.label861>:
     6bc:	eb 00                	jmp    6be <.label862>

00000000000006be <.label862>:
     6be:	eb 00                	jmp    6c0 <.label863>

00000000000006c0 <.label863>:
     6c0:	eb 00                	jmp    6c2 <.label864>

00000000000006c2 <.label864>:
     6c2:	eb 00                	jmp    6c4 <.label865>

00000000000006c4 <.label865>:
     6c4:	eb 00                	jmp    6c6 <.label866>

00000000000006c6 <.label866>:
     6c6:	eb 00                	jmp    6c8 <.label867>

00000000000006c8 <.label867>:
     6c8:	eb 00                	jmp    6ca <.label868>

00000000000006ca <.label868>:
     6ca:	eb 00                	jmp    6cc <.label869>

00000000000006cc <.label869>:
     6cc:	eb 00                	jmp    6ce <.label870>

00000000000006ce <.label870>:
     6ce:	eb 00                	jmp    6d0 <.label871>

00000000000006d0 <.label871>:
     6d0:	eb 00                	jmp    6d2 <.label872>

00000000000006d2 <.label872>:
     6d2:	eb 00                	jmp    6d4 <.label873>

00000000000006d4 <.label873>:
     6d4:	eb 00                	jmp    6d6 <.label874>

00000000000006d6 <.label874>:
     6d6:	eb 00                	jmp    6d8 <.label875>

00000000000006d8 <.label875>:
     6d8:	eb 00                	jmp    6da <.label876>

00000000000006da <.label876>:
     6da:	eb 00                	jmp    6dc <.label877>

00000000000006dc <.label877>:
     6dc:	eb 00                	jmp    6de <.label878>

00000000000006de <.label878>:
     6de:	eb 00                	jmp    6e0 <.label879>

00000000000006e0 <.label879>:
     6e0:	eb 00                	jmp    6e2 <.label880>

00000000000006e2 <.label880>:
     6e2:	eb 00                	jmp    6e4 <.label881>

00000000000006e4 <.label881>:
     6e4:	eb 00                	jmp    6e6 <.label882>

00000000000006e6 <.label882>:
     6e6:	eb 00                	jmp    6e8 <.label883>

00000000000006e8 <.label883>:
     6e8:	eb 00                	jmp    6ea <.label884>

00000000000006ea <.label884>:
     6ea:	eb 00                	jmp    6ec <.label885>

00000000000006ec <.label885>:
     6ec:	eb 00                	jmp    6ee <.label886>

00000000000006ee <.label886>:
     6ee:	eb 00                	jmp    6f0 <.label887>

00000000000006f0 <.label887>:
     6f0:	eb 00                	jmp    6f2 <.label888>

00000000000006f2 <.label888>:
     6f2:	eb 00                	jmp    6f4 <.label889>

00000000000006f4 <.label889>:
     6f4:	eb 00                	jmp    6f6 <.label890>

00000000000006f6 <.label890>:
     6f6:	eb 00                	jmp    6f8 <.label891>

00000000000006f8 <.label891>:
     6f8:	eb 00                	jmp    6fa <.label892>

00000000000006fa <.label892>:
     6fa:	eb 00                	jmp    6fc <.label893>

00000000000006fc <.label893>:
     6fc:	eb 00                	jmp    6fe <.label894>

00000000000006fe <.label894>:
     6fe:	eb 00                	jmp    700 <.label895>

0000000000000700 <.label895>:
     700:	eb 00                	jmp    702 <.label896>

0000000000000702 <.label896>:
     702:	eb 00                	jmp    704 <.label897>

0000000000000704 <.label897>:
     704:	eb 00                	jmp    706 <.label898>

0000000000000706 <.label898>:
     706:	eb 00                	jmp    708 <.label899>

0000000000000708 <.label899>:
     708:	eb 00                	jmp    70a <.label900>

000000000000070a <.label900>:
     70a:	eb 00                	jmp    70c <.label901>

000000000000070c <.label901>:
     70c:	eb 00                	jmp    70e <.label902>

000000000000070e <.label902>:
     70e:	eb 00                	jmp    710 <.label903>

0000000000000710 <.label903>:
     710:	eb 00                	jmp    712 <.label904>

0000000000000712 <.label904>:
     712:	eb 00                	jmp    714 <.label905>

0000000000000714 <.label905>:
     714:	eb 00                	jmp    716 <.label906>

0000000000000716 <.label906>:
     716:	eb 00                	jmp    718 <.label907>

0000000000000718 <.label907>:
     718:	eb 00                	jmp    71a <.label908>

000000000000071a <.label908>:
     71a:	eb 00                	jmp    71c <.label909>

000000000000071c <.label909>:
     71c:	eb 00                	jmp    71e <.label910>

000000000000071e <.label910>:
     71e:	eb 00                	jmp    720 <.label911>

0000000000000720 <.label911>:
     720:	eb 00                	jmp    722 <.label912>

0000000000000722 <.label912>:
     722:	eb 00                	jmp    724 <.label913>

0000000000000724 <.label913>:
     724:	eb 00                	jmp    726 <.label914>

0000000000000726 <.label914>:
     726:	eb 00                	jmp    728 <.label915>

0000000000000728 <.label915>:
     728:	eb 00                	jmp    72a <.label916>

000000000000072a <.label916>:
     72a:	eb 00                	jmp    72c <.label917>

000000000000072c <.label917>:
     72c:	eb 00                	jmp    72e <.label918>

000000000000072e <.label918>:
     72e:	eb 00                	jmp    730 <.label919>

0000000000000730 <.label919>:
     730:	eb 00                	jmp    732 <.label920>

0000000000000732 <.label920>:
     732:	eb 00                	jmp    734 <.label921>

0000000000000734 <.label921>:
     734:	eb 00                	jmp    736 <.label922>

0000000000000736 <.label922>:
     736:	eb 00                	jmp    738 <.label923>

0000000000000738 <.label923>:
     738:	eb 00                	jmp    73a <.label924>

000000000000073a <.label924>:
     73a:	eb 00                	jmp    73c <.label925>

000000000000073c <.label925>:
     73c:	eb 00                	jmp    73e <.label926>

000000000000073e <.label926>:
     73e:	eb 00                	jmp    740 <.label927>

0000000000000740 <.label927>:
     740:	eb 00                	jmp    742 <.label928>

0000000000000742 <.label928>:
     742:	eb 00                	jmp    744 <.label929>

0000000000000744 <.label929>:
     744:	eb 00                	jmp    746 <.label930>

0000000000000746 <.label930>:
     746:	eb 00                	jmp    748 <.label931>

0000000000000748 <.label931>:
     748:	eb 00                	jmp    74a <.label932>

000000000000074a <.label932>:
     74a:	eb 00                	jmp    74c <.label933>

000000000000074c <.label933>:
     74c:	eb 00                	jmp    74e <.label934>

000000000000074e <.label934>:
     74e:	eb 00                	jmp    750 <.label935>

0000000000000750 <.label935>:
     750:	eb 00                	jmp    752 <.label936>

0000000000000752 <.label936>:
     752:	eb 00                	jmp    754 <.label937>

0000000000000754 <.label937>:
     754:	eb 00                	jmp    756 <.label938>

0000000000000756 <.label938>:
     756:	eb 00                	jmp    758 <.label939>

0000000000000758 <.label939>:
     758:	eb 00                	jmp    75a <.label940>

000000000000075a <.label940>:
     75a:	eb 00                	jmp    75c <.label941>

000000000000075c <.label941>:
     75c:	eb 00                	jmp    75e <.label942>

000000000000075e <.label942>:
     75e:	eb 00                	jmp    760 <.label943>

0000000000000760 <.label943>:
     760:	eb 00                	jmp    762 <.label944>

0000000000000762 <.label944>:
     762:	eb 00                	jmp    764 <.label945>

0000000000000764 <.label945>:
     764:	eb 00                	jmp    766 <.label946>

0000000000000766 <.label946>:
     766:	eb 00                	jmp    768 <.label947>

0000000000000768 <.label947>:
     768:	eb 00                	jmp    76a <.label948>

000000000000076a <.label948>:
     76a:	eb 00                	jmp    76c <.label949>

000000000000076c <.label949>:
     76c:	eb 00                	jmp    76e <.label950>

000000000000076e <.label950>:
     76e:	eb 00                	jmp    770 <.label951>

0000000000000770 <.label951>:
     770:	eb 00                	jmp    772 <.label952>

0000000000000772 <.label952>:
     772:	eb 00                	jmp    774 <.label953>

0000000000000774 <.label953>:
     774:	eb 00                	jmp    776 <.label954>

0000000000000776 <.label954>:
     776:	eb 00                	jmp    778 <.label955>

0000000000000778 <.label955>:
     778:	eb 00                	jmp    77a <.label956>

000000000000077a <.label956>:
     77a:	eb 00                	jmp    77c <.label957>

000000000000077c <.label957>:
     77c:	eb 00                	jmp    77e <.label958>

000000000000077e <.label958>:
     77e:	eb 00                	jmp    780 <.label959>

0000000000000780 <.label959>:
     780:	eb 00                	jmp    782 <.label960>

0000000000000782 <.label960>:
     782:	eb 00                	jmp    784 <.label961>

0000000000000784 <.label961>:
     784:	eb 00                	jmp    786 <.label962>

0000000000000786 <.label962>:
     786:	eb 00                	jmp    788 <.label963>

0000000000000788 <.label963>:
     788:	eb 00                	jmp    78a <.label964>

000000000000078a <.label964>:
     78a:	eb 00                	jmp    78c <.label965>

000000000000078c <.label965>:
     78c:	eb 00                	jmp    78e <.label966>

000000000000078e <.label966>:
     78e:	eb 00                	jmp    790 <.label967>

0000000000000790 <.label967>:
     790:	eb 00                	jmp    792 <.label968>

0000000000000792 <.label968>:
     792:	eb 00                	jmp    794 <.label969>

0000000000000794 <.label969>:
     794:	eb 00                	jmp    796 <.label970>

0000000000000796 <.label970>:
     796:	eb 00                	jmp    798 <.label971>

0000000000000798 <.label971>:
     798:	eb 00                	jmp    79a <.label972>

000000000000079a <.label972>:
     79a:	eb 00                	jmp    79c <.label973>

000000000000079c <.label973>:
     79c:	eb 00                	jmp    79e <.label974>

000000000000079e <.label974>:
     79e:	eb 00                	jmp    7a0 <.label975>

00000000000007a0 <.label975>:
     7a0:	eb 00                	jmp    7a2 <.label976>

00000000000007a2 <.label976>:
     7a2:	eb 00                	jmp    7a4 <.label977>

00000000000007a4 <.label977>:
     7a4:	eb 00                	jmp    7a6 <.label978>

00000000000007a6 <.label978>:
     7a6:	eb 00                	jmp    7a8 <.label979>

00000000000007a8 <.label979>:
     7a8:	eb 00                	jmp    7aa <.label980>

00000000000007aa <.label980>:
     7aa:	eb 00                	jmp    7ac <.label981>

00000000000007ac <.label981>:
     7ac:	eb 00                	jmp    7ae <.label982>

00000000000007ae <.label982>:
     7ae:	eb 00                	jmp    7b0 <.label983>

00000000000007b0 <.label983>:
     7b0:	eb 00                	jmp    7b2 <.label984>

00000000000007b2 <.label984>:
     7b2:	eb 00                	jmp    7b4 <.label985>

00000000000007b4 <.label985>:
     7b4:	eb 00                	jmp    7b6 <.label986>

00000000000007b6 <.label986>:
     7b6:	eb 00                	jmp    7b8 <.label987>

00000000000007b8 <.label987>:
     7b8:	eb 00                	jmp    7ba <.label988>

00000000000007ba <.label988>:
     7ba:	eb 00                	jmp    7bc <.label989>

00000000000007bc <.label989>:
     7bc:	eb 00                	jmp    7be <.label990>

00000000000007be <.label990>:
     7be:	eb 00                	jmp    7c0 <.label991>

00000000000007c0 <.label991>:
     7c0:	eb 00                	jmp    7c2 <.label992>

00000000000007c2 <.label992>:
     7c2:	eb 00                	jmp    7c4 <.label993>

00000000000007c4 <.label993>:
     7c4:	eb 00                	jmp    7c6 <.label994>

00000000000007c6 <.label994>:
     7c6:	eb 00                	jmp    7c8 <.label995>

00000000000007c8 <.label995>:
     7c8:	eb 00                	jmp    7ca <.label996>

00000000000007ca <.label996>:
     7ca:	eb 00                	jmp    7cc <.label997>

00000000000007cc <.label997>:
     7cc:	eb 00                	jmp    7ce <.label998>

00000000000007ce <.label998>:
     7ce:	eb 00                	jmp    7d0 <.label999>

00000000000007d0 <.label999>:
     7d0:	eb 00                	jmp    7d2 <.label1000>

00000000000007d2 <.label1000>:
     7d2:	eb 00                	jmp    7d4 <.label1001>

00000000000007d4 <.label1001>:
     7d4:	eb 00                	jmp    7d6 <.label1002>

00000000000007d6 <.label1002>:
     7d6:	eb 00                	jmp    7d8 <.label1003>

00000000000007d8 <.label1003>:
     7d8:	eb 00                	jmp    7da <.label1004>

00000000000007da <.label1004>:
     7da:	eb 00                	jmp    7dc <.label1005>

00000000000007dc <.label1005>:
     7dc:	eb 00                	jmp    7de <.label1006>

00000000000007de <.label1006>:
     7de:	eb 00                	jmp    7e0 <.label1007>

00000000000007e0 <.label1007>:
     7e0:	eb 00                	jmp    7e2 <.label1008>

00000000000007e2 <.label1008>:
     7e2:	eb 00                	jmp    7e4 <.label1009>

00000000000007e4 <.label1009>:
     7e4:	eb 00                	jmp    7e6 <.label1010>

00000000000007e6 <.label1010>:
     7e6:	eb 00                	jmp    7e8 <.label1011>

00000000000007e8 <.label1011>:
     7e8:	eb 00                	jmp    7ea <.label1012>

00000000000007ea <.label1012>:
     7ea:	eb 00                	jmp    7ec <.label1013>

00000000000007ec <.label1013>:
     7ec:	eb 00                	jmp    7ee <.label1014>

00000000000007ee <.label1014>:
     7ee:	eb 00                	jmp    7f0 <.label1015>

00000000000007f0 <.label1015>:
     7f0:	eb 00                	jmp    7f2 <.label1016>

00000000000007f2 <.label1016>:
     7f2:	eb 00                	jmp    7f4 <.label1017>

00000000000007f4 <.label1017>:
     7f4:	eb 00                	jmp    7f6 <.label1018>

00000000000007f6 <.label1018>:
     7f6:	eb 00                	jmp    7f8 <.label1019>

00000000000007f8 <.label1019>:
     7f8:	eb 00                	jmp    7fa <.label1020>

00000000000007fa <.label1020>:
     7fa:	eb 00                	jmp    7fc <.label1021>

00000000000007fc <.label1021>:
     7fc:	eb 00                	jmp    7fe <.label1022>

00000000000007fe <.label1022>:
     7fe:	eb 00                	jmp    800 <.label1023>

0000000000000800 <.label1023>:
     800:	eb 00                	jmp    802 <.label1024>

0000000000000802 <.label1024>:
     802:	eb 00                	jmp    804 <.label1025>

0000000000000804 <.label1025>:
     804:	eb 00                	jmp    806 <.label1026>

0000000000000806 <.label1026>:
     806:	eb 00                	jmp    808 <.label1027>

0000000000000808 <.label1027>:
     808:	eb 00                	jmp    80a <.label1028>

000000000000080a <.label1028>:
     80a:	eb 00                	jmp    80c <.label1029>

000000000000080c <.label1029>:
     80c:	eb 00                	jmp    80e <.label1030>

000000000000080e <.label1030>:
     80e:	eb 00                	jmp    810 <.label1031>

0000000000000810 <.label1031>:
     810:	eb 00                	jmp    812 <.label1032>

0000000000000812 <.label1032>:
     812:	eb 00                	jmp    814 <.label1033>

0000000000000814 <.label1033>:
     814:	eb 00                	jmp    816 <.label1034>

0000000000000816 <.label1034>:
     816:	eb 00                	jmp    818 <.label1035>

0000000000000818 <.label1035>:
     818:	eb 00                	jmp    81a <.label1036>

000000000000081a <.label1036>:
     81a:	eb 00                	jmp    81c <.label1037>

000000000000081c <.label1037>:
     81c:	eb 00                	jmp    81e <.label1038>

000000000000081e <.label1038>:
     81e:	eb 00                	jmp    820 <.label1039>

0000000000000820 <.label1039>:
     820:	eb 00                	jmp    822 <.label1040>

0000000000000822 <.label1040>:
     822:	eb 00                	jmp    824 <.label1041>

0000000000000824 <.label1041>:
     824:	eb 00                	jmp    826 <.label1042>

0000000000000826 <.label1042>:
     826:	eb 00                	jmp    828 <.label1043>

0000000000000828 <.label1043>:
     828:	eb 00                	jmp    82a <.label1044>

000000000000082a <.label1044>:
     82a:	eb 00                	jmp    82c <.label1045>

000000000000082c <.label1045>:
     82c:	eb 00                	jmp    82e <.label1046>

000000000000082e <.label1046>:
     82e:	eb 00                	jmp    830 <.label1047>

0000000000000830 <.label1047>:
     830:	eb 00                	jmp    832 <.label1048>

0000000000000832 <.label1048>:
     832:	eb 00                	jmp    834 <.label1049>

0000000000000834 <.label1049>:
     834:	eb 00                	jmp    836 <.label1050>

0000000000000836 <.label1050>:
     836:	eb 00                	jmp    838 <.label1051>

0000000000000838 <.label1051>:
     838:	eb 00                	jmp    83a <.label1052>

000000000000083a <.label1052>:
     83a:	eb 00                	jmp    83c <.label1053>

000000000000083c <.label1053>:
     83c:	eb 00                	jmp    83e <.label1054>

000000000000083e <.label1054>:
     83e:	eb 00                	jmp    840 <.label1055>

0000000000000840 <.label1055>:
     840:	eb 00                	jmp    842 <.label1056>

0000000000000842 <.label1056>:
     842:	eb 00                	jmp    844 <.label1057>

0000000000000844 <.label1057>:
     844:	eb 00                	jmp    846 <.label1058>

0000000000000846 <.label1058>:
     846:	eb 00                	jmp    848 <.label1059>

0000000000000848 <.label1059>:
     848:	eb 00                	jmp    84a <.label1060>

000000000000084a <.label1060>:
     84a:	eb 00                	jmp    84c <.label1061>

000000000000084c <.label1061>:
     84c:	eb 00                	jmp    84e <.label1062>

000000000000084e <.label1062>:
     84e:	eb 00                	jmp    850 <.label1063>

0000000000000850 <.label1063>:
     850:	eb 00                	jmp    852 <.label1064>

0000000000000852 <.label1064>:
     852:	eb 00                	jmp    854 <.label1065>

0000000000000854 <.label1065>:
     854:	eb 00                	jmp    856 <.label1066>

0000000000000856 <.label1066>:
     856:	eb 00                	jmp    858 <.label1067>

0000000000000858 <.label1067>:
     858:	eb 00                	jmp    85a <.label1068>

000000000000085a <.label1068>:
     85a:	eb 00                	jmp    85c <.label1069>

000000000000085c <.label1069>:
     85c:	eb 00                	jmp    85e <.label1070>

000000000000085e <.label1070>:
     85e:	eb 00                	jmp    860 <.label1071>

0000000000000860 <.label1071>:
     860:	eb 00                	jmp    862 <.label1072>

0000000000000862 <.label1072>:
     862:	eb 00                	jmp    864 <.label1073>

0000000000000864 <.label1073>:
     864:	eb 00                	jmp    866 <.label1074>

0000000000000866 <.label1074>:
     866:	eb 00                	jmp    868 <.label1075>

0000000000000868 <.label1075>:
     868:	eb 00                	jmp    86a <.label1076>

000000000000086a <.label1076>:
     86a:	eb 00                	jmp    86c <.label1077>

000000000000086c <.label1077>:
     86c:	eb 00                	jmp    86e <.label1078>

000000000000086e <.label1078>:
     86e:	eb 00                	jmp    870 <.label1079>

0000000000000870 <.label1079>:
     870:	eb 00                	jmp    872 <.label1080>

0000000000000872 <.label1080>:
     872:	eb 00                	jmp    874 <.label1081>

0000000000000874 <.label1081>:
     874:	eb 00                	jmp    876 <.label1082>

0000000000000876 <.label1082>:
     876:	eb 00                	jmp    878 <.label1083>

0000000000000878 <.label1083>:
     878:	eb 00                	jmp    87a <.label1084>

000000000000087a <.label1084>:
     87a:	eb 00                	jmp    87c <.label1085>

000000000000087c <.label1085>:
     87c:	eb 00                	jmp    87e <.label1086>

000000000000087e <.label1086>:
     87e:	eb 00                	jmp    880 <.label1087>

0000000000000880 <.label1087>:
     880:	eb 00                	jmp    882 <.label1088>

0000000000000882 <.label1088>:
     882:	eb 00                	jmp    884 <.label1089>

0000000000000884 <.label1089>:
     884:	eb 00                	jmp    886 <.label1090>

0000000000000886 <.label1090>:
     886:	eb 00                	jmp    888 <.label1091>

0000000000000888 <.label1091>:
     888:	eb 00                	jmp    88a <.label1092>

000000000000088a <.label1092>:
     88a:	eb 00                	jmp    88c <.label1093>

000000000000088c <.label1093>:
     88c:	eb 00                	jmp    88e <.label1094>

000000000000088e <.label1094>:
     88e:	eb 00                	jmp    890 <.label1095>

0000000000000890 <.label1095>:
     890:	eb 00                	jmp    892 <.label1096>

0000000000000892 <.label1096>:
     892:	eb 00                	jmp    894 <.label1097>

0000000000000894 <.label1097>:
     894:	eb 00                	jmp    896 <.label1098>

0000000000000896 <.label1098>:
     896:	eb 00                	jmp    898 <.label1099>

0000000000000898 <.label1099>:
     898:	eb 00                	jmp    89a <.label1100>

000000000000089a <.label1100>:
     89a:	eb 00                	jmp    89c <.label1101>

000000000000089c <.label1101>:
     89c:	eb 00                	jmp    89e <.label1102>

000000000000089e <.label1102>:
     89e:	eb 00                	jmp    8a0 <.label1103>

00000000000008a0 <.label1103>:
     8a0:	eb 00                	jmp    8a2 <.label1104>

00000000000008a2 <.label1104>:
     8a2:	eb 00                	jmp    8a4 <.label1105>

00000000000008a4 <.label1105>:
     8a4:	eb 00                	jmp    8a6 <.label1106>

00000000000008a6 <.label1106>:
     8a6:	eb 00                	jmp    8a8 <.label1107>

00000000000008a8 <.label1107>:
     8a8:	eb 00                	jmp    8aa <.label1108>

00000000000008aa <.label1108>:
     8aa:	eb 00                	jmp    8ac <.label1109>

00000000000008ac <.label1109>:
     8ac:	eb 00                	jmp    8ae <.label1110>

00000000000008ae <.label1110>:
     8ae:	eb 00                	jmp    8b0 <.label1111>

00000000000008b0 <.label1111>:
     8b0:	eb 00                	jmp    8b2 <.label1112>

00000000000008b2 <.label1112>:
     8b2:	eb 00                	jmp    8b4 <.label1113>

00000000000008b4 <.label1113>:
     8b4:	eb 00                	jmp    8b6 <.label1114>

00000000000008b6 <.label1114>:
     8b6:	eb 00                	jmp    8b8 <.label1115>

00000000000008b8 <.label1115>:
     8b8:	eb 00                	jmp    8ba <.label1116>

00000000000008ba <.label1116>:
     8ba:	eb 00                	jmp    8bc <.label1117>

00000000000008bc <.label1117>:
     8bc:	eb 00                	jmp    8be <.label1118>

00000000000008be <.label1118>:
     8be:	eb 00                	jmp    8c0 <.label1119>

00000000000008c0 <.label1119>:
     8c0:	eb 00                	jmp    8c2 <.label1120>

00000000000008c2 <.label1120>:
     8c2:	eb 00                	jmp    8c4 <.label1121>

00000000000008c4 <.label1121>:
     8c4:	eb 00                	jmp    8c6 <.label1122>

00000000000008c6 <.label1122>:
     8c6:	eb 00                	jmp    8c8 <.label1123>

00000000000008c8 <.label1123>:
     8c8:	eb 00                	jmp    8ca <.label1124>

00000000000008ca <.label1124>:
     8ca:	eb 00                	jmp    8cc <.label1125>

00000000000008cc <.label1125>:
     8cc:	eb 00                	jmp    8ce <.label1126>

00000000000008ce <.label1126>:
     8ce:	eb 00                	jmp    8d0 <.label1127>

00000000000008d0 <.label1127>:
     8d0:	eb 00                	jmp    8d2 <.label1128>

00000000000008d2 <.label1128>:
     8d2:	eb 00                	jmp    8d4 <.label1129>

00000000000008d4 <.label1129>:
     8d4:	eb 00                	jmp    8d6 <.label1130>

00000000000008d6 <.label1130>:
     8d6:	eb 00                	jmp    8d8 <.label1131>

00000000000008d8 <.label1131>:
     8d8:	eb 00                	jmp    8da <.label1132>

00000000000008da <.label1132>:
     8da:	eb 00                	jmp    8dc <.label1133>

00000000000008dc <.label1133>:
     8dc:	eb 00                	jmp    8de <.label1134>

00000000000008de <.label1134>:
     8de:	eb 00                	jmp    8e0 <.label1135>

00000000000008e0 <.label1135>:
     8e0:	eb 00                	jmp    8e2 <.label1136>

00000000000008e2 <.label1136>:
     8e2:	eb 00                	jmp    8e4 <.label1137>

00000000000008e4 <.label1137>:
     8e4:	eb 00                	jmp    8e6 <.label1138>

00000000000008e6 <.label1138>:
     8e6:	eb 00                	jmp    8e8 <.label1139>

00000000000008e8 <.label1139>:
     8e8:	eb 00                	jmp    8ea <.label1140>

00000000000008ea <.label1140>:
     8ea:	eb 00                	jmp    8ec <.label1141>

00000000000008ec <.label1141>:
     8ec:	eb 00                	jmp    8ee <.label1142>

00000000000008ee <.label1142>:
     8ee:	eb 00                	jmp    8f0 <.label1143>

00000000000008f0 <.label1143>:
     8f0:	eb 00                	jmp    8f2 <.label1144>

00000000000008f2 <.label1144>:
     8f2:	eb 00                	jmp    8f4 <.label1145>

00000000000008f4 <.label1145>:
     8f4:	eb 00                	jmp    8f6 <.label1146>

00000000000008f6 <.label1146>:
     8f6:	eb 00                	jmp    8f8 <.label1147>

00000000000008f8 <.label1147>:
     8f8:	eb 00                	jmp    8fa <.label1148>

00000000000008fa <.label1148>:
     8fa:	eb 00                	jmp    8fc <.label1149>

00000000000008fc <.label1149>:
     8fc:	eb 00                	jmp    8fe <.label1150>

00000000000008fe <.label1150>:
     8fe:	eb 00                	jmp    900 <.label1151>

0000000000000900 <.label1151>:
     900:	eb 00                	jmp    902 <.label1152>

0000000000000902 <.label1152>:
     902:	eb 00                	jmp    904 <.label1153>

0000000000000904 <.label1153>:
     904:	eb 00                	jmp    906 <.label1154>

0000000000000906 <.label1154>:
     906:	eb 00                	jmp    908 <.label1155>

0000000000000908 <.label1155>:
     908:	eb 00                	jmp    90a <.label1156>

000000000000090a <.label1156>:
     90a:	eb 00                	jmp    90c <.label1157>

000000000000090c <.label1157>:
     90c:	eb 00                	jmp    90e <.label1158>

000000000000090e <.label1158>:
     90e:	eb 00                	jmp    910 <.label1159>

0000000000000910 <.label1159>:
     910:	eb 00                	jmp    912 <.label1160>

0000000000000912 <.label1160>:
     912:	eb 00                	jmp    914 <.label1161>

0000000000000914 <.label1161>:
     914:	eb 00                	jmp    916 <.label1162>

0000000000000916 <.label1162>:
     916:	eb 00                	jmp    918 <.label1163>

0000000000000918 <.label1163>:
     918:	eb 00                	jmp    91a <.label1164>

000000000000091a <.label1164>:
     91a:	eb 00                	jmp    91c <.label1165>

000000000000091c <.label1165>:
     91c:	eb 00                	jmp    91e <.label1166>

000000000000091e <.label1166>:
     91e:	eb 00                	jmp    920 <.label1167>

0000000000000920 <.label1167>:
     920:	eb 00                	jmp    922 <.label1168>

0000000000000922 <.label1168>:
     922:	eb 00                	jmp    924 <.label1169>

0000000000000924 <.label1169>:
     924:	eb 00                	jmp    926 <.label1170>

0000000000000926 <.label1170>:
     926:	eb 00                	jmp    928 <.label1171>

0000000000000928 <.label1171>:
     928:	eb 00                	jmp    92a <.label1172>

000000000000092a <.label1172>:
     92a:	eb 00                	jmp    92c <.label1173>

000000000000092c <.label1173>:
     92c:	eb 00                	jmp    92e <.label1174>

000000000000092e <.label1174>:
     92e:	eb 00                	jmp    930 <.label1175>

0000000000000930 <.label1175>:
     930:	eb 00                	jmp    932 <.label1176>

0000000000000932 <.label1176>:
     932:	eb 00                	jmp    934 <.label1177>

0000000000000934 <.label1177>:
     934:	eb 00                	jmp    936 <.label1178>

0000000000000936 <.label1178>:
     936:	eb 00                	jmp    938 <.label1179>

0000000000000938 <.label1179>:
     938:	eb 00                	jmp    93a <.label1180>

000000000000093a <.label1180>:
     93a:	eb 00                	jmp    93c <.label1181>

000000000000093c <.label1181>:
     93c:	eb 00                	jmp    93e <.label1182>

000000000000093e <.label1182>:
     93e:	eb 00                	jmp    940 <.label1183>

0000000000000940 <.label1183>:
     940:	eb 00                	jmp    942 <.label1184>

0000000000000942 <.label1184>:
     942:	eb 00                	jmp    944 <.label1185>

0000000000000944 <.label1185>:
     944:	eb 00                	jmp    946 <.label1186>

0000000000000946 <.label1186>:
     946:	eb 00                	jmp    948 <.label1187>

0000000000000948 <.label1187>:
     948:	eb 00                	jmp    94a <.label1188>

000000000000094a <.label1188>:
     94a:	eb 00                	jmp    94c <.label1189>

000000000000094c <.label1189>:
     94c:	eb 00                	jmp    94e <.label1190>

000000000000094e <.label1190>:
     94e:	eb 00                	jmp    950 <.label1191>

0000000000000950 <.label1191>:
     950:	eb 00                	jmp    952 <.label1192>

0000000000000952 <.label1192>:
     952:	eb 00                	jmp    954 <.label1193>

0000000000000954 <.label1193>:
     954:	eb 00                	jmp    956 <.label1194>

0000000000000956 <.label1194>:
     956:	eb 00                	jmp    958 <.label1195>

0000000000000958 <.label1195>:
     958:	eb 00                	jmp    95a <.label1196>

000000000000095a <.label1196>:
     95a:	eb 00                	jmp    95c <.label1197>

000000000000095c <.label1197>:
     95c:	eb 00                	jmp    95e <.label1198>

000000000000095e <.label1198>:
     95e:	eb 00                	jmp    960 <.label1199>

0000000000000960 <.label1199>:
     960:	eb 00                	jmp    962 <.label1200>

0000000000000962 <.label1200>:
     962:	eb 00                	jmp    964 <.label1201>

0000000000000964 <.label1201>:
     964:	eb 00                	jmp    966 <.label1202>

0000000000000966 <.label1202>:
     966:	eb 00                	jmp    968 <.label1203>

0000000000000968 <.label1203>:
     968:	eb 00                	jmp    96a <.label1204>

000000000000096a <.label1204>:
     96a:	eb 00                	jmp    96c <.label1205>

000000000000096c <.label1205>:
     96c:	eb 00                	jmp    96e <.label1206>

000000000000096e <.label1206>:
     96e:	eb 00                	jmp    970 <.label1207>

0000000000000970 <.label1207>:
     970:	eb 00                	jmp    972 <.label1208>

0000000000000972 <.label1208>:
     972:	eb 00                	jmp    974 <.label1209>

0000000000000974 <.label1209>:
     974:	eb 00                	jmp    976 <.label1210>

0000000000000976 <.label1210>:
     976:	eb 00                	jmp    978 <.label1211>

0000000000000978 <.label1211>:
     978:	eb 00                	jmp    97a <.label1212>

000000000000097a <.label1212>:
     97a:	eb 00                	jmp    97c <.label1213>

000000000000097c <.label1213>:
     97c:	eb 00                	jmp    97e <.label1214>

000000000000097e <.label1214>:
     97e:	eb 00                	jmp    980 <.label1215>

0000000000000980 <.label1215>:
     980:	eb 00                	jmp    982 <.label1216>

0000000000000982 <.label1216>:
     982:	eb 00                	jmp    984 <.label1217>

0000000000000984 <.label1217>:
     984:	eb 00                	jmp    986 <.label1218>

0000000000000986 <.label1218>:
     986:	eb 00                	jmp    988 <.label1219>

0000000000000988 <.label1219>:
     988:	eb 00                	jmp    98a <.label1220>

000000000000098a <.label1220>:
     98a:	eb 00                	jmp    98c <.label1221>

000000000000098c <.label1221>:
     98c:	eb 00                	jmp    98e <.label1222>

000000000000098e <.label1222>:
     98e:	eb 00                	jmp    990 <.label1223>

0000000000000990 <.label1223>:
     990:	eb 00                	jmp    992 <.label1224>

0000000000000992 <.label1224>:
     992:	eb 00                	jmp    994 <.label1225>

0000000000000994 <.label1225>:
     994:	eb 00                	jmp    996 <.label1226>

0000000000000996 <.label1226>:
     996:	eb 00                	jmp    998 <.label1227>

0000000000000998 <.label1227>:
     998:	eb 00                	jmp    99a <.label1228>

000000000000099a <.label1228>:
     99a:	eb 00                	jmp    99c <.label1229>

000000000000099c <.label1229>:
     99c:	eb 00                	jmp    99e <.label1230>

000000000000099e <.label1230>:
     99e:	eb 00                	jmp    9a0 <.label1231>

00000000000009a0 <.label1231>:
     9a0:	eb 00                	jmp    9a2 <.label1232>

00000000000009a2 <.label1232>:
     9a2:	eb 00                	jmp    9a4 <.label1233>

00000000000009a4 <.label1233>:
     9a4:	eb 00                	jmp    9a6 <.label1234>

00000000000009a6 <.label1234>:
     9a6:	eb 00                	jmp    9a8 <.label1235>

00000000000009a8 <.label1235>:
     9a8:	eb 00                	jmp    9aa <.label1236>

00000000000009aa <.label1236>:
     9aa:	eb 00                	jmp    9ac <.label1237>

00000000000009ac <.label1237>:
     9ac:	eb 00                	jmp    9ae <.label1238>

00000000000009ae <.label1238>:
     9ae:	eb 00                	jmp    9b0 <.label1239>

00000000000009b0 <.label1239>:
     9b0:	eb 00                	jmp    9b2 <.label1240>

00000000000009b2 <.label1240>:
     9b2:	eb 00                	jmp    9b4 <.label1241>

00000000000009b4 <.label1241>:
     9b4:	eb 00                	jmp    9b6 <.label1242>

00000000000009b6 <.label1242>:
     9b6:	eb 00                	jmp    9b8 <.label1243>

00000000000009b8 <.label1243>:
     9b8:	eb 00                	jmp    9ba <.label1244>

00000000000009ba <.label1244>:
     9ba:	eb 00                	jmp    9bc <.label1245>

00000000000009bc <.label1245>:
     9bc:	eb 00                	jmp    9be <.label1246>

00000000000009be <.label1246>:
     9be:	eb 00                	jmp    9c0 <.label1247>

00000000000009c0 <.label1247>:
     9c0:	eb 00                	jmp    9c2 <.label1248>

00000000000009c2 <.label1248>:
     9c2:	eb 00                	jmp    9c4 <.label1249>

00000000000009c4 <.label1249>:
     9c4:	eb 00                	jmp    9c6 <.label1250>

00000000000009c6 <.label1250>:
     9c6:	eb 00                	jmp    9c8 <.label1251>

00000000000009c8 <.label1251>:
     9c8:	eb 00                	jmp    9ca <.label1252>

00000000000009ca <.label1252>:
     9ca:	eb 00                	jmp    9cc <.label1253>

00000000000009cc <.label1253>:
     9cc:	eb 00                	jmp    9ce <.label1254>

00000000000009ce <.label1254>:
     9ce:	eb 00                	jmp    9d0 <.label1255>

00000000000009d0 <.label1255>:
     9d0:	eb 00                	jmp    9d2 <.label1256>

00000000000009d2 <.label1256>:
     9d2:	eb 00                	jmp    9d4 <.label1257>

00000000000009d4 <.label1257>:
     9d4:	eb 00                	jmp    9d6 <.label1258>

00000000000009d6 <.label1258>:
     9d6:	eb 00                	jmp    9d8 <.label1259>

00000000000009d8 <.label1259>:
     9d8:	eb 00                	jmp    9da <.label1260>

00000000000009da <.label1260>:
     9da:	eb 00                	jmp    9dc <.label1261>

00000000000009dc <.label1261>:
     9dc:	eb 00                	jmp    9de <.label1262>

00000000000009de <.label1262>:
     9de:	eb 00                	jmp    9e0 <.label1263>

00000000000009e0 <.label1263>:
     9e0:	eb 00                	jmp    9e2 <.label1264>

00000000000009e2 <.label1264>:
     9e2:	eb 00                	jmp    9e4 <.label1265>

00000000000009e4 <.label1265>:
     9e4:	eb 00                	jmp    9e6 <.label1266>

00000000000009e6 <.label1266>:
     9e6:	eb 00                	jmp    9e8 <.label1267>

00000000000009e8 <.label1267>:
     9e8:	eb 00                	jmp    9ea <.label1268>

00000000000009ea <.label1268>:
     9ea:	eb 00                	jmp    9ec <.label1269>

00000000000009ec <.label1269>:
     9ec:	eb 00                	jmp    9ee <.label1270>

00000000000009ee <.label1270>:
     9ee:	eb 00                	jmp    9f0 <.label1271>

00000000000009f0 <.label1271>:
     9f0:	eb 00                	jmp    9f2 <.label1272>

00000000000009f2 <.label1272>:
     9f2:	eb 00                	jmp    9f4 <.label1273>

00000000000009f4 <.label1273>:
     9f4:	eb 00                	jmp    9f6 <.label1274>

00000000000009f6 <.label1274>:
     9f6:	eb 00                	jmp    9f8 <.label1275>

00000000000009f8 <.label1275>:
     9f8:	eb 00                	jmp    9fa <.label1276>

00000000000009fa <.label1276>:
     9fa:	eb 00                	jmp    9fc <.label1277>

00000000000009fc <.label1277>:
     9fc:	eb 00                	jmp    9fe <.label1278>

00000000000009fe <.label1278>:
     9fe:	eb 00                	jmp    a00 <.label1279>

0000000000000a00 <.label1279>:
     a00:	eb 00                	jmp    a02 <.label1280>

0000000000000a02 <.label1280>:
     a02:	eb 00                	jmp    a04 <.label1281>

0000000000000a04 <.label1281>:
     a04:	eb 00                	jmp    a06 <.label1282>

0000000000000a06 <.label1282>:
     a06:	eb 00                	jmp    a08 <.label1283>

0000000000000a08 <.label1283>:
     a08:	eb 00                	jmp    a0a <.label1284>

0000000000000a0a <.label1284>:
     a0a:	eb 00                	jmp    a0c <.label1285>

0000000000000a0c <.label1285>:
     a0c:	eb 00                	jmp    a0e <.label1286>

0000000000000a0e <.label1286>:
     a0e:	eb 00                	jmp    a10 <.label1287>

0000000000000a10 <.label1287>:
     a10:	eb 00                	jmp    a12 <.label1288>

0000000000000a12 <.label1288>:
     a12:	eb 00                	jmp    a14 <.label1289>

0000000000000a14 <.label1289>:
     a14:	eb 00                	jmp    a16 <.label1290>

0000000000000a16 <.label1290>:
     a16:	eb 00                	jmp    a18 <.label1291>

0000000000000a18 <.label1291>:
     a18:	eb 00                	jmp    a1a <.label1292>

0000000000000a1a <.label1292>:
     a1a:	eb 00                	jmp    a1c <.label1293>

0000000000000a1c <.label1293>:
     a1c:	eb 00                	jmp    a1e <.label1294>

0000000000000a1e <.label1294>:
     a1e:	eb 00                	jmp    a20 <.label1295>

0000000000000a20 <.label1295>:
     a20:	eb 00                	jmp    a22 <.label1296>

0000000000000a22 <.label1296>:
     a22:	eb 00                	jmp    a24 <.label1297>

0000000000000a24 <.label1297>:
     a24:	eb 00                	jmp    a26 <.label1298>

0000000000000a26 <.label1298>:
     a26:	eb 00                	jmp    a28 <.label1299>

0000000000000a28 <.label1299>:
     a28:	eb 00                	jmp    a2a <.label1300>

0000000000000a2a <.label1300>:
     a2a:	eb 00                	jmp    a2c <.label1301>

0000000000000a2c <.label1301>:
     a2c:	eb 00                	jmp    a2e <.label1302>

0000000000000a2e <.label1302>:
     a2e:	eb 00                	jmp    a30 <.label1303>

0000000000000a30 <.label1303>:
     a30:	eb 00                	jmp    a32 <.label1304>

0000000000000a32 <.label1304>:
     a32:	eb 00                	jmp    a34 <.label1305>

0000000000000a34 <.label1305>:
     a34:	eb 00                	jmp    a36 <.label1306>

0000000000000a36 <.label1306>:
     a36:	eb 00                	jmp    a38 <.label1307>

0000000000000a38 <.label1307>:
     a38:	eb 00                	jmp    a3a <.label1308>

0000000000000a3a <.label1308>:
     a3a:	eb 00                	jmp    a3c <.label1309>

0000000000000a3c <.label1309>:
     a3c:	eb 00                	jmp    a3e <.label1310>

0000000000000a3e <.label1310>:
     a3e:	eb 00                	jmp    a40 <.label1311>

0000000000000a40 <.label1311>:
     a40:	eb 00                	jmp    a42 <.label1312>

0000000000000a42 <.label1312>:
     a42:	eb 00                	jmp    a44 <.label1313>

0000000000000a44 <.label1313>:
     a44:	eb 00                	jmp    a46 <.label1314>

0000000000000a46 <.label1314>:
     a46:	eb 00                	jmp    a48 <.label1315>

0000000000000a48 <.label1315>:
     a48:	eb 00                	jmp    a4a <.label1316>

0000000000000a4a <.label1316>:
     a4a:	eb 00                	jmp    a4c <.label1317>

0000000000000a4c <.label1317>:
     a4c:	eb 00                	jmp    a4e <.label1318>

0000000000000a4e <.label1318>:
     a4e:	eb 00                	jmp    a50 <.label1319>

0000000000000a50 <.label1319>:
     a50:	eb 00                	jmp    a52 <.label1320>

0000000000000a52 <.label1320>:
     a52:	eb 00                	jmp    a54 <.label1321>

0000000000000a54 <.label1321>:
     a54:	eb 00                	jmp    a56 <.label1322>

0000000000000a56 <.label1322>:
     a56:	eb 00                	jmp    a58 <.label1323>

0000000000000a58 <.label1323>:
     a58:	eb 00                	jmp    a5a <.label1324>

0000000000000a5a <.label1324>:
     a5a:	eb 00                	jmp    a5c <.label1325>

0000000000000a5c <.label1325>:
     a5c:	eb 00                	jmp    a5e <.label1326>

0000000000000a5e <.label1326>:
     a5e:	eb 00                	jmp    a60 <.label1327>

0000000000000a60 <.label1327>:
     a60:	eb 00                	jmp    a62 <.label1328>

0000000000000a62 <.label1328>:
     a62:	eb 00                	jmp    a64 <.label1329>

0000000000000a64 <.label1329>:
     a64:	eb 00                	jmp    a66 <.label1330>

0000000000000a66 <.label1330>:
     a66:	eb 00                	jmp    a68 <.label1331>

0000000000000a68 <.label1331>:
     a68:	eb 00                	jmp    a6a <.label1332>

0000000000000a6a <.label1332>:
     a6a:	eb 00                	jmp    a6c <.label1333>

0000000000000a6c <.label1333>:
     a6c:	eb 00                	jmp    a6e <.label1334>

0000000000000a6e <.label1334>:
     a6e:	eb 00                	jmp    a70 <.label1335>

0000000000000a70 <.label1335>:
     a70:	eb 00                	jmp    a72 <.label1336>

0000000000000a72 <.label1336>:
     a72:	eb 00                	jmp    a74 <.label1337>

0000000000000a74 <.label1337>:
     a74:	eb 00                	jmp    a76 <.label1338>

0000000000000a76 <.label1338>:
     a76:	eb 00                	jmp    a78 <.label1339>

0000000000000a78 <.label1339>:
     a78:	eb 00                	jmp    a7a <.label1340>

0000000000000a7a <.label1340>:
     a7a:	eb 00                	jmp    a7c <.label1341>

0000000000000a7c <.label1341>:
     a7c:	eb 00                	jmp    a7e <.label1342>

0000000000000a7e <.label1342>:
     a7e:	eb 00                	jmp    a80 <.label1343>

0000000000000a80 <.label1343>:
     a80:	eb 00                	jmp    a82 <.label1344>

0000000000000a82 <.label1344>:
     a82:	eb 00                	jmp    a84 <.label1345>

0000000000000a84 <.label1345>:
     a84:	eb 00                	jmp    a86 <.label1346>

0000000000000a86 <.label1346>:
     a86:	eb 00                	jmp    a88 <.label1347>

0000000000000a88 <.label1347>:
     a88:	eb 00                	jmp    a8a <.label1348>

0000000000000a8a <.label1348>:
     a8a:	eb 00                	jmp    a8c <.label1349>

0000000000000a8c <.label1349>:
     a8c:	eb 00                	jmp    a8e <.label1350>

0000000000000a8e <.label1350>:
     a8e:	eb 00                	jmp    a90 <.label1351>

0000000000000a90 <.label1351>:
     a90:	eb 00                	jmp    a92 <.label1352>

0000000000000a92 <.label1352>:
     a92:	eb 00                	jmp    a94 <.label1353>

0000000000000a94 <.label1353>:
     a94:	eb 00                	jmp    a96 <.label1354>

0000000000000a96 <.label1354>:
     a96:	eb 00                	jmp    a98 <.label1355>

0000000000000a98 <.label1355>:
     a98:	eb 00                	jmp    a9a <.label1356>

0000000000000a9a <.label1356>:
     a9a:	eb 00                	jmp    a9c <.label1357>

0000000000000a9c <.label1357>:
     a9c:	eb 00                	jmp    a9e <.label1358>

0000000000000a9e <.label1358>:
     a9e:	eb 00                	jmp    aa0 <.label1359>

0000000000000aa0 <.label1359>:
     aa0:	eb 00                	jmp    aa2 <.label1360>

0000000000000aa2 <.label1360>:
     aa2:	eb 00                	jmp    aa4 <.label1361>

0000000000000aa4 <.label1361>:
     aa4:	eb 00                	jmp    aa6 <.label1362>

0000000000000aa6 <.label1362>:
     aa6:	eb 00                	jmp    aa8 <.label1363>

0000000000000aa8 <.label1363>:
     aa8:	eb 00                	jmp    aaa <.label1364>

0000000000000aaa <.label1364>:
     aaa:	eb 00                	jmp    aac <.label1365>

0000000000000aac <.label1365>:
     aac:	eb 00                	jmp    aae <.label1366>

0000000000000aae <.label1366>:
     aae:	eb 00                	jmp    ab0 <.label1367>

0000000000000ab0 <.label1367>:
     ab0:	eb 00                	jmp    ab2 <.label1368>

0000000000000ab2 <.label1368>:
     ab2:	eb 00                	jmp    ab4 <.label1369>

0000000000000ab4 <.label1369>:
     ab4:	eb 00                	jmp    ab6 <.label1370>

0000000000000ab6 <.label1370>:
     ab6:	eb 00                	jmp    ab8 <.label1371>

0000000000000ab8 <.label1371>:
     ab8:	eb 00                	jmp    aba <.label1372>

0000000000000aba <.label1372>:
     aba:	eb 00                	jmp    abc <.label1373>

0000000000000abc <.label1373>:
     abc:	eb 00                	jmp    abe <.label1374>

0000000000000abe <.label1374>:
     abe:	eb 00                	jmp    ac0 <.label1375>

0000000000000ac0 <.label1375>:
     ac0:	eb 00                	jmp    ac2 <.label1376>

0000000000000ac2 <.label1376>:
     ac2:	eb 00                	jmp    ac4 <.label1377>

0000000000000ac4 <.label1377>:
     ac4:	eb 00                	jmp    ac6 <.label1378>

0000000000000ac6 <.label1378>:
     ac6:	eb 00                	jmp    ac8 <.label1379>

0000000000000ac8 <.label1379>:
     ac8:	eb 00                	jmp    aca <.label1380>

0000000000000aca <.label1380>:
     aca:	eb 00                	jmp    acc <.label1381>

0000000000000acc <.label1381>:
     acc:	eb 00                	jmp    ace <.label1382>

0000000000000ace <.label1382>:
     ace:	eb 00                	jmp    ad0 <.label1383>

0000000000000ad0 <.label1383>:
     ad0:	eb 00                	jmp    ad2 <.label1384>

0000000000000ad2 <.label1384>:
     ad2:	eb 00                	jmp    ad4 <.label1385>

0000000000000ad4 <.label1385>:
     ad4:	eb 00                	jmp    ad6 <.label1386>

0000000000000ad6 <.label1386>:
     ad6:	eb 00                	jmp    ad8 <.label1387>

0000000000000ad8 <.label1387>:
     ad8:	eb 00                	jmp    ada <.label1388>

0000000000000ada <.label1388>:
     ada:	eb 00                	jmp    adc <.label1389>

0000000000000adc <.label1389>:
     adc:	eb 00                	jmp    ade <.label1390>

0000000000000ade <.label1390>:
     ade:	eb 00                	jmp    ae0 <.label1391>

0000000000000ae0 <.label1391>:
     ae0:	eb 00                	jmp    ae2 <.label1392>

0000000000000ae2 <.label1392>:
     ae2:	eb 00                	jmp    ae4 <.label1393>

0000000000000ae4 <.label1393>:
     ae4:	eb 00                	jmp    ae6 <.label1394>

0000000000000ae6 <.label1394>:
     ae6:	eb 00                	jmp    ae8 <.label1395>

0000000000000ae8 <.label1395>:
     ae8:	eb 00                	jmp    aea <.label1396>

0000000000000aea <.label1396>:
     aea:	eb 00                	jmp    aec <.label1397>

0000000000000aec <.label1397>:
     aec:	eb 00                	jmp    aee <.label1398>

0000000000000aee <.label1398>:
     aee:	eb 00                	jmp    af0 <.label1399>

0000000000000af0 <.label1399>:
     af0:	eb 00                	jmp    af2 <.label1400>

0000000000000af2 <.label1400>:
     af2:	eb 00                	jmp    af4 <.label1401>

0000000000000af4 <.label1401>:
     af4:	eb 00                	jmp    af6 <.label1402>

0000000000000af6 <.label1402>:
     af6:	eb 00                	jmp    af8 <.label1403>

0000000000000af8 <.label1403>:
     af8:	eb 00                	jmp    afa <.label1404>

0000000000000afa <.label1404>:
     afa:	eb 00                	jmp    afc <.label1405>

0000000000000afc <.label1405>:
     afc:	eb 00                	jmp    afe <.label1406>

0000000000000afe <.label1406>:
     afe:	eb 00                	jmp    b00 <.label1407>

0000000000000b00 <.label1407>:
     b00:	eb 00                	jmp    b02 <.label1408>

0000000000000b02 <.label1408>:
     b02:	eb 00                	jmp    b04 <.label1409>

0000000000000b04 <.label1409>:
     b04:	eb 00                	jmp    b06 <.label1410>

0000000000000b06 <.label1410>:
     b06:	eb 00                	jmp    b08 <.label1411>

0000000000000b08 <.label1411>:
     b08:	eb 00                	jmp    b0a <.label1412>

0000000000000b0a <.label1412>:
     b0a:	eb 00                	jmp    b0c <.label1413>

0000000000000b0c <.label1413>:
     b0c:	eb 00                	jmp    b0e <.label1414>

0000000000000b0e <.label1414>:
     b0e:	eb 00                	jmp    b10 <.label1415>

0000000000000b10 <.label1415>:
     b10:	eb 00                	jmp    b12 <.label1416>

0000000000000b12 <.label1416>:
     b12:	eb 00                	jmp    b14 <.label1417>

0000000000000b14 <.label1417>:
     b14:	eb 00                	jmp    b16 <.label1418>

0000000000000b16 <.label1418>:
     b16:	eb 00                	jmp    b18 <.label1419>

0000000000000b18 <.label1419>:
     b18:	eb 00                	jmp    b1a <.label1420>

0000000000000b1a <.label1420>:
     b1a:	eb 00                	jmp    b1c <.label1421>

0000000000000b1c <.label1421>:
     b1c:	eb 00                	jmp    b1e <.label1422>

0000000000000b1e <.label1422>:
     b1e:	eb 00                	jmp    b20 <.label1423>

0000000000000b20 <.label1423>:
     b20:	eb 00                	jmp    b22 <.label1424>

0000000000000b22 <.label1424>:
     b22:	eb 00                	jmp    b24 <.label1425>

0000000000000b24 <.label1425>:
     b24:	eb 00                	jmp    b26 <.label1426>

0000000000000b26 <.label1426>:
     b26:	eb 00                	jmp    b28 <.label1427>

0000000000000b28 <.label1427>:
     b28:	eb 00                	jmp    b2a <.label1428>

0000000000000b2a <.label1428>:
     b2a:	eb 00                	jmp    b2c <.label1429>

0000000000000b2c <.label1429>:
     b2c:	eb 00                	jmp    b2e <.label1430>

0000000000000b2e <.label1430>:
     b2e:	eb 00                	jmp    b30 <.label1431>

0000000000000b30 <.label1431>:
     b30:	eb 00                	jmp    b32 <.label1432>

0000000000000b32 <.label1432>:
     b32:	eb 00                	jmp    b34 <.label1433>

0000000000000b34 <.label1433>:
     b34:	eb 00                	jmp    b36 <.label1434>

0000000000000b36 <.label1434>:
     b36:	eb 00                	jmp    b38 <.label1435>

0000000000000b38 <.label1435>:
     b38:	eb 00                	jmp    b3a <.label1436>

0000000000000b3a <.label1436>:
     b3a:	eb 00                	jmp    b3c <.label1437>

0000000000000b3c <.label1437>:
     b3c:	eb 00                	jmp    b3e <.label1438>

0000000000000b3e <.label1438>:
     b3e:	eb 00                	jmp    b40 <.label1439>

0000000000000b40 <.label1439>:
     b40:	eb 00                	jmp    b42 <.label1440>

0000000000000b42 <.label1440>:
     b42:	eb 00                	jmp    b44 <.label1441>

0000000000000b44 <.label1441>:
     b44:	eb 00                	jmp    b46 <.label1442>

0000000000000b46 <.label1442>:
     b46:	eb 00                	jmp    b48 <.label1443>

0000000000000b48 <.label1443>:
     b48:	eb 00                	jmp    b4a <.label1444>

0000000000000b4a <.label1444>:
     b4a:	eb 00                	jmp    b4c <.label1445>

0000000000000b4c <.label1445>:
     b4c:	eb 00                	jmp    b4e <.label1446>

0000000000000b4e <.label1446>:
     b4e:	eb 00                	jmp    b50 <.label1447>

0000000000000b50 <.label1447>:
     b50:	eb 00                	jmp    b52 <.label1448>

0000000000000b52 <.label1448>:
     b52:	eb 00                	jmp    b54 <.label1449>

0000000000000b54 <.label1449>:
     b54:	eb 00                	jmp    b56 <.label1450>

0000000000000b56 <.label1450>:
     b56:	eb 00                	jmp    b58 <.label1451>

0000000000000b58 <.label1451>:
     b58:	eb 00                	jmp    b5a <.label1452>

0000000000000b5a <.label1452>:
     b5a:	eb 00                	jmp    b5c <.label1453>

0000000000000b5c <.label1453>:
     b5c:	eb 00                	jmp    b5e <.label1454>

0000000000000b5e <.label1454>:
     b5e:	eb 00                	jmp    b60 <.label1455>

0000000000000b60 <.label1455>:
     b60:	eb 00                	jmp    b62 <.label1456>

0000000000000b62 <.label1456>:
     b62:	eb 00                	jmp    b64 <.label1457>

0000000000000b64 <.label1457>:
     b64:	eb 00                	jmp    b66 <.label1458>

0000000000000b66 <.label1458>:
     b66:	eb 00                	jmp    b68 <.label1459>

0000000000000b68 <.label1459>:
     b68:	eb 00                	jmp    b6a <.label1460>

0000000000000b6a <.label1460>:
     b6a:	eb 00                	jmp    b6c <.label1461>

0000000000000b6c <.label1461>:
     b6c:	eb 00                	jmp    b6e <.label1462>

0000000000000b6e <.label1462>:
     b6e:	eb 00                	jmp    b70 <.label1463>

0000000000000b70 <.label1463>:
     b70:	eb 00                	jmp    b72 <.label1464>

0000000000000b72 <.label1464>:
     b72:	eb 00                	jmp    b74 <.label1465>

0000000000000b74 <.label1465>:
     b74:	eb 00                	jmp    b76 <.label1466>

0000000000000b76 <.label1466>:
     b76:	eb 00                	jmp    b78 <.label1467>

0000000000000b78 <.label1467>:
     b78:	eb 00                	jmp    b7a <.label1468>

0000000000000b7a <.label1468>:
     b7a:	eb 00                	jmp    b7c <.label1469>

0000000000000b7c <.label1469>:
     b7c:	eb 00                	jmp    b7e <.label1470>

0000000000000b7e <.label1470>:
     b7e:	eb 00                	jmp    b80 <.label1471>

0000000000000b80 <.label1471>:
     b80:	eb 00                	jmp    b82 <.label1472>

0000000000000b82 <.label1472>:
     b82:	eb 00                	jmp    b84 <.label1473>

0000000000000b84 <.label1473>:
     b84:	eb 00                	jmp    b86 <.label1474>

0000000000000b86 <.label1474>:
     b86:	eb 00                	jmp    b88 <.label1475>

0000000000000b88 <.label1475>:
     b88:	eb 00                	jmp    b8a <.label1476>

0000000000000b8a <.label1476>:
     b8a:	eb 00                	jmp    b8c <.label1477>

0000000000000b8c <.label1477>:
     b8c:	eb 00                	jmp    b8e <.label1478>

0000000000000b8e <.label1478>:
     b8e:	eb 00                	jmp    b90 <.label1479>

0000000000000b90 <.label1479>:
     b90:	eb 00                	jmp    b92 <.label1480>

0000000000000b92 <.label1480>:
     b92:	eb 00                	jmp    b94 <.label1481>

0000000000000b94 <.label1481>:
     b94:	eb 00                	jmp    b96 <.label1482>

0000000000000b96 <.label1482>:
     b96:	eb 00                	jmp    b98 <.label1483>

0000000000000b98 <.label1483>:
     b98:	eb 00                	jmp    b9a <.label1484>

0000000000000b9a <.label1484>:
     b9a:	eb 00                	jmp    b9c <.label1485>

0000000000000b9c <.label1485>:
     b9c:	eb 00                	jmp    b9e <.label1486>

0000000000000b9e <.label1486>:
     b9e:	eb 00                	jmp    ba0 <.label1487>

0000000000000ba0 <.label1487>:
     ba0:	eb 00                	jmp    ba2 <.label1488>

0000000000000ba2 <.label1488>:
     ba2:	eb 00                	jmp    ba4 <.label1489>

0000000000000ba4 <.label1489>:
     ba4:	eb 00                	jmp    ba6 <.label1490>

0000000000000ba6 <.label1490>:
     ba6:	eb 00                	jmp    ba8 <.label1491>

0000000000000ba8 <.label1491>:
     ba8:	eb 00                	jmp    baa <.label1492>

0000000000000baa <.label1492>:
     baa:	eb 00                	jmp    bac <.label1493>

0000000000000bac <.label1493>:
     bac:	eb 00                	jmp    bae <.label1494>

0000000000000bae <.label1494>:
     bae:	eb 00                	jmp    bb0 <.label1495>

0000000000000bb0 <.label1495>:
     bb0:	eb 00                	jmp    bb2 <.label1496>

0000000000000bb2 <.label1496>:
     bb2:	eb 00                	jmp    bb4 <.label1497>

0000000000000bb4 <.label1497>:
     bb4:	eb 00                	jmp    bb6 <.label1498>

0000000000000bb6 <.label1498>:
     bb6:	eb 00                	jmp    bb8 <.label1499>

0000000000000bb8 <.label1499>:
     bb8:	eb 00                	jmp    bba <.label1500>

0000000000000bba <.label1500>:
     bba:	eb 00                	jmp    bbc <.label1501>

0000000000000bbc <.label1501>:
     bbc:	eb 00                	jmp    bbe <.label1502>

0000000000000bbe <.label1502>:
     bbe:	eb 00                	jmp    bc0 <.label1503>

0000000000000bc0 <.label1503>:
     bc0:	eb 00                	jmp    bc2 <.label1504>

0000000000000bc2 <.label1504>:
     bc2:	eb 00                	jmp    bc4 <.label1505>

0000000000000bc4 <.label1505>:
     bc4:	eb 00                	jmp    bc6 <.label1506>

0000000000000bc6 <.label1506>:
     bc6:	eb 00                	jmp    bc8 <.label1507>

0000000000000bc8 <.label1507>:
     bc8:	eb 00                	jmp    bca <.label1508>

0000000000000bca <.label1508>:
     bca:	eb 00                	jmp    bcc <.label1509>

0000000000000bcc <.label1509>:
     bcc:	eb 00                	jmp    bce <.label1510>

0000000000000bce <.label1510>:
     bce:	eb 00                	jmp    bd0 <.label1511>

0000000000000bd0 <.label1511>:
     bd0:	eb 00                	jmp    bd2 <.label1512>

0000000000000bd2 <.label1512>:
     bd2:	eb 00                	jmp    bd4 <.label1513>

0000000000000bd4 <.label1513>:
     bd4:	eb 00                	jmp    bd6 <.label1514>

0000000000000bd6 <.label1514>:
     bd6:	eb 00                	jmp    bd8 <.label1515>

0000000000000bd8 <.label1515>:
     bd8:	eb 00                	jmp    bda <.label1516>

0000000000000bda <.label1516>:
     bda:	eb 00                	jmp    bdc <.label1517>

0000000000000bdc <.label1517>:
     bdc:	eb 00                	jmp    bde <.label1518>

0000000000000bde <.label1518>:
     bde:	eb 00                	jmp    be0 <.label1519>

0000000000000be0 <.label1519>:
     be0:	eb 00                	jmp    be2 <.label1520>

0000000000000be2 <.label1520>:
     be2:	eb 00                	jmp    be4 <.label1521>

0000000000000be4 <.label1521>:
     be4:	eb 00                	jmp    be6 <.label1522>

0000000000000be6 <.label1522>:
     be6:	eb 00                	jmp    be8 <.label1523>

0000000000000be8 <.label1523>:
     be8:	eb 00                	jmp    bea <.label1524>

0000000000000bea <.label1524>:
     bea:	eb 00                	jmp    bec <.label1525>

0000000000000bec <.label1525>:
     bec:	eb 00                	jmp    bee <.label1526>

0000000000000bee <.label1526>:
     bee:	eb 00                	jmp    bf0 <.label1527>

0000000000000bf0 <.label1527>:
     bf0:	eb 00                	jmp    bf2 <.label1528>

0000000000000bf2 <.label1528>:
     bf2:	eb 00                	jmp    bf4 <.label1529>

0000000000000bf4 <.label1529>:
     bf4:	eb 00                	jmp    bf6 <.label1530>

0000000000000bf6 <.label1530>:
     bf6:	eb 00                	jmp    bf8 <.label1531>

0000000000000bf8 <.label1531>:
     bf8:	eb 00                	jmp    bfa <.label1532>

0000000000000bfa <.label1532>:
     bfa:	eb 00                	jmp    bfc <.label1533>

0000000000000bfc <.label1533>:
     bfc:	eb 00                	jmp    bfe <.label1534>

0000000000000bfe <.label1534>:
     bfe:	eb 00                	jmp    c00 <.label1535>

0000000000000c00 <.label1535>:
     c00:	eb 00                	jmp    c02 <.label1536>

0000000000000c02 <.label1536>:
     c02:	eb 00                	jmp    c04 <.label1537>

0000000000000c04 <.label1537>:
     c04:	eb 00                	jmp    c06 <.label1538>

0000000000000c06 <.label1538>:
     c06:	eb 00                	jmp    c08 <.label1539>

0000000000000c08 <.label1539>:
     c08:	eb 00                	jmp    c0a <.label1540>

0000000000000c0a <.label1540>:
     c0a:	eb 00                	jmp    c0c <.label1541>

0000000000000c0c <.label1541>:
     c0c:	eb 00                	jmp    c0e <.label1542>

0000000000000c0e <.label1542>:
     c0e:	eb 00                	jmp    c10 <.label1543>

0000000000000c10 <.label1543>:
     c10:	eb 00                	jmp    c12 <.label1544>

0000000000000c12 <.label1544>:
     c12:	eb 00                	jmp    c14 <.label1545>

0000000000000c14 <.label1545>:
     c14:	eb 00                	jmp    c16 <.label1546>

0000000000000c16 <.label1546>:
     c16:	eb 00                	jmp    c18 <.label1547>

0000000000000c18 <.label1547>:
     c18:	eb 00                	jmp    c1a <.label1548>

0000000000000c1a <.label1548>:
     c1a:	eb 00                	jmp    c1c <.label1549>

0000000000000c1c <.label1549>:
     c1c:	eb 00                	jmp    c1e <.label1550>

0000000000000c1e <.label1550>:
     c1e:	eb 00                	jmp    c20 <.label1551>

0000000000000c20 <.label1551>:
     c20:	eb 00                	jmp    c22 <.label1552>

0000000000000c22 <.label1552>:
     c22:	eb 00                	jmp    c24 <.label1553>

0000000000000c24 <.label1553>:
     c24:	eb 00                	jmp    c26 <.label1554>

0000000000000c26 <.label1554>:
     c26:	eb 00                	jmp    c28 <.label1555>

0000000000000c28 <.label1555>:
     c28:	eb 00                	jmp    c2a <.label1556>

0000000000000c2a <.label1556>:
     c2a:	eb 00                	jmp    c2c <.label1557>

0000000000000c2c <.label1557>:
     c2c:	eb 00                	jmp    c2e <.label1558>

0000000000000c2e <.label1558>:
     c2e:	eb 00                	jmp    c30 <.label1559>

0000000000000c30 <.label1559>:
     c30:	eb 00                	jmp    c32 <.label1560>

0000000000000c32 <.label1560>:
     c32:	eb 00                	jmp    c34 <.label1561>

0000000000000c34 <.label1561>:
     c34:	eb 00                	jmp    c36 <.label1562>

0000000000000c36 <.label1562>:
     c36:	eb 00                	jmp    c38 <.label1563>

0000000000000c38 <.label1563>:
     c38:	eb 00                	jmp    c3a <.label1564>

0000000000000c3a <.label1564>:
     c3a:	eb 00                	jmp    c3c <.label1565>

0000000000000c3c <.label1565>:
     c3c:	eb 00                	jmp    c3e <.label1566>

0000000000000c3e <.label1566>:
     c3e:	eb 00                	jmp    c40 <.label1567>

0000000000000c40 <.label1567>:
     c40:	eb 00                	jmp    c42 <.label1568>

0000000000000c42 <.label1568>:
     c42:	eb 00                	jmp    c44 <.label1569>

0000000000000c44 <.label1569>:
     c44:	eb 00                	jmp    c46 <.label1570>

0000000000000c46 <.label1570>:
     c46:	eb 00                	jmp    c48 <.label1571>

0000000000000c48 <.label1571>:
     c48:	eb 00                	jmp    c4a <.label1572>

0000000000000c4a <.label1572>:
     c4a:	eb 00                	jmp    c4c <.label1573>

0000000000000c4c <.label1573>:
     c4c:	eb 00                	jmp    c4e <.label1574>

0000000000000c4e <.label1574>:
     c4e:	eb 00                	jmp    c50 <.label1575>

0000000000000c50 <.label1575>:
     c50:	eb 00                	jmp    c52 <.label1576>

0000000000000c52 <.label1576>:
     c52:	eb 00                	jmp    c54 <.label1577>

0000000000000c54 <.label1577>:
     c54:	eb 00                	jmp    c56 <.label1578>

0000000000000c56 <.label1578>:
     c56:	eb 00                	jmp    c58 <.label1579>

0000000000000c58 <.label1579>:
     c58:	eb 00                	jmp    c5a <.label1580>

0000000000000c5a <.label1580>:
     c5a:	eb 00                	jmp    c5c <.label1581>

0000000000000c5c <.label1581>:
     c5c:	eb 00                	jmp    c5e <.label1582>

0000000000000c5e <.label1582>:
     c5e:	eb 00                	jmp    c60 <.label1583>

0000000000000c60 <.label1583>:
     c60:	eb 00                	jmp    c62 <.label1584>

0000000000000c62 <.label1584>:
     c62:	eb 00                	jmp    c64 <.label1585>

0000000000000c64 <.label1585>:
     c64:	eb 00                	jmp    c66 <.label1586>

0000000000000c66 <.label1586>:
     c66:	eb 00                	jmp    c68 <.label1587>

0000000000000c68 <.label1587>:
     c68:	eb 00                	jmp    c6a <.label1588>

0000000000000c6a <.label1588>:
     c6a:	eb 00                	jmp    c6c <.label1589>

0000000000000c6c <.label1589>:
     c6c:	eb 00                	jmp    c6e <.label1590>

0000000000000c6e <.label1590>:
     c6e:	eb 00                	jmp    c70 <.label1591>

0000000000000c70 <.label1591>:
     c70:	eb 00                	jmp    c72 <.label1592>

0000000000000c72 <.label1592>:
     c72:	eb 00                	jmp    c74 <.label1593>

0000000000000c74 <.label1593>:
     c74:	eb 00                	jmp    c76 <.label1594>

0000000000000c76 <.label1594>:
     c76:	eb 00                	jmp    c78 <.label1595>

0000000000000c78 <.label1595>:
     c78:	eb 00                	jmp    c7a <.label1596>

0000000000000c7a <.label1596>:
     c7a:	eb 00                	jmp    c7c <.label1597>

0000000000000c7c <.label1597>:
     c7c:	eb 00                	jmp    c7e <.label1598>

0000000000000c7e <.label1598>:
     c7e:	eb 00                	jmp    c80 <.label1599>

0000000000000c80 <.label1599>:
     c80:	eb 00                	jmp    c82 <.label1600>

0000000000000c82 <.label1600>:
     c82:	eb 00                	jmp    c84 <.label1601>

0000000000000c84 <.label1601>:
     c84:	eb 00                	jmp    c86 <.label1602>

0000000000000c86 <.label1602>:
     c86:	eb 00                	jmp    c88 <.label1603>

0000000000000c88 <.label1603>:
     c88:	eb 00                	jmp    c8a <.label1604>

0000000000000c8a <.label1604>:
     c8a:	eb 00                	jmp    c8c <.label1605>

0000000000000c8c <.label1605>:
     c8c:	eb 00                	jmp    c8e <.label1606>

0000000000000c8e <.label1606>:
     c8e:	eb 00                	jmp    c90 <.label1607>

0000000000000c90 <.label1607>:
     c90:	eb 00                	jmp    c92 <.label1608>

0000000000000c92 <.label1608>:
     c92:	eb 00                	jmp    c94 <.label1609>

0000000000000c94 <.label1609>:
     c94:	eb 00                	jmp    c96 <.label1610>

0000000000000c96 <.label1610>:
     c96:	eb 00                	jmp    c98 <.label1611>

0000000000000c98 <.label1611>:
     c98:	eb 00                	jmp    c9a <.label1612>

0000000000000c9a <.label1612>:
     c9a:	eb 00                	jmp    c9c <.label1613>

0000000000000c9c <.label1613>:
     c9c:	eb 00                	jmp    c9e <.label1614>

0000000000000c9e <.label1614>:
     c9e:	eb 00                	jmp    ca0 <.label1615>

0000000000000ca0 <.label1615>:
     ca0:	eb 00                	jmp    ca2 <.label1616>

0000000000000ca2 <.label1616>:
     ca2:	eb 00                	jmp    ca4 <.label1617>

0000000000000ca4 <.label1617>:
     ca4:	eb 00                	jmp    ca6 <.label1618>

0000000000000ca6 <.label1618>:
     ca6:	eb 00                	jmp    ca8 <.label1619>

0000000000000ca8 <.label1619>:
     ca8:	eb 00                	jmp    caa <.label1620>

0000000000000caa <.label1620>:
     caa:	eb 00                	jmp    cac <.label1621>

0000000000000cac <.label1621>:
     cac:	eb 00                	jmp    cae <.label1622>

0000000000000cae <.label1622>:
     cae:	eb 00                	jmp    cb0 <.label1623>

0000000000000cb0 <.label1623>:
     cb0:	eb 00                	jmp    cb2 <.label1624>

0000000000000cb2 <.label1624>:
     cb2:	eb 00                	jmp    cb4 <.label1625>

0000000000000cb4 <.label1625>:
     cb4:	eb 00                	jmp    cb6 <.label1626>

0000000000000cb6 <.label1626>:
     cb6:	eb 00                	jmp    cb8 <.label1627>

0000000000000cb8 <.label1627>:
     cb8:	eb 00                	jmp    cba <.label1628>

0000000000000cba <.label1628>:
     cba:	eb 00                	jmp    cbc <.label1629>

0000000000000cbc <.label1629>:
     cbc:	eb 00                	jmp    cbe <.label1630>

0000000000000cbe <.label1630>:
     cbe:	eb 00                	jmp    cc0 <.label1631>

0000000000000cc0 <.label1631>:
     cc0:	eb 00                	jmp    cc2 <.label1632>

0000000000000cc2 <.label1632>:
     cc2:	eb 00                	jmp    cc4 <.label1633>

0000000000000cc4 <.label1633>:
     cc4:	eb 00                	jmp    cc6 <.label1634>

0000000000000cc6 <.label1634>:
     cc6:	eb 00                	jmp    cc8 <.label1635>

0000000000000cc8 <.label1635>:
     cc8:	eb 00                	jmp    cca <.label1636>

0000000000000cca <.label1636>:
     cca:	eb 00                	jmp    ccc <.label1637>

0000000000000ccc <.label1637>:
     ccc:	eb 00                	jmp    cce <.label1638>

0000000000000cce <.label1638>:
     cce:	eb 00                	jmp    cd0 <.label1639>

0000000000000cd0 <.label1639>:
     cd0:	eb 00                	jmp    cd2 <.label1640>

0000000000000cd2 <.label1640>:
     cd2:	eb 00                	jmp    cd4 <.label1641>

0000000000000cd4 <.label1641>:
     cd4:	eb 00                	jmp    cd6 <.label1642>

0000000000000cd6 <.label1642>:
     cd6:	eb 00                	jmp    cd8 <.label1643>

0000000000000cd8 <.label1643>:
     cd8:	eb 00                	jmp    cda <.label1644>

0000000000000cda <.label1644>:
     cda:	eb 00                	jmp    cdc <.label1645>

0000000000000cdc <.label1645>:
     cdc:	eb 00                	jmp    cde <.label1646>

0000000000000cde <.label1646>:
     cde:	eb 00                	jmp    ce0 <.label1647>

0000000000000ce0 <.label1647>:
     ce0:	eb 00                	jmp    ce2 <.label1648>

0000000000000ce2 <.label1648>:
     ce2:	eb 00                	jmp    ce4 <.label1649>

0000000000000ce4 <.label1649>:
     ce4:	eb 00                	jmp    ce6 <.label1650>

0000000000000ce6 <.label1650>:
     ce6:	eb 00                	jmp    ce8 <.label1651>

0000000000000ce8 <.label1651>:
     ce8:	eb 00                	jmp    cea <.label1652>

0000000000000cea <.label1652>:
     cea:	eb 00                	jmp    cec <.label1653>

0000000000000cec <.label1653>:
     cec:	eb 00                	jmp    cee <.label1654>

0000000000000cee <.label1654>:
     cee:	eb 00                	jmp    cf0 <.label1655>

0000000000000cf0 <.label1655>:
     cf0:	eb 00                	jmp    cf2 <.label1656>

0000000000000cf2 <.label1656>:
     cf2:	eb 00                	jmp    cf4 <.label1657>

0000000000000cf4 <.label1657>:
     cf4:	eb 00                	jmp    cf6 <.label1658>

0000000000000cf6 <.label1658>:
     cf6:	eb 00                	jmp    cf8 <.label1659>

0000000000000cf8 <.label1659>:
     cf8:	eb 00                	jmp    cfa <.label1660>

0000000000000cfa <.label1660>:
     cfa:	eb 00                	jmp    cfc <.label1661>

0000000000000cfc <.label1661>:
     cfc:	eb 00                	jmp    cfe <.label1662>

0000000000000cfe <.label1662>:
     cfe:	eb 00                	jmp    d00 <.label1663>

0000000000000d00 <.label1663>:
     d00:	eb 00                	jmp    d02 <.label1664>

0000000000000d02 <.label1664>:
     d02:	eb 00                	jmp    d04 <.label1665>

0000000000000d04 <.label1665>:
     d04:	eb 00                	jmp    d06 <.label1666>

0000000000000d06 <.label1666>:
     d06:	eb 00                	jmp    d08 <.label1667>

0000000000000d08 <.label1667>:
     d08:	eb 00                	jmp    d0a <.label1668>

0000000000000d0a <.label1668>:
     d0a:	eb 00                	jmp    d0c <.label1669>

0000000000000d0c <.label1669>:
     d0c:	eb 00                	jmp    d0e <.label1670>

0000000000000d0e <.label1670>:
     d0e:	eb 00                	jmp    d10 <.label1671>

0000000000000d10 <.label1671>:
     d10:	eb 00                	jmp    d12 <.label1672>

0000000000000d12 <.label1672>:
     d12:	eb 00                	jmp    d14 <.label1673>

0000000000000d14 <.label1673>:
     d14:	eb 00                	jmp    d16 <.label1674>

0000000000000d16 <.label1674>:
     d16:	eb 00                	jmp    d18 <.label1675>

0000000000000d18 <.label1675>:
     d18:	eb 00                	jmp    d1a <.label1676>

0000000000000d1a <.label1676>:
     d1a:	eb 00                	jmp    d1c <.label1677>

0000000000000d1c <.label1677>:
     d1c:	eb 00                	jmp    d1e <.label1678>

0000000000000d1e <.label1678>:
     d1e:	eb 00                	jmp    d20 <.label1679>

0000000000000d20 <.label1679>:
     d20:	eb 00                	jmp    d22 <.label1680>

0000000000000d22 <.label1680>:
     d22:	eb 00                	jmp    d24 <.label1681>

0000000000000d24 <.label1681>:
     d24:	eb 00                	jmp    d26 <.label1682>

0000000000000d26 <.label1682>:
     d26:	eb 00                	jmp    d28 <.label1683>

0000000000000d28 <.label1683>:
     d28:	eb 00                	jmp    d2a <.label1684>

0000000000000d2a <.label1684>:
     d2a:	eb 00                	jmp    d2c <.label1685>

0000000000000d2c <.label1685>:
     d2c:	eb 00                	jmp    d2e <.label1686>

0000000000000d2e <.label1686>:
     d2e:	eb 00                	jmp    d30 <.label1687>

0000000000000d30 <.label1687>:
     d30:	eb 00                	jmp    d32 <.label1688>

0000000000000d32 <.label1688>:
     d32:	eb 00                	jmp    d34 <.label1689>

0000000000000d34 <.label1689>:
     d34:	eb 00                	jmp    d36 <.label1690>

0000000000000d36 <.label1690>:
     d36:	eb 00                	jmp    d38 <.label1691>

0000000000000d38 <.label1691>:
     d38:	eb 00                	jmp    d3a <.label1692>

0000000000000d3a <.label1692>:
     d3a:	eb 00                	jmp    d3c <.label1693>

0000000000000d3c <.label1693>:
     d3c:	eb 00                	jmp    d3e <.label1694>

0000000000000d3e <.label1694>:
     d3e:	eb 00                	jmp    d40 <.label1695>

0000000000000d40 <.label1695>:
     d40:	eb 00                	jmp    d42 <.label1696>

0000000000000d42 <.label1696>:
     d42:	eb 00                	jmp    d44 <.label1697>

0000000000000d44 <.label1697>:
     d44:	eb 00                	jmp    d46 <.label1698>

0000000000000d46 <.label1698>:
     d46:	eb 00                	jmp    d48 <.label1699>

0000000000000d48 <.label1699>:
     d48:	eb 00                	jmp    d4a <.label1700>

0000000000000d4a <.label1700>:
     d4a:	eb 00                	jmp    d4c <.label1701>

0000000000000d4c <.label1701>:
     d4c:	eb 00                	jmp    d4e <.label1702>

0000000000000d4e <.label1702>:
     d4e:	eb 00                	jmp    d50 <.label1703>

0000000000000d50 <.label1703>:
     d50:	eb 00                	jmp    d52 <.label1704>

0000000000000d52 <.label1704>:
     d52:	eb 00                	jmp    d54 <.label1705>

0000000000000d54 <.label1705>:
     d54:	eb 00                	jmp    d56 <.label1706>

0000000000000d56 <.label1706>:
     d56:	eb 00                	jmp    d58 <.label1707>

0000000000000d58 <.label1707>:
     d58:	eb 00                	jmp    d5a <.label1708>

0000000000000d5a <.label1708>:
     d5a:	eb 00                	jmp    d5c <.label1709>

0000000000000d5c <.label1709>:
     d5c:	eb 00                	jmp    d5e <.label1710>

0000000000000d5e <.label1710>:
     d5e:	eb 00                	jmp    d60 <.label1711>

0000000000000d60 <.label1711>:
     d60:	eb 00                	jmp    d62 <.label1712>

0000000000000d62 <.label1712>:
     d62:	eb 00                	jmp    d64 <.label1713>

0000000000000d64 <.label1713>:
     d64:	eb 00                	jmp    d66 <.label1714>

0000000000000d66 <.label1714>:
     d66:	eb 00                	jmp    d68 <.label1715>

0000000000000d68 <.label1715>:
     d68:	eb 00                	jmp    d6a <.label1716>

0000000000000d6a <.label1716>:
     d6a:	eb 00                	jmp    d6c <.label1717>

0000000000000d6c <.label1717>:
     d6c:	eb 00                	jmp    d6e <.label1718>

0000000000000d6e <.label1718>:
     d6e:	eb 00                	jmp    d70 <.label1719>

0000000000000d70 <.label1719>:
     d70:	eb 00                	jmp    d72 <.label1720>

0000000000000d72 <.label1720>:
     d72:	eb 00                	jmp    d74 <.label1721>

0000000000000d74 <.label1721>:
     d74:	eb 00                	jmp    d76 <.label1722>

0000000000000d76 <.label1722>:
     d76:	eb 00                	jmp    d78 <.label1723>

0000000000000d78 <.label1723>:
     d78:	eb 00                	jmp    d7a <.label1724>

0000000000000d7a <.label1724>:
     d7a:	eb 00                	jmp    d7c <.label1725>

0000000000000d7c <.label1725>:
     d7c:	eb 00                	jmp    d7e <.label1726>

0000000000000d7e <.label1726>:
     d7e:	eb 00                	jmp    d80 <.label1727>

0000000000000d80 <.label1727>:
     d80:	eb 00                	jmp    d82 <.label1728>

0000000000000d82 <.label1728>:
     d82:	eb 00                	jmp    d84 <.label1729>

0000000000000d84 <.label1729>:
     d84:	eb 00                	jmp    d86 <.label1730>

0000000000000d86 <.label1730>:
     d86:	eb 00                	jmp    d88 <.label1731>

0000000000000d88 <.label1731>:
     d88:	eb 00                	jmp    d8a <.label1732>

0000000000000d8a <.label1732>:
     d8a:	eb 00                	jmp    d8c <.label1733>

0000000000000d8c <.label1733>:
     d8c:	eb 00                	jmp    d8e <.label1734>

0000000000000d8e <.label1734>:
     d8e:	eb 00                	jmp    d90 <.label1735>

0000000000000d90 <.label1735>:
     d90:	eb 00                	jmp    d92 <.label1736>

0000000000000d92 <.label1736>:
     d92:	eb 00                	jmp    d94 <.label1737>

0000000000000d94 <.label1737>:
     d94:	eb 00                	jmp    d96 <.label1738>

0000000000000d96 <.label1738>:
     d96:	eb 00                	jmp    d98 <.label1739>

0000000000000d98 <.label1739>:
     d98:	eb 00                	jmp    d9a <.label1740>

0000000000000d9a <.label1740>:
     d9a:	eb 00                	jmp    d9c <.label1741>

0000000000000d9c <.label1741>:
     d9c:	eb 00                	jmp    d9e <.label1742>

0000000000000d9e <.label1742>:
     d9e:	eb 00                	jmp    da0 <.label1743>

0000000000000da0 <.label1743>:
     da0:	eb 00                	jmp    da2 <.label1744>

0000000000000da2 <.label1744>:
     da2:	eb 00                	jmp    da4 <.label1745>

0000000000000da4 <.label1745>:
     da4:	eb 00                	jmp    da6 <.label1746>

0000000000000da6 <.label1746>:
     da6:	eb 00                	jmp    da8 <.label1747>

0000000000000da8 <.label1747>:
     da8:	eb 00                	jmp    daa <.label1748>

0000000000000daa <.label1748>:
     daa:	eb 00                	jmp    dac <.label1749>

0000000000000dac <.label1749>:
     dac:	eb 00                	jmp    dae <.label1750>

0000000000000dae <.label1750>:
     dae:	eb 00                	jmp    db0 <.label1751>

0000000000000db0 <.label1751>:
     db0:	eb 00                	jmp    db2 <.label1752>

0000000000000db2 <.label1752>:
     db2:	eb 00                	jmp    db4 <.label1753>

0000000000000db4 <.label1753>:
     db4:	eb 00                	jmp    db6 <.label1754>

0000000000000db6 <.label1754>:
     db6:	eb 00                	jmp    db8 <.label1755>

0000000000000db8 <.label1755>:
     db8:	eb 00                	jmp    dba <.label1756>

0000000000000dba <.label1756>:
     dba:	eb 00                	jmp    dbc <.label1757>

0000000000000dbc <.label1757>:
     dbc:	eb 00                	jmp    dbe <.label1758>

0000000000000dbe <.label1758>:
     dbe:	eb 00                	jmp    dc0 <.label1759>

0000000000000dc0 <.label1759>:
     dc0:	eb 00                	jmp    dc2 <.label1760>

0000000000000dc2 <.label1760>:
     dc2:	eb 00                	jmp    dc4 <.label1761>

0000000000000dc4 <.label1761>:
     dc4:	eb 00                	jmp    dc6 <.label1762>

0000000000000dc6 <.label1762>:
     dc6:	eb 00                	jmp    dc8 <.label1763>

0000000000000dc8 <.label1763>:
     dc8:	eb 00                	jmp    dca <.label1764>

0000000000000dca <.label1764>:
     dca:	eb 00                	jmp    dcc <.label1765>

0000000000000dcc <.label1765>:
     dcc:	eb 00                	jmp    dce <.label1766>

0000000000000dce <.label1766>:
     dce:	eb 00                	jmp    dd0 <.label1767>

0000000000000dd0 <.label1767>:
     dd0:	eb 00                	jmp    dd2 <.label1768>

0000000000000dd2 <.label1768>:
     dd2:	eb 00                	jmp    dd4 <.label1769>

0000000000000dd4 <.label1769>:
     dd4:	eb 00                	jmp    dd6 <.label1770>

0000000000000dd6 <.label1770>:
     dd6:	eb 00                	jmp    dd8 <.label1771>

0000000000000dd8 <.label1771>:
     dd8:	eb 00                	jmp    dda <.label1772>

0000000000000dda <.label1772>:
     dda:	eb 00                	jmp    ddc <.label1773>

0000000000000ddc <.label1773>:
     ddc:	eb 00                	jmp    dde <.label1774>

0000000000000dde <.label1774>:
     dde:	eb 00                	jmp    de0 <.label1775>

0000000000000de0 <.label1775>:
     de0:	eb 00                	jmp    de2 <.label1776>

0000000000000de2 <.label1776>:
     de2:	eb 00                	jmp    de4 <.label1777>

0000000000000de4 <.label1777>:
     de4:	eb 00                	jmp    de6 <.label1778>

0000000000000de6 <.label1778>:
     de6:	eb 00                	jmp    de8 <.label1779>

0000000000000de8 <.label1779>:
     de8:	eb 00                	jmp    dea <.label1780>

0000000000000dea <.label1780>:
     dea:	eb 00                	jmp    dec <.label1781>

0000000000000dec <.label1781>:
     dec:	eb 00                	jmp    dee <.label1782>

0000000000000dee <.label1782>:
     dee:	eb 00                	jmp    df0 <.label1783>

0000000000000df0 <.label1783>:
     df0:	eb 00                	jmp    df2 <.label1784>

0000000000000df2 <.label1784>:
     df2:	eb 00                	jmp    df4 <.label1785>

0000000000000df4 <.label1785>:
     df4:	eb 00                	jmp    df6 <.label1786>

0000000000000df6 <.label1786>:
     df6:	eb 00                	jmp    df8 <.label1787>

0000000000000df8 <.label1787>:
     df8:	eb 00                	jmp    dfa <.label1788>

0000000000000dfa <.label1788>:
     dfa:	eb 00                	jmp    dfc <.label1789>

0000000000000dfc <.label1789>:
     dfc:	eb 00                	jmp    dfe <.label1790>

0000000000000dfe <.label1790>:
     dfe:	eb 00                	jmp    e00 <.label1791>

0000000000000e00 <.label1791>:
     e00:	eb 00                	jmp    e02 <.label1792>

0000000000000e02 <.label1792>:
     e02:	eb 00                	jmp    e04 <.label1793>

0000000000000e04 <.label1793>:
     e04:	eb 00                	jmp    e06 <.label1794>

0000000000000e06 <.label1794>:
     e06:	eb 00                	jmp    e08 <.label1795>

0000000000000e08 <.label1795>:
     e08:	eb 00                	jmp    e0a <.label1796>

0000000000000e0a <.label1796>:
     e0a:	eb 00                	jmp    e0c <.label1797>

0000000000000e0c <.label1797>:
     e0c:	eb 00                	jmp    e0e <.label1798>

0000000000000e0e <.label1798>:
     e0e:	eb 00                	jmp    e10 <.label1799>

0000000000000e10 <.label1799>:
     e10:	eb 00                	jmp    e12 <.label1800>

0000000000000e12 <.label1800>:
     e12:	eb 00                	jmp    e14 <.label1801>

0000000000000e14 <.label1801>:
     e14:	eb 00                	jmp    e16 <.label1802>

0000000000000e16 <.label1802>:
     e16:	eb 00                	jmp    e18 <.label1803>

0000000000000e18 <.label1803>:
     e18:	eb 00                	jmp    e1a <.label1804>

0000000000000e1a <.label1804>:
     e1a:	eb 00                	jmp    e1c <.label1805>

0000000000000e1c <.label1805>:
     e1c:	eb 00                	jmp    e1e <.label1806>

0000000000000e1e <.label1806>:
     e1e:	eb 00                	jmp    e20 <.label1807>

0000000000000e20 <.label1807>:
     e20:	eb 00                	jmp    e22 <.label1808>

0000000000000e22 <.label1808>:
     e22:	eb 00                	jmp    e24 <.label1809>

0000000000000e24 <.label1809>:
     e24:	eb 00                	jmp    e26 <.label1810>

0000000000000e26 <.label1810>:
     e26:	eb 00                	jmp    e28 <.label1811>

0000000000000e28 <.label1811>:
     e28:	eb 00                	jmp    e2a <.label1812>

0000000000000e2a <.label1812>:
     e2a:	eb 00                	jmp    e2c <.label1813>

0000000000000e2c <.label1813>:
     e2c:	eb 00                	jmp    e2e <.label1814>

0000000000000e2e <.label1814>:
     e2e:	eb 00                	jmp    e30 <.label1815>

0000000000000e30 <.label1815>:
     e30:	eb 00                	jmp    e32 <.label1816>

0000000000000e32 <.label1816>:
     e32:	eb 00                	jmp    e34 <.label1817>

0000000000000e34 <.label1817>:
     e34:	eb 00                	jmp    e36 <.label1818>

0000000000000e36 <.label1818>:
     e36:	eb 00                	jmp    e38 <.label1819>

0000000000000e38 <.label1819>:
     e38:	eb 00                	jmp    e3a <.label1820>

0000000000000e3a <.label1820>:
     e3a:	eb 00                	jmp    e3c <.label1821>

0000000000000e3c <.label1821>:
     e3c:	eb 00                	jmp    e3e <.label1822>

0000000000000e3e <.label1822>:
     e3e:	eb 00                	jmp    e40 <.label1823>

0000000000000e40 <.label1823>:
     e40:	eb 00                	jmp    e42 <.label1824>

0000000000000e42 <.label1824>:
     e42:	eb 00                	jmp    e44 <.label1825>

0000000000000e44 <.label1825>:
     e44:	eb 00                	jmp    e46 <.label1826>

0000000000000e46 <.label1826>:
     e46:	eb 00                	jmp    e48 <.label1827>

0000000000000e48 <.label1827>:
     e48:	eb 00                	jmp    e4a <.label1828>

0000000000000e4a <.label1828>:
     e4a:	eb 00                	jmp    e4c <.label1829>

0000000000000e4c <.label1829>:
     e4c:	eb 00                	jmp    e4e <.label1830>

0000000000000e4e <.label1830>:
     e4e:	eb 00                	jmp    e50 <.label1831>

0000000000000e50 <.label1831>:
     e50:	eb 00                	jmp    e52 <.label1832>

0000000000000e52 <.label1832>:
     e52:	eb 00                	jmp    e54 <.label1833>

0000000000000e54 <.label1833>:
     e54:	eb 00                	jmp    e56 <.label1834>

0000000000000e56 <.label1834>:
     e56:	eb 00                	jmp    e58 <.label1835>

0000000000000e58 <.label1835>:
     e58:	eb 00                	jmp    e5a <.label1836>

0000000000000e5a <.label1836>:
     e5a:	eb 00                	jmp    e5c <.label1837>

0000000000000e5c <.label1837>:
     e5c:	eb 00                	jmp    e5e <.label1838>

0000000000000e5e <.label1838>:
     e5e:	eb 00                	jmp    e60 <.label1839>

0000000000000e60 <.label1839>:
     e60:	eb 00                	jmp    e62 <.label1840>

0000000000000e62 <.label1840>:
     e62:	eb 00                	jmp    e64 <.label1841>

0000000000000e64 <.label1841>:
     e64:	eb 00                	jmp    e66 <.label1842>

0000000000000e66 <.label1842>:
     e66:	eb 00                	jmp    e68 <.label1843>

0000000000000e68 <.label1843>:
     e68:	eb 00                	jmp    e6a <.label1844>

0000000000000e6a <.label1844>:
     e6a:	eb 00                	jmp    e6c <.label1845>

0000000000000e6c <.label1845>:
     e6c:	eb 00                	jmp    e6e <.label1846>

0000000000000e6e <.label1846>:
     e6e:	eb 00                	jmp    e70 <.label1847>

0000000000000e70 <.label1847>:
     e70:	eb 00                	jmp    e72 <.label1848>

0000000000000e72 <.label1848>:
     e72:	eb 00                	jmp    e74 <.label1849>

0000000000000e74 <.label1849>:
     e74:	eb 00                	jmp    e76 <.label1850>

0000000000000e76 <.label1850>:
     e76:	eb 00                	jmp    e78 <.label1851>

0000000000000e78 <.label1851>:
     e78:	eb 00                	jmp    e7a <.label1852>

0000000000000e7a <.label1852>:
     e7a:	eb 00                	jmp    e7c <.label1853>

0000000000000e7c <.label1853>:
     e7c:	eb 00                	jmp    e7e <.label1854>

0000000000000e7e <.label1854>:
     e7e:	eb 00                	jmp    e80 <.label1855>

0000000000000e80 <.label1855>:
     e80:	eb 00                	jmp    e82 <.label1856>

0000000000000e82 <.label1856>:
     e82:	eb 00                	jmp    e84 <.label1857>

0000000000000e84 <.label1857>:
     e84:	eb 00                	jmp    e86 <.label1858>

0000000000000e86 <.label1858>:
     e86:	eb 00                	jmp    e88 <.label1859>

0000000000000e88 <.label1859>:
     e88:	eb 00                	jmp    e8a <.label1860>

0000000000000e8a <.label1860>:
     e8a:	eb 00                	jmp    e8c <.label1861>

0000000000000e8c <.label1861>:
     e8c:	eb 00                	jmp    e8e <.label1862>

0000000000000e8e <.label1862>:
     e8e:	eb 00                	jmp    e90 <.label1863>

0000000000000e90 <.label1863>:
     e90:	eb 00                	jmp    e92 <.label1864>

0000000000000e92 <.label1864>:
     e92:	eb 00                	jmp    e94 <.label1865>

0000000000000e94 <.label1865>:
     e94:	eb 00                	jmp    e96 <.label1866>

0000000000000e96 <.label1866>:
     e96:	eb 00                	jmp    e98 <.label1867>

0000000000000e98 <.label1867>:
     e98:	eb 00                	jmp    e9a <.label1868>

0000000000000e9a <.label1868>:
     e9a:	eb 00                	jmp    e9c <.label1869>

0000000000000e9c <.label1869>:
     e9c:	eb 00                	jmp    e9e <.label1870>

0000000000000e9e <.label1870>:
     e9e:	eb 00                	jmp    ea0 <.label1871>

0000000000000ea0 <.label1871>:
     ea0:	eb 00                	jmp    ea2 <.label1872>

0000000000000ea2 <.label1872>:
     ea2:	eb 00                	jmp    ea4 <.label1873>

0000000000000ea4 <.label1873>:
     ea4:	eb 00                	jmp    ea6 <.label1874>

0000000000000ea6 <.label1874>:
     ea6:	eb 00                	jmp    ea8 <.label1875>

0000000000000ea8 <.label1875>:
     ea8:	eb 00                	jmp    eaa <.label1876>

0000000000000eaa <.label1876>:
     eaa:	eb 00                	jmp    eac <.label1877>

0000000000000eac <.label1877>:
     eac:	eb 00                	jmp    eae <.label1878>

0000000000000eae <.label1878>:
     eae:	eb 00                	jmp    eb0 <.label1879>

0000000000000eb0 <.label1879>:
     eb0:	eb 00                	jmp    eb2 <.label1880>

0000000000000eb2 <.label1880>:
     eb2:	eb 00                	jmp    eb4 <.label1881>

0000000000000eb4 <.label1881>:
     eb4:	eb 00                	jmp    eb6 <.label1882>

0000000000000eb6 <.label1882>:
     eb6:	eb 00                	jmp    eb8 <.label1883>

0000000000000eb8 <.label1883>:
     eb8:	eb 00                	jmp    eba <.label1884>

0000000000000eba <.label1884>:
     eba:	eb 00                	jmp    ebc <.label1885>

0000000000000ebc <.label1885>:
     ebc:	eb 00                	jmp    ebe <.label1886>

0000000000000ebe <.label1886>:
     ebe:	eb 00                	jmp    ec0 <.label1887>

0000000000000ec0 <.label1887>:
     ec0:	eb 00                	jmp    ec2 <.label1888>

0000000000000ec2 <.label1888>:
     ec2:	eb 00                	jmp    ec4 <.label1889>

0000000000000ec4 <.label1889>:
     ec4:	eb 00                	jmp    ec6 <.label1890>

0000000000000ec6 <.label1890>:
     ec6:	eb 00                	jmp    ec8 <.label1891>

0000000000000ec8 <.label1891>:
     ec8:	eb 00                	jmp    eca <.label1892>

0000000000000eca <.label1892>:
     eca:	eb 00                	jmp    ecc <.label1893>

0000000000000ecc <.label1893>:
     ecc:	eb 00                	jmp    ece <.label1894>

0000000000000ece <.label1894>:
     ece:	eb 00                	jmp    ed0 <.label1895>

0000000000000ed0 <.label1895>:
     ed0:	eb 00                	jmp    ed2 <.label1896>

0000000000000ed2 <.label1896>:
     ed2:	eb 00                	jmp    ed4 <.label1897>

0000000000000ed4 <.label1897>:
     ed4:	eb 00                	jmp    ed6 <.label1898>

0000000000000ed6 <.label1898>:
     ed6:	eb 00                	jmp    ed8 <.label1899>

0000000000000ed8 <.label1899>:
     ed8:	eb 00                	jmp    eda <.label1900>

0000000000000eda <.label1900>:
     eda:	eb 00                	jmp    edc <.label1901>

0000000000000edc <.label1901>:
     edc:	eb 00                	jmp    ede <.label1902>

0000000000000ede <.label1902>:
     ede:	eb 00                	jmp    ee0 <.label1903>

0000000000000ee0 <.label1903>:
     ee0:	eb 00                	jmp    ee2 <.label1904>

0000000000000ee2 <.label1904>:
     ee2:	eb 00                	jmp    ee4 <.label1905>

0000000000000ee4 <.label1905>:
     ee4:	eb 00                	jmp    ee6 <.label1906>

0000000000000ee6 <.label1906>:
     ee6:	eb 00                	jmp    ee8 <.label1907>

0000000000000ee8 <.label1907>:
     ee8:	eb 00                	jmp    eea <.label1908>

0000000000000eea <.label1908>:
     eea:	eb 00                	jmp    eec <.label1909>

0000000000000eec <.label1909>:
     eec:	eb 00                	jmp    eee <.label1910>

0000000000000eee <.label1910>:
     eee:	eb 00                	jmp    ef0 <.label1911>

0000000000000ef0 <.label1911>:
     ef0:	eb 00                	jmp    ef2 <.label1912>

0000000000000ef2 <.label1912>:
     ef2:	eb 00                	jmp    ef4 <.label1913>

0000000000000ef4 <.label1913>:
     ef4:	eb 00                	jmp    ef6 <.label1914>

0000000000000ef6 <.label1914>:
     ef6:	eb 00                	jmp    ef8 <.label1915>

0000000000000ef8 <.label1915>:
     ef8:	eb 00                	jmp    efa <.label1916>

0000000000000efa <.label1916>:
     efa:	eb 00                	jmp    efc <.label1917>

0000000000000efc <.label1917>:
     efc:	eb 00                	jmp    efe <.label1918>

0000000000000efe <.label1918>:
     efe:	eb 00                	jmp    f00 <.label1919>

0000000000000f00 <.label1919>:
     f00:	eb 00                	jmp    f02 <.label1920>

0000000000000f02 <.label1920>:
     f02:	eb 00                	jmp    f04 <.label1921>

0000000000000f04 <.label1921>:
     f04:	eb 00                	jmp    f06 <.label1922>

0000000000000f06 <.label1922>:
     f06:	eb 00                	jmp    f08 <.label1923>

0000000000000f08 <.label1923>:
     f08:	eb 00                	jmp    f0a <.label1924>

0000000000000f0a <.label1924>:
     f0a:	eb 00                	jmp    f0c <.label1925>

0000000000000f0c <.label1925>:
     f0c:	eb 00                	jmp    f0e <.label1926>

0000000000000f0e <.label1926>:
     f0e:	eb 00                	jmp    f10 <.label1927>

0000000000000f10 <.label1927>:
     f10:	eb 00                	jmp    f12 <.label1928>

0000000000000f12 <.label1928>:
     f12:	eb 00                	jmp    f14 <.label1929>

0000000000000f14 <.label1929>:
     f14:	eb 00                	jmp    f16 <.label1930>

0000000000000f16 <.label1930>:
     f16:	eb 00                	jmp    f18 <.label1931>

0000000000000f18 <.label1931>:
     f18:	eb 00                	jmp    f1a <.label1932>

0000000000000f1a <.label1932>:
     f1a:	eb 00                	jmp    f1c <.label1933>

0000000000000f1c <.label1933>:
     f1c:	eb 00                	jmp    f1e <.label1934>

0000000000000f1e <.label1934>:
     f1e:	eb 00                	jmp    f20 <.label1935>

0000000000000f20 <.label1935>:
     f20:	eb 00                	jmp    f22 <.label1936>

0000000000000f22 <.label1936>:
     f22:	eb 00                	jmp    f24 <.label1937>

0000000000000f24 <.label1937>:
     f24:	eb 00                	jmp    f26 <.label1938>

0000000000000f26 <.label1938>:
     f26:	eb 00                	jmp    f28 <.label1939>

0000000000000f28 <.label1939>:
     f28:	eb 00                	jmp    f2a <.label1940>

0000000000000f2a <.label1940>:
     f2a:	eb 00                	jmp    f2c <.label1941>

0000000000000f2c <.label1941>:
     f2c:	eb 00                	jmp    f2e <.label1942>

0000000000000f2e <.label1942>:
     f2e:	eb 00                	jmp    f30 <.label1943>

0000000000000f30 <.label1943>:
     f30:	eb 00                	jmp    f32 <.label1944>

0000000000000f32 <.label1944>:
     f32:	eb 00                	jmp    f34 <.label1945>

0000000000000f34 <.label1945>:
     f34:	eb 00                	jmp    f36 <.label1946>

0000000000000f36 <.label1946>:
     f36:	eb 00                	jmp    f38 <.label1947>

0000000000000f38 <.label1947>:
     f38:	eb 00                	jmp    f3a <.label1948>

0000000000000f3a <.label1948>:
     f3a:	eb 00                	jmp    f3c <.label1949>

0000000000000f3c <.label1949>:
     f3c:	eb 00                	jmp    f3e <.label1950>

0000000000000f3e <.label1950>:
     f3e:	eb 00                	jmp    f40 <.label1951>

0000000000000f40 <.label1951>:
     f40:	eb 00                	jmp    f42 <.label1952>

0000000000000f42 <.label1952>:
     f42:	eb 00                	jmp    f44 <.label1953>

0000000000000f44 <.label1953>:
     f44:	eb 00                	jmp    f46 <.label1954>

0000000000000f46 <.label1954>:
     f46:	eb 00                	jmp    f48 <.label1955>

0000000000000f48 <.label1955>:
     f48:	eb 00                	jmp    f4a <.label1956>

0000000000000f4a <.label1956>:
     f4a:	eb 00                	jmp    f4c <.label1957>

0000000000000f4c <.label1957>:
     f4c:	eb 00                	jmp    f4e <.label1958>

0000000000000f4e <.label1958>:
     f4e:	eb 00                	jmp    f50 <.label1959>

0000000000000f50 <.label1959>:
     f50:	eb 00                	jmp    f52 <.label1960>

0000000000000f52 <.label1960>:
     f52:	eb 00                	jmp    f54 <.label1961>

0000000000000f54 <.label1961>:
     f54:	eb 00                	jmp    f56 <.label1962>

0000000000000f56 <.label1962>:
     f56:	eb 00                	jmp    f58 <.label1963>

0000000000000f58 <.label1963>:
     f58:	eb 00                	jmp    f5a <.label1964>

0000000000000f5a <.label1964>:
     f5a:	eb 00                	jmp    f5c <.label1965>

0000000000000f5c <.label1965>:
     f5c:	eb 00                	jmp    f5e <.label1966>

0000000000000f5e <.label1966>:
     f5e:	eb 00                	jmp    f60 <.label1967>

0000000000000f60 <.label1967>:
     f60:	eb 00                	jmp    f62 <.label1968>

0000000000000f62 <.label1968>:
     f62:	eb 00                	jmp    f64 <.label1969>

0000000000000f64 <.label1969>:
     f64:	eb 00                	jmp    f66 <.label1970>

0000000000000f66 <.label1970>:
     f66:	eb 00                	jmp    f68 <.label1971>

0000000000000f68 <.label1971>:
     f68:	eb 00                	jmp    f6a <.label1972>

0000000000000f6a <.label1972>:
     f6a:	eb 00                	jmp    f6c <.label1973>

0000000000000f6c <.label1973>:
     f6c:	eb 00                	jmp    f6e <.label1974>

0000000000000f6e <.label1974>:
     f6e:	eb 00                	jmp    f70 <.label1975>

0000000000000f70 <.label1975>:
     f70:	eb 00                	jmp    f72 <.label1976>

0000000000000f72 <.label1976>:
     f72:	eb 00                	jmp    f74 <.label1977>

0000000000000f74 <.label1977>:
     f74:	eb 00                	jmp    f76 <.label1978>

0000000000000f76 <.label1978>:
     f76:	eb 00                	jmp    f78 <.label1979>

0000000000000f78 <.label1979>:
     f78:	eb 00                	jmp    f7a <.label1980>

0000000000000f7a <.label1980>:
     f7a:	eb 00                	jmp    f7c <.label1981>

0000000000000f7c <.label1981>:
     f7c:	eb 00                	jmp    f7e <.label1982>

0000000000000f7e <.label1982>:
     f7e:	eb 00                	jmp    f80 <.label1983>

0000000000000f80 <.label1983>:
     f80:	eb 00                	jmp    f82 <.label1984>

0000000000000f82 <.label1984>:
     f82:	eb 00                	jmp    f84 <.label1985>

0000000000000f84 <.label1985>:
     f84:	eb 00                	jmp    f86 <.label1986>

0000000000000f86 <.label1986>:
     f86:	eb 00                	jmp    f88 <.label1987>

0000000000000f88 <.label1987>:
     f88:	eb 00                	jmp    f8a <.label1988>

0000000000000f8a <.label1988>:
     f8a:	eb 00                	jmp    f8c <.label1989>

0000000000000f8c <.label1989>:
     f8c:	eb 00                	jmp    f8e <.label1990>

0000000000000f8e <.label1990>:
     f8e:	eb 00                	jmp    f90 <.label1991>

0000000000000f90 <.label1991>:
     f90:	eb 00                	jmp    f92 <.label1992>

0000000000000f92 <.label1992>:
     f92:	eb 00                	jmp    f94 <.label1993>

0000000000000f94 <.label1993>:
     f94:	eb 00                	jmp    f96 <.label1994>

0000000000000f96 <.label1994>:
     f96:	eb 00                	jmp    f98 <.label1995>

0000000000000f98 <.label1995>:
     f98:	eb 00                	jmp    f9a <.label1996>

0000000000000f9a <.label1996>:
     f9a:	eb 00                	jmp    f9c <.label1997>

0000000000000f9c <.label1997>:
     f9c:	eb 00                	jmp    f9e <.label1998>

0000000000000f9e <.label1998>:
     f9e:	eb 00                	jmp    fa0 <.label1999>

0000000000000fa0 <.label1999>:
     fa0:	eb 00                	jmp    fa2 <.label2000>

0000000000000fa2 <.label2000>:
     fa2:	eb 00                	jmp    fa4 <.label2001>

0000000000000fa4 <.label2001>:
     fa4:	eb 00                	jmp    fa6 <.label2002>

0000000000000fa6 <.label2002>:
     fa6:	eb 00                	jmp    fa8 <.label2003>

0000000000000fa8 <.label2003>:
     fa8:	eb 00                	jmp    faa <.label2004>

0000000000000faa <.label2004>:
     faa:	eb 00                	jmp    fac <.label2005>

0000000000000fac <.label2005>:
     fac:	eb 00                	jmp    fae <.label2006>

0000000000000fae <.label2006>:
     fae:	eb 00                	jmp    fb0 <.label2007>

0000000000000fb0 <.label2007>:
     fb0:	eb 00                	jmp    fb2 <.label2008>

0000000000000fb2 <.label2008>:
     fb2:	eb 00                	jmp    fb4 <.label2009>

0000000000000fb4 <.label2009>:
     fb4:	eb 00                	jmp    fb6 <.label2010>

0000000000000fb6 <.label2010>:
     fb6:	eb 00                	jmp    fb8 <.label2011>

0000000000000fb8 <.label2011>:
     fb8:	eb 00                	jmp    fba <.label2012>

0000000000000fba <.label2012>:
     fba:	eb 00                	jmp    fbc <.label2013>

0000000000000fbc <.label2013>:
     fbc:	eb 00                	jmp    fbe <.label2014>

0000000000000fbe <.label2014>:
     fbe:	eb 00                	jmp    fc0 <.label2015>

0000000000000fc0 <.label2015>:
     fc0:	eb 00                	jmp    fc2 <.label2016>

0000000000000fc2 <.label2016>:
     fc2:	eb 00                	jmp    fc4 <.label2017>

0000000000000fc4 <.label2017>:
     fc4:	eb 00                	jmp    fc6 <.label2018>

0000000000000fc6 <.label2018>:
     fc6:	eb 00                	jmp    fc8 <.label2019>

0000000000000fc8 <.label2019>:
     fc8:	eb 00                	jmp    fca <.label2020>

0000000000000fca <.label2020>:
     fca:	eb 00                	jmp    fcc <.label2021>

0000000000000fcc <.label2021>:
     fcc:	eb 00                	jmp    fce <.label2022>

0000000000000fce <.label2022>:
     fce:	eb 00                	jmp    fd0 <.label2023>

0000000000000fd0 <.label2023>:
     fd0:	eb 00                	jmp    fd2 <.label2024>

0000000000000fd2 <.label2024>:
     fd2:	eb 00                	jmp    fd4 <.label2025>

0000000000000fd4 <.label2025>:
     fd4:	eb 00                	jmp    fd6 <.label2026>

0000000000000fd6 <.label2026>:
     fd6:	eb 00                	jmp    fd8 <.label2027>

0000000000000fd8 <.label2027>:
     fd8:	eb 00                	jmp    fda <.label2028>

0000000000000fda <.label2028>:
     fda:	eb 00                	jmp    fdc <.label2029>

0000000000000fdc <.label2029>:
     fdc:	eb 00                	jmp    fde <.label2030>

0000000000000fde <.label2030>:
     fde:	eb 00                	jmp    fe0 <.label2031>

0000000000000fe0 <.label2031>:
     fe0:	eb 00                	jmp    fe2 <.label2032>

0000000000000fe2 <.label2032>:
     fe2:	eb 00                	jmp    fe4 <.label2033>

0000000000000fe4 <.label2033>:
     fe4:	eb 00                	jmp    fe6 <.label2034>

0000000000000fe6 <.label2034>:
     fe6:	eb 00                	jmp    fe8 <.label2035>

0000000000000fe8 <.label2035>:
     fe8:	eb 00                	jmp    fea <.label2036>

0000000000000fea <.label2036>:
     fea:	eb 00                	jmp    fec <.label2037>

0000000000000fec <.label2037>:
     fec:	eb 00                	jmp    fee <.label2038>

0000000000000fee <.label2038>:
     fee:	eb 00                	jmp    ff0 <.label2039>

0000000000000ff0 <.label2039>:
     ff0:	eb 00                	jmp    ff2 <.label2040>

0000000000000ff2 <.label2040>:
     ff2:	eb 00                	jmp    ff4 <.label2041>

0000000000000ff4 <.label2041>:
     ff4:	eb 00                	jmp    ff6 <.label2042>

0000000000000ff6 <.label2042>:
     ff6:	eb 00                	jmp    ff8 <.label2043>

0000000000000ff8 <.label2043>:
     ff8:	eb 00                	jmp    ffa <.label2044>

0000000000000ffa <.label2044>:
     ffa:	eb 00                	jmp    ffc <.label2045>

0000000000000ffc <.label2045>:
     ffc:	eb 00                	jmp    ffe <.label2046>

0000000000000ffe <.label2046>:
     ffe:	eb 00                	jmp    1000 <.label2047>

0000000000001000 <.label2047>:
    1000:	eb 00                	jmp    1002 <.label2048>

0000000000001002 <.label2048>:
    1002:	eb 00                	jmp    1004 <.label2049>

0000000000001004 <.label2049>:
    1004:	eb 00                	jmp    1006 <.label2050>

0000000000001006 <.label2050>:
    1006:	eb 00                	jmp    1008 <.label2051>

0000000000001008 <.label2051>:
    1008:	eb 00                	jmp    100a <.label2052>

000000000000100a <.label2052>:
    100a:	eb 00                	jmp    100c <.label2053>

000000000000100c <.label2053>:
    100c:	eb 00                	jmp    100e <.label2054>

000000000000100e <.label2054>:
    100e:	eb 00                	jmp    1010 <.label2055>

0000000000001010 <.label2055>:
    1010:	eb 00                	jmp    1012 <.label2056>

0000000000001012 <.label2056>:
    1012:	eb 00                	jmp    1014 <.label2057>

0000000000001014 <.label2057>:
    1014:	eb 00                	jmp    1016 <.label2058>

0000000000001016 <.label2058>:
    1016:	eb 00                	jmp    1018 <.label2059>

0000000000001018 <.label2059>:
    1018:	eb 00                	jmp    101a <.label2060>

000000000000101a <.label2060>:
    101a:	eb 00                	jmp    101c <.label2061>

000000000000101c <.label2061>:
    101c:	eb 00                	jmp    101e <.label2062>

000000000000101e <.label2062>:
    101e:	eb 00                	jmp    1020 <.label2063>

0000000000001020 <.label2063>:
    1020:	eb 00                	jmp    1022 <.label2064>

0000000000001022 <.label2064>:
    1022:	eb 00                	jmp    1024 <.label2065>

0000000000001024 <.label2065>:
    1024:	eb 00                	jmp    1026 <.label2066>

0000000000001026 <.label2066>:
    1026:	eb 00                	jmp    1028 <.label2067>

0000000000001028 <.label2067>:
    1028:	eb 00                	jmp    102a <.label2068>

000000000000102a <.label2068>:
    102a:	eb 00                	jmp    102c <.label2069>

000000000000102c <.label2069>:
    102c:	eb 00                	jmp    102e <.label2070>

000000000000102e <.label2070>:
    102e:	eb 00                	jmp    1030 <.label2071>

0000000000001030 <.label2071>:
    1030:	eb 00                	jmp    1032 <.label2072>

0000000000001032 <.label2072>:
    1032:	eb 00                	jmp    1034 <.label2073>

0000000000001034 <.label2073>:
    1034:	eb 00                	jmp    1036 <.label2074>

0000000000001036 <.label2074>:
    1036:	eb 00                	jmp    1038 <.label2075>

0000000000001038 <.label2075>:
    1038:	eb 00                	jmp    103a <.label2076>

000000000000103a <.label2076>:
    103a:	eb 00                	jmp    103c <.label2077>

000000000000103c <.label2077>:
    103c:	eb 00                	jmp    103e <.label2078>

000000000000103e <.label2078>:
    103e:	eb 00                	jmp    1040 <.label2079>

0000000000001040 <.label2079>:
    1040:	eb 00                	jmp    1042 <.label2080>

0000000000001042 <.label2080>:
    1042:	eb 00                	jmp    1044 <.label2081>

0000000000001044 <.label2081>:
    1044:	eb 00                	jmp    1046 <.label2082>

0000000000001046 <.label2082>:
    1046:	eb 00                	jmp    1048 <.label2083>

0000000000001048 <.label2083>:
    1048:	eb 00                	jmp    104a <.label2084>

000000000000104a <.label2084>:
    104a:	eb 00                	jmp    104c <.label2085>

000000000000104c <.label2085>:
    104c:	eb 00                	jmp    104e <.label2086>

000000000000104e <.label2086>:
    104e:	eb 00                	jmp    1050 <.label2087>

0000000000001050 <.label2087>:
    1050:	eb 00                	jmp    1052 <.label2088>

0000000000001052 <.label2088>:
    1052:	eb 00                	jmp    1054 <.label2089>

0000000000001054 <.label2089>:
    1054:	eb 00                	jmp    1056 <.label2090>

0000000000001056 <.label2090>:
    1056:	eb 00                	jmp    1058 <.label2091>

0000000000001058 <.label2091>:
    1058:	eb 00                	jmp    105a <.label2092>

000000000000105a <.label2092>:
    105a:	eb 00                	jmp    105c <.label2093>

000000000000105c <.label2093>:
    105c:	eb 00                	jmp    105e <.label2094>

000000000000105e <.label2094>:
    105e:	eb 00                	jmp    1060 <.label2095>

0000000000001060 <.label2095>:
    1060:	eb 00                	jmp    1062 <.label2096>

0000000000001062 <.label2096>:
    1062:	eb 00                	jmp    1064 <.label2097>

0000000000001064 <.label2097>:
    1064:	eb 00                	jmp    1066 <.label2098>

0000000000001066 <.label2098>:
    1066:	eb 00                	jmp    1068 <.label2099>

0000000000001068 <.label2099>:
    1068:	eb 00                	jmp    106a <.label2100>

000000000000106a <.label2100>:
    106a:	eb 00                	jmp    106c <.label2101>

000000000000106c <.label2101>:
    106c:	eb 00                	jmp    106e <.label2102>

000000000000106e <.label2102>:
    106e:	eb 00                	jmp    1070 <.label2103>

0000000000001070 <.label2103>:
    1070:	eb 00                	jmp    1072 <.label2104>

0000000000001072 <.label2104>:
    1072:	eb 00                	jmp    1074 <.label2105>

0000000000001074 <.label2105>:
    1074:	eb 00                	jmp    1076 <.label2106>

0000000000001076 <.label2106>:
    1076:	eb 00                	jmp    1078 <.label2107>

0000000000001078 <.label2107>:
    1078:	eb 00                	jmp    107a <.label2108>

000000000000107a <.label2108>:
    107a:	eb 00                	jmp    107c <.label2109>

000000000000107c <.label2109>:
    107c:	eb 00                	jmp    107e <.label2110>

000000000000107e <.label2110>:
    107e:	eb 00                	jmp    1080 <.label2111>

0000000000001080 <.label2111>:
    1080:	eb 00                	jmp    1082 <.label2112>

0000000000001082 <.label2112>:
    1082:	eb 00                	jmp    1084 <.label2113>

0000000000001084 <.label2113>:
    1084:	eb 00                	jmp    1086 <.label2114>

0000000000001086 <.label2114>:
    1086:	eb 00                	jmp    1088 <.label2115>

0000000000001088 <.label2115>:
    1088:	eb 00                	jmp    108a <.label2116>

000000000000108a <.label2116>:
    108a:	eb 00                	jmp    108c <.label2117>

000000000000108c <.label2117>:
    108c:	eb 00                	jmp    108e <.label2118>

000000000000108e <.label2118>:
    108e:	eb 00                	jmp    1090 <.label2119>

0000000000001090 <.label2119>:
    1090:	eb 00                	jmp    1092 <.label2120>

0000000000001092 <.label2120>:
    1092:	eb 00                	jmp    1094 <.label2121>

0000000000001094 <.label2121>:
    1094:	eb 00                	jmp    1096 <.label2122>

0000000000001096 <.label2122>:
    1096:	eb 00                	jmp    1098 <.label2123>

0000000000001098 <.label2123>:
    1098:	eb 00                	jmp    109a <.label2124>

000000000000109a <.label2124>:
    109a:	eb 00                	jmp    109c <.label2125>

000000000000109c <.label2125>:
    109c:	eb 00                	jmp    109e <.label2126>

000000000000109e <.label2126>:
    109e:	eb 00                	jmp    10a0 <.label2127>

00000000000010a0 <.label2127>:
    10a0:	eb 00                	jmp    10a2 <.label2128>

00000000000010a2 <.label2128>:
    10a2:	eb 00                	jmp    10a4 <.label2129>

00000000000010a4 <.label2129>:
    10a4:	eb 00                	jmp    10a6 <.label2130>

00000000000010a6 <.label2130>:
    10a6:	eb 00                	jmp    10a8 <.label2131>

00000000000010a8 <.label2131>:
    10a8:	eb 00                	jmp    10aa <.label2132>

00000000000010aa <.label2132>:
    10aa:	eb 00                	jmp    10ac <.label2133>

00000000000010ac <.label2133>:
    10ac:	eb 00                	jmp    10ae <.label2134>

00000000000010ae <.label2134>:
    10ae:	eb 00                	jmp    10b0 <.label2135>

00000000000010b0 <.label2135>:
    10b0:	eb 00                	jmp    10b2 <.label2136>

00000000000010b2 <.label2136>:
    10b2:	eb 00                	jmp    10b4 <.label2137>

00000000000010b4 <.label2137>:
    10b4:	eb 00                	jmp    10b6 <.label2138>

00000000000010b6 <.label2138>:
    10b6:	eb 00                	jmp    10b8 <.label2139>

00000000000010b8 <.label2139>:
    10b8:	eb 00                	jmp    10ba <.label2140>

00000000000010ba <.label2140>:
    10ba:	eb 00                	jmp    10bc <.label2141>

00000000000010bc <.label2141>:
    10bc:	eb 00                	jmp    10be <.label2142>

00000000000010be <.label2142>:
    10be:	eb 00                	jmp    10c0 <.label2143>

00000000000010c0 <.label2143>:
    10c0:	eb 00                	jmp    10c2 <.label2144>

00000000000010c2 <.label2144>:
    10c2:	eb 00                	jmp    10c4 <.label2145>

00000000000010c4 <.label2145>:
    10c4:	eb 00                	jmp    10c6 <.label2146>

00000000000010c6 <.label2146>:
    10c6:	eb 00                	jmp    10c8 <.label2147>

00000000000010c8 <.label2147>:
    10c8:	eb 00                	jmp    10ca <.label2148>

00000000000010ca <.label2148>:
    10ca:	eb 00                	jmp    10cc <.label2149>

00000000000010cc <.label2149>:
    10cc:	eb 00                	jmp    10ce <.label2150>

00000000000010ce <.label2150>:
    10ce:	eb 00                	jmp    10d0 <.label2151>

00000000000010d0 <.label2151>:
    10d0:	eb 00                	jmp    10d2 <.label2152>

00000000000010d2 <.label2152>:
    10d2:	eb 00                	jmp    10d4 <.label2153>

00000000000010d4 <.label2153>:
    10d4:	eb 00                	jmp    10d6 <.label2154>

00000000000010d6 <.label2154>:
    10d6:	eb 00                	jmp    10d8 <.label2155>

00000000000010d8 <.label2155>:
    10d8:	eb 00                	jmp    10da <.label2156>

00000000000010da <.label2156>:
    10da:	eb 00                	jmp    10dc <.label2157>

00000000000010dc <.label2157>:
    10dc:	eb 00                	jmp    10de <.label2158>

00000000000010de <.label2158>:
    10de:	eb 00                	jmp    10e0 <.label2159>

00000000000010e0 <.label2159>:
    10e0:	eb 00                	jmp    10e2 <.label2160>

00000000000010e2 <.label2160>:
    10e2:	eb 00                	jmp    10e4 <.label2161>

00000000000010e4 <.label2161>:
    10e4:	eb 00                	jmp    10e6 <.label2162>

00000000000010e6 <.label2162>:
    10e6:	eb 00                	jmp    10e8 <.label2163>

00000000000010e8 <.label2163>:
    10e8:	eb 00                	jmp    10ea <.label2164>

00000000000010ea <.label2164>:
    10ea:	eb 00                	jmp    10ec <.label2165>

00000000000010ec <.label2165>:
    10ec:	eb 00                	jmp    10ee <.label2166>

00000000000010ee <.label2166>:
    10ee:	eb 00                	jmp    10f0 <.label2167>

00000000000010f0 <.label2167>:
    10f0:	eb 00                	jmp    10f2 <.label2168>

00000000000010f2 <.label2168>:
    10f2:	eb 00                	jmp    10f4 <.label2169>

00000000000010f4 <.label2169>:
    10f4:	eb 00                	jmp    10f6 <.label2170>

00000000000010f6 <.label2170>:
    10f6:	eb 00                	jmp    10f8 <.label2171>

00000000000010f8 <.label2171>:
    10f8:	eb 00                	jmp    10fa <.label2172>

00000000000010fa <.label2172>:
    10fa:	eb 00                	jmp    10fc <.label2173>

00000000000010fc <.label2173>:
    10fc:	eb 00                	jmp    10fe <.label2174>

00000000000010fe <.label2174>:
    10fe:	eb 00                	jmp    1100 <.label2175>

0000000000001100 <.label2175>:
    1100:	eb 00                	jmp    1102 <.label2176>

0000000000001102 <.label2176>:
    1102:	eb 00                	jmp    1104 <.label2177>

0000000000001104 <.label2177>:
    1104:	eb 00                	jmp    1106 <.label2178>

0000000000001106 <.label2178>:
    1106:	eb 00                	jmp    1108 <.label2179>

0000000000001108 <.label2179>:
    1108:	eb 00                	jmp    110a <.label2180>

000000000000110a <.label2180>:
    110a:	eb 00                	jmp    110c <.label2181>

000000000000110c <.label2181>:
    110c:	eb 00                	jmp    110e <.label2182>

000000000000110e <.label2182>:
    110e:	eb 00                	jmp    1110 <.label2183>

0000000000001110 <.label2183>:
    1110:	eb 00                	jmp    1112 <.label2184>

0000000000001112 <.label2184>:
    1112:	eb 00                	jmp    1114 <.label2185>

0000000000001114 <.label2185>:
    1114:	eb 00                	jmp    1116 <.label2186>

0000000000001116 <.label2186>:
    1116:	eb 00                	jmp    1118 <.label2187>

0000000000001118 <.label2187>:
    1118:	eb 00                	jmp    111a <.label2188>

000000000000111a <.label2188>:
    111a:	eb 00                	jmp    111c <.label2189>

000000000000111c <.label2189>:
    111c:	eb 00                	jmp    111e <.label2190>

000000000000111e <.label2190>:
    111e:	eb 00                	jmp    1120 <.label2191>

0000000000001120 <.label2191>:
    1120:	eb 00                	jmp    1122 <.label2192>

0000000000001122 <.label2192>:
    1122:	eb 00                	jmp    1124 <.label2193>

0000000000001124 <.label2193>:
    1124:	eb 00                	jmp    1126 <.label2194>

0000000000001126 <.label2194>:
    1126:	eb 00                	jmp    1128 <.label2195>

0000000000001128 <.label2195>:
    1128:	eb 00                	jmp    112a <.label2196>

000000000000112a <.label2196>:
    112a:	eb 00                	jmp    112c <.label2197>

000000000000112c <.label2197>:
    112c:	eb 00                	jmp    112e <.label2198>

000000000000112e <.label2198>:
    112e:	eb 00                	jmp    1130 <.label2199>

0000000000001130 <.label2199>:
    1130:	eb 00                	jmp    1132 <.label2200>

0000000000001132 <.label2200>:
    1132:	eb 00                	jmp    1134 <.label2201>

0000000000001134 <.label2201>:
    1134:	eb 00                	jmp    1136 <.label2202>

0000000000001136 <.label2202>:
    1136:	eb 00                	jmp    1138 <.label2203>

0000000000001138 <.label2203>:
    1138:	eb 00                	jmp    113a <.label2204>

000000000000113a <.label2204>:
    113a:	eb 00                	jmp    113c <.label2205>

000000000000113c <.label2205>:
    113c:	eb 00                	jmp    113e <.label2206>

000000000000113e <.label2206>:
    113e:	eb 00                	jmp    1140 <.label2207>

0000000000001140 <.label2207>:
    1140:	eb 00                	jmp    1142 <.label2208>

0000000000001142 <.label2208>:
    1142:	eb 00                	jmp    1144 <.label2209>

0000000000001144 <.label2209>:
    1144:	eb 00                	jmp    1146 <.label2210>

0000000000001146 <.label2210>:
    1146:	eb 00                	jmp    1148 <.label2211>

0000000000001148 <.label2211>:
    1148:	eb 00                	jmp    114a <.label2212>

000000000000114a <.label2212>:
    114a:	eb 00                	jmp    114c <.label2213>

000000000000114c <.label2213>:
    114c:	eb 00                	jmp    114e <.label2214>

000000000000114e <.label2214>:
    114e:	eb 00                	jmp    1150 <.label2215>

0000000000001150 <.label2215>:
    1150:	eb 00                	jmp    1152 <.label2216>

0000000000001152 <.label2216>:
    1152:	eb 00                	jmp    1154 <.label2217>

0000000000001154 <.label2217>:
    1154:	eb 00                	jmp    1156 <.label2218>

0000000000001156 <.label2218>:
    1156:	eb 00                	jmp    1158 <.label2219>

0000000000001158 <.label2219>:
    1158:	eb 00                	jmp    115a <.label2220>

000000000000115a <.label2220>:
    115a:	eb 00                	jmp    115c <.label2221>

000000000000115c <.label2221>:
    115c:	eb 00                	jmp    115e <.label2222>

000000000000115e <.label2222>:
    115e:	eb 00                	jmp    1160 <.label2223>

0000000000001160 <.label2223>:
    1160:	eb 00                	jmp    1162 <.label2224>

0000000000001162 <.label2224>:
    1162:	eb 00                	jmp    1164 <.label2225>

0000000000001164 <.label2225>:
    1164:	eb 00                	jmp    1166 <.label2226>

0000000000001166 <.label2226>:
    1166:	eb 00                	jmp    1168 <.label2227>

0000000000001168 <.label2227>:
    1168:	eb 00                	jmp    116a <.label2228>

000000000000116a <.label2228>:
    116a:	eb 00                	jmp    116c <.label2229>

000000000000116c <.label2229>:
    116c:	eb 00                	jmp    116e <.label2230>

000000000000116e <.label2230>:
    116e:	eb 00                	jmp    1170 <.label2231>

0000000000001170 <.label2231>:
    1170:	eb 00                	jmp    1172 <.label2232>

0000000000001172 <.label2232>:
    1172:	eb 00                	jmp    1174 <.label2233>

0000000000001174 <.label2233>:
    1174:	eb 00                	jmp    1176 <.label2234>

0000000000001176 <.label2234>:
    1176:	eb 00                	jmp    1178 <.label2235>

0000000000001178 <.label2235>:
    1178:	eb 00                	jmp    117a <.label2236>

000000000000117a <.label2236>:
    117a:	eb 00                	jmp    117c <.label2237>

000000000000117c <.label2237>:
    117c:	eb 00                	jmp    117e <.label2238>

000000000000117e <.label2238>:
    117e:	eb 00                	jmp    1180 <.label2239>

0000000000001180 <.label2239>:
    1180:	eb 00                	jmp    1182 <.label2240>

0000000000001182 <.label2240>:
    1182:	eb 00                	jmp    1184 <.label2241>

0000000000001184 <.label2241>:
    1184:	eb 00                	jmp    1186 <.label2242>

0000000000001186 <.label2242>:
    1186:	eb 00                	jmp    1188 <.label2243>

0000000000001188 <.label2243>:
    1188:	eb 00                	jmp    118a <.label2244>

000000000000118a <.label2244>:
    118a:	eb 00                	jmp    118c <.label2245>

000000000000118c <.label2245>:
    118c:	eb 00                	jmp    118e <.label2246>

000000000000118e <.label2246>:
    118e:	eb 00                	jmp    1190 <.label2247>

0000000000001190 <.label2247>:
    1190:	eb 00                	jmp    1192 <.label2248>

0000000000001192 <.label2248>:
    1192:	eb 00                	jmp    1194 <.label2249>

0000000000001194 <.label2249>:
    1194:	eb 00                	jmp    1196 <.label2250>

0000000000001196 <.label2250>:
    1196:	eb 00                	jmp    1198 <.label2251>

0000000000001198 <.label2251>:
    1198:	eb 00                	jmp    119a <.label2252>

000000000000119a <.label2252>:
    119a:	eb 00                	jmp    119c <.label2253>

000000000000119c <.label2253>:
    119c:	eb 00                	jmp    119e <.label2254>

000000000000119e <.label2254>:
    119e:	eb 00                	jmp    11a0 <.label2255>

00000000000011a0 <.label2255>:
    11a0:	eb 00                	jmp    11a2 <.label2256>

00000000000011a2 <.label2256>:
    11a2:	eb 00                	jmp    11a4 <.label2257>

00000000000011a4 <.label2257>:
    11a4:	eb 00                	jmp    11a6 <.label2258>

00000000000011a6 <.label2258>:
    11a6:	eb 00                	jmp    11a8 <.label2259>

00000000000011a8 <.label2259>:
    11a8:	eb 00                	jmp    11aa <.label2260>

00000000000011aa <.label2260>:
    11aa:	eb 00                	jmp    11ac <.label2261>

00000000000011ac <.label2261>:
    11ac:	eb 00                	jmp    11ae <.label2262>

00000000000011ae <.label2262>:
    11ae:	eb 00                	jmp    11b0 <.label2263>

00000000000011b0 <.label2263>:
    11b0:	eb 00                	jmp    11b2 <.label2264>

00000000000011b2 <.label2264>:
    11b2:	eb 00                	jmp    11b4 <.label2265>

00000000000011b4 <.label2265>:
    11b4:	eb 00                	jmp    11b6 <.label2266>

00000000000011b6 <.label2266>:
    11b6:	eb 00                	jmp    11b8 <.label2267>

00000000000011b8 <.label2267>:
    11b8:	eb 00                	jmp    11ba <.label2268>

00000000000011ba <.label2268>:
    11ba:	eb 00                	jmp    11bc <.label2269>

00000000000011bc <.label2269>:
    11bc:	eb 00                	jmp    11be <.label2270>

00000000000011be <.label2270>:
    11be:	eb 00                	jmp    11c0 <.label2271>

00000000000011c0 <.label2271>:
    11c0:	eb 00                	jmp    11c2 <.label2272>

00000000000011c2 <.label2272>:
    11c2:	eb 00                	jmp    11c4 <.label2273>

00000000000011c4 <.label2273>:
    11c4:	eb 00                	jmp    11c6 <.label2274>

00000000000011c6 <.label2274>:
    11c6:	eb 00                	jmp    11c8 <.label2275>

00000000000011c8 <.label2275>:
    11c8:	eb 00                	jmp    11ca <.label2276>

00000000000011ca <.label2276>:
    11ca:	eb 00                	jmp    11cc <.label2277>

00000000000011cc <.label2277>:
    11cc:	eb 00                	jmp    11ce <.label2278>

00000000000011ce <.label2278>:
    11ce:	eb 00                	jmp    11d0 <.label2279>

00000000000011d0 <.label2279>:
    11d0:	eb 00                	jmp    11d2 <.label2280>

00000000000011d2 <.label2280>:
    11d2:	eb 00                	jmp    11d4 <.label2281>

00000000000011d4 <.label2281>:
    11d4:	eb 00                	jmp    11d6 <.label2282>

00000000000011d6 <.label2282>:
    11d6:	eb 00                	jmp    11d8 <.label2283>

00000000000011d8 <.label2283>:
    11d8:	eb 00                	jmp    11da <.label2284>

00000000000011da <.label2284>:
    11da:	eb 00                	jmp    11dc <.label2285>

00000000000011dc <.label2285>:
    11dc:	eb 00                	jmp    11de <.label2286>

00000000000011de <.label2286>:
    11de:	eb 00                	jmp    11e0 <.label2287>

00000000000011e0 <.label2287>:
    11e0:	eb 00                	jmp    11e2 <.label2288>

00000000000011e2 <.label2288>:
    11e2:	eb 00                	jmp    11e4 <.label2289>

00000000000011e4 <.label2289>:
    11e4:	eb 00                	jmp    11e6 <.label2290>

00000000000011e6 <.label2290>:
    11e6:	eb 00                	jmp    11e8 <.label2291>

00000000000011e8 <.label2291>:
    11e8:	eb 00                	jmp    11ea <.label2292>

00000000000011ea <.label2292>:
    11ea:	eb 00                	jmp    11ec <.label2293>

00000000000011ec <.label2293>:
    11ec:	eb 00                	jmp    11ee <.label2294>

00000000000011ee <.label2294>:
    11ee:	eb 00                	jmp    11f0 <.label2295>

00000000000011f0 <.label2295>:
    11f0:	eb 00                	jmp    11f2 <.label2296>

00000000000011f2 <.label2296>:
    11f2:	eb 00                	jmp    11f4 <.label2297>

00000000000011f4 <.label2297>:
    11f4:	eb 00                	jmp    11f6 <.label2298>

00000000000011f6 <.label2298>:
    11f6:	eb 00                	jmp    11f8 <.label2299>

00000000000011f8 <.label2299>:
    11f8:	eb 00                	jmp    11fa <.label2300>

00000000000011fa <.label2300>:
    11fa:	eb 00                	jmp    11fc <.label2301>

00000000000011fc <.label2301>:
    11fc:	eb 00                	jmp    11fe <.label2302>

00000000000011fe <.label2302>:
    11fe:	eb 00                	jmp    1200 <.label2303>

0000000000001200 <.label2303>:
    1200:	eb 00                	jmp    1202 <.label2304>

0000000000001202 <.label2304>:
    1202:	eb 00                	jmp    1204 <.label2305>

0000000000001204 <.label2305>:
    1204:	eb 00                	jmp    1206 <.label2306>

0000000000001206 <.label2306>:
    1206:	eb 00                	jmp    1208 <.label2307>

0000000000001208 <.label2307>:
    1208:	eb 00                	jmp    120a <.label2308>

000000000000120a <.label2308>:
    120a:	eb 00                	jmp    120c <.label2309>

000000000000120c <.label2309>:
    120c:	eb 00                	jmp    120e <.label2310>

000000000000120e <.label2310>:
    120e:	eb 00                	jmp    1210 <.label2311>

0000000000001210 <.label2311>:
    1210:	eb 00                	jmp    1212 <.label2312>

0000000000001212 <.label2312>:
    1212:	eb 00                	jmp    1214 <.label2313>

0000000000001214 <.label2313>:
    1214:	eb 00                	jmp    1216 <.label2314>

0000000000001216 <.label2314>:
    1216:	eb 00                	jmp    1218 <.label2315>

0000000000001218 <.label2315>:
    1218:	eb 00                	jmp    121a <.label2316>

000000000000121a <.label2316>:
    121a:	eb 00                	jmp    121c <.label2317>

000000000000121c <.label2317>:
    121c:	eb 00                	jmp    121e <.label2318>

000000000000121e <.label2318>:
    121e:	eb 00                	jmp    1220 <.label2319>

0000000000001220 <.label2319>:
    1220:	eb 00                	jmp    1222 <.label2320>

0000000000001222 <.label2320>:
    1222:	eb 00                	jmp    1224 <.label2321>

0000000000001224 <.label2321>:
    1224:	eb 00                	jmp    1226 <.label2322>

0000000000001226 <.label2322>:
    1226:	eb 00                	jmp    1228 <.label2323>

0000000000001228 <.label2323>:
    1228:	eb 00                	jmp    122a <.label2324>

000000000000122a <.label2324>:
    122a:	eb 00                	jmp    122c <.label2325>

000000000000122c <.label2325>:
    122c:	eb 00                	jmp    122e <.label2326>

000000000000122e <.label2326>:
    122e:	eb 00                	jmp    1230 <.label2327>

0000000000001230 <.label2327>:
    1230:	eb 00                	jmp    1232 <.label2328>

0000000000001232 <.label2328>:
    1232:	eb 00                	jmp    1234 <.label2329>

0000000000001234 <.label2329>:
    1234:	eb 00                	jmp    1236 <.label2330>

0000000000001236 <.label2330>:
    1236:	eb 00                	jmp    1238 <.label2331>

0000000000001238 <.label2331>:
    1238:	eb 00                	jmp    123a <.label2332>

000000000000123a <.label2332>:
    123a:	eb 00                	jmp    123c <.label2333>

000000000000123c <.label2333>:
    123c:	eb 00                	jmp    123e <.label2334>

000000000000123e <.label2334>:
    123e:	eb 00                	jmp    1240 <.label2335>

0000000000001240 <.label2335>:
    1240:	eb 00                	jmp    1242 <.label2336>

0000000000001242 <.label2336>:
    1242:	eb 00                	jmp    1244 <.label2337>

0000000000001244 <.label2337>:
    1244:	eb 00                	jmp    1246 <.label2338>

0000000000001246 <.label2338>:
    1246:	eb 00                	jmp    1248 <.label2339>

0000000000001248 <.label2339>:
    1248:	eb 00                	jmp    124a <.label2340>

000000000000124a <.label2340>:
    124a:	eb 00                	jmp    124c <.label2341>

000000000000124c <.label2341>:
    124c:	eb 00                	jmp    124e <.label2342>

000000000000124e <.label2342>:
    124e:	eb 00                	jmp    1250 <.label2343>

0000000000001250 <.label2343>:
    1250:	eb 00                	jmp    1252 <.label2344>

0000000000001252 <.label2344>:
    1252:	eb 00                	jmp    1254 <.label2345>

0000000000001254 <.label2345>:
    1254:	eb 00                	jmp    1256 <.label2346>

0000000000001256 <.label2346>:
    1256:	eb 00                	jmp    1258 <.label2347>

0000000000001258 <.label2347>:
    1258:	eb 00                	jmp    125a <.label2348>

000000000000125a <.label2348>:
    125a:	eb 00                	jmp    125c <.label2349>

000000000000125c <.label2349>:
    125c:	eb 00                	jmp    125e <.label2350>

000000000000125e <.label2350>:
    125e:	eb 00                	jmp    1260 <.label2351>

0000000000001260 <.label2351>:
    1260:	eb 00                	jmp    1262 <.label2352>

0000000000001262 <.label2352>:
    1262:	eb 00                	jmp    1264 <.label2353>

0000000000001264 <.label2353>:
    1264:	eb 00                	jmp    1266 <.label2354>

0000000000001266 <.label2354>:
    1266:	eb 00                	jmp    1268 <.label2355>

0000000000001268 <.label2355>:
    1268:	eb 00                	jmp    126a <.label2356>

000000000000126a <.label2356>:
    126a:	eb 00                	jmp    126c <.label2357>

000000000000126c <.label2357>:
    126c:	eb 00                	jmp    126e <.label2358>

000000000000126e <.label2358>:
    126e:	eb 00                	jmp    1270 <.label2359>

0000000000001270 <.label2359>:
    1270:	eb 00                	jmp    1272 <.label2360>

0000000000001272 <.label2360>:
    1272:	eb 00                	jmp    1274 <.label2361>

0000000000001274 <.label2361>:
    1274:	eb 00                	jmp    1276 <.label2362>

0000000000001276 <.label2362>:
    1276:	eb 00                	jmp    1278 <.label2363>

0000000000001278 <.label2363>:
    1278:	eb 00                	jmp    127a <.label2364>

000000000000127a <.label2364>:
    127a:	eb 00                	jmp    127c <.label2365>

000000000000127c <.label2365>:
    127c:	eb 00                	jmp    127e <.label2366>

000000000000127e <.label2366>:
    127e:	eb 00                	jmp    1280 <.label2367>

0000000000001280 <.label2367>:
    1280:	eb 00                	jmp    1282 <.label2368>

0000000000001282 <.label2368>:
    1282:	eb 00                	jmp    1284 <.label2369>

0000000000001284 <.label2369>:
    1284:	eb 00                	jmp    1286 <.label2370>

0000000000001286 <.label2370>:
    1286:	eb 00                	jmp    1288 <.label2371>

0000000000001288 <.label2371>:
    1288:	eb 00                	jmp    128a <.label2372>

000000000000128a <.label2372>:
    128a:	eb 00                	jmp    128c <.label2373>

000000000000128c <.label2373>:
    128c:	eb 00                	jmp    128e <.label2374>

000000000000128e <.label2374>:
    128e:	eb 00                	jmp    1290 <.label2375>

0000000000001290 <.label2375>:
    1290:	eb 00                	jmp    1292 <.label2376>

0000000000001292 <.label2376>:
    1292:	eb 00                	jmp    1294 <.label2377>

0000000000001294 <.label2377>:
    1294:	eb 00                	jmp    1296 <.label2378>

0000000000001296 <.label2378>:
    1296:	eb 00                	jmp    1298 <.label2379>

0000000000001298 <.label2379>:
    1298:	eb 00                	jmp    129a <.label2380>

000000000000129a <.label2380>:
    129a:	eb 00                	jmp    129c <.label2381>

000000000000129c <.label2381>:
    129c:	eb 00                	jmp    129e <.label2382>

000000000000129e <.label2382>:
    129e:	eb 00                	jmp    12a0 <.label2383>

00000000000012a0 <.label2383>:
    12a0:	eb 00                	jmp    12a2 <.label2384>

00000000000012a2 <.label2384>:
    12a2:	eb 00                	jmp    12a4 <.label2385>

00000000000012a4 <.label2385>:
    12a4:	eb 00                	jmp    12a6 <.label2386>

00000000000012a6 <.label2386>:
    12a6:	eb 00                	jmp    12a8 <.label2387>

00000000000012a8 <.label2387>:
    12a8:	eb 00                	jmp    12aa <.label2388>

00000000000012aa <.label2388>:
    12aa:	eb 00                	jmp    12ac <.label2389>

00000000000012ac <.label2389>:
    12ac:	eb 00                	jmp    12ae <.label2390>

00000000000012ae <.label2390>:
    12ae:	eb 00                	jmp    12b0 <.label2391>

00000000000012b0 <.label2391>:
    12b0:	eb 00                	jmp    12b2 <.label2392>

00000000000012b2 <.label2392>:
    12b2:	eb 00                	jmp    12b4 <.label2393>

00000000000012b4 <.label2393>:
    12b4:	eb 00                	jmp    12b6 <.label2394>

00000000000012b6 <.label2394>:
    12b6:	eb 00                	jmp    12b8 <.label2395>

00000000000012b8 <.label2395>:
    12b8:	eb 00                	jmp    12ba <.label2396>

00000000000012ba <.label2396>:
    12ba:	eb 00                	jmp    12bc <.label2397>

00000000000012bc <.label2397>:
    12bc:	eb 00                	jmp    12be <.label2398>

00000000000012be <.label2398>:
    12be:	eb 00                	jmp    12c0 <.label2399>

00000000000012c0 <.label2399>:
    12c0:	eb 00                	jmp    12c2 <.label2400>

00000000000012c2 <.label2400>:
    12c2:	eb 00                	jmp    12c4 <.label2401>

00000000000012c4 <.label2401>:
    12c4:	eb 00                	jmp    12c6 <.label2402>

00000000000012c6 <.label2402>:
    12c6:	eb 00                	jmp    12c8 <.label2403>

00000000000012c8 <.label2403>:
    12c8:	eb 00                	jmp    12ca <.label2404>

00000000000012ca <.label2404>:
    12ca:	eb 00                	jmp    12cc <.label2405>

00000000000012cc <.label2405>:
    12cc:	eb 00                	jmp    12ce <.label2406>

00000000000012ce <.label2406>:
    12ce:	eb 00                	jmp    12d0 <.label2407>

00000000000012d0 <.label2407>:
    12d0:	eb 00                	jmp    12d2 <.label2408>

00000000000012d2 <.label2408>:
    12d2:	eb 00                	jmp    12d4 <.label2409>

00000000000012d4 <.label2409>:
    12d4:	eb 00                	jmp    12d6 <.label2410>

00000000000012d6 <.label2410>:
    12d6:	eb 00                	jmp    12d8 <.label2411>

00000000000012d8 <.label2411>:
    12d8:	eb 00                	jmp    12da <.label2412>

00000000000012da <.label2412>:
    12da:	eb 00                	jmp    12dc <.label2413>

00000000000012dc <.label2413>:
    12dc:	eb 00                	jmp    12de <.label2414>

00000000000012de <.label2414>:
    12de:	eb 00                	jmp    12e0 <.label2415>

00000000000012e0 <.label2415>:
    12e0:	eb 00                	jmp    12e2 <.label2416>

00000000000012e2 <.label2416>:
    12e2:	eb 00                	jmp    12e4 <.label2417>

00000000000012e4 <.label2417>:
    12e4:	eb 00                	jmp    12e6 <.label2418>

00000000000012e6 <.label2418>:
    12e6:	eb 00                	jmp    12e8 <.label2419>

00000000000012e8 <.label2419>:
    12e8:	eb 00                	jmp    12ea <.label2420>

00000000000012ea <.label2420>:
    12ea:	eb 00                	jmp    12ec <.label2421>

00000000000012ec <.label2421>:
    12ec:	eb 00                	jmp    12ee <.label2422>

00000000000012ee <.label2422>:
    12ee:	eb 00                	jmp    12f0 <.label2423>

00000000000012f0 <.label2423>:
    12f0:	eb 00                	jmp    12f2 <.label2424>

00000000000012f2 <.label2424>:
    12f2:	eb 00                	jmp    12f4 <.label2425>

00000000000012f4 <.label2425>:
    12f4:	eb 00                	jmp    12f6 <.label2426>

00000000000012f6 <.label2426>:
    12f6:	eb 00                	jmp    12f8 <.label2427>

00000000000012f8 <.label2427>:
    12f8:	eb 00                	jmp    12fa <.label2428>

00000000000012fa <.label2428>:
    12fa:	eb 00                	jmp    12fc <.label2429>

00000000000012fc <.label2429>:
    12fc:	eb 00                	jmp    12fe <.label2430>

00000000000012fe <.label2430>:
    12fe:	eb 00                	jmp    1300 <.label2431>

0000000000001300 <.label2431>:
    1300:	eb 00                	jmp    1302 <.label2432>

0000000000001302 <.label2432>:
    1302:	eb 00                	jmp    1304 <.label2433>

0000000000001304 <.label2433>:
    1304:	eb 00                	jmp    1306 <.label2434>

0000000000001306 <.label2434>:
    1306:	eb 00                	jmp    1308 <.label2435>

0000000000001308 <.label2435>:
    1308:	eb 00                	jmp    130a <.label2436>

000000000000130a <.label2436>:
    130a:	eb 00                	jmp    130c <.label2437>

000000000000130c <.label2437>:
    130c:	eb 00                	jmp    130e <.label2438>

000000000000130e <.label2438>:
    130e:	eb 00                	jmp    1310 <.label2439>

0000000000001310 <.label2439>:
    1310:	eb 00                	jmp    1312 <.label2440>

0000000000001312 <.label2440>:
    1312:	eb 00                	jmp    1314 <.label2441>

0000000000001314 <.label2441>:
    1314:	eb 00                	jmp    1316 <.label2442>

0000000000001316 <.label2442>:
    1316:	eb 00                	jmp    1318 <.label2443>

0000000000001318 <.label2443>:
    1318:	eb 00                	jmp    131a <.label2444>

000000000000131a <.label2444>:
    131a:	eb 00                	jmp    131c <.label2445>

000000000000131c <.label2445>:
    131c:	eb 00                	jmp    131e <.label2446>

000000000000131e <.label2446>:
    131e:	eb 00                	jmp    1320 <.label2447>

0000000000001320 <.label2447>:
    1320:	eb 00                	jmp    1322 <.label2448>

0000000000001322 <.label2448>:
    1322:	eb 00                	jmp    1324 <.label2449>

0000000000001324 <.label2449>:
    1324:	eb 00                	jmp    1326 <.label2450>

0000000000001326 <.label2450>:
    1326:	eb 00                	jmp    1328 <.label2451>

0000000000001328 <.label2451>:
    1328:	eb 00                	jmp    132a <.label2452>

000000000000132a <.label2452>:
    132a:	eb 00                	jmp    132c <.label2453>

000000000000132c <.label2453>:
    132c:	eb 00                	jmp    132e <.label2454>

000000000000132e <.label2454>:
    132e:	eb 00                	jmp    1330 <.label2455>

0000000000001330 <.label2455>:
    1330:	eb 00                	jmp    1332 <.label2456>

0000000000001332 <.label2456>:
    1332:	eb 00                	jmp    1334 <.label2457>

0000000000001334 <.label2457>:
    1334:	eb 00                	jmp    1336 <.label2458>

0000000000001336 <.label2458>:
    1336:	eb 00                	jmp    1338 <.label2459>

0000000000001338 <.label2459>:
    1338:	eb 00                	jmp    133a <.label2460>

000000000000133a <.label2460>:
    133a:	eb 00                	jmp    133c <.label2461>

000000000000133c <.label2461>:
    133c:	eb 00                	jmp    133e <.label2462>

000000000000133e <.label2462>:
    133e:	eb 00                	jmp    1340 <.label2463>

0000000000001340 <.label2463>:
    1340:	eb 00                	jmp    1342 <.label2464>

0000000000001342 <.label2464>:
    1342:	eb 00                	jmp    1344 <.label2465>

0000000000001344 <.label2465>:
    1344:	eb 00                	jmp    1346 <.label2466>

0000000000001346 <.label2466>:
    1346:	eb 00                	jmp    1348 <.label2467>

0000000000001348 <.label2467>:
    1348:	eb 00                	jmp    134a <.label2468>

000000000000134a <.label2468>:
    134a:	eb 00                	jmp    134c <.label2469>

000000000000134c <.label2469>:
    134c:	eb 00                	jmp    134e <.label2470>

000000000000134e <.label2470>:
    134e:	eb 00                	jmp    1350 <.label2471>

0000000000001350 <.label2471>:
    1350:	eb 00                	jmp    1352 <.label2472>

0000000000001352 <.label2472>:
    1352:	eb 00                	jmp    1354 <.label2473>

0000000000001354 <.label2473>:
    1354:	eb 00                	jmp    1356 <.label2474>

0000000000001356 <.label2474>:
    1356:	eb 00                	jmp    1358 <.label2475>

0000000000001358 <.label2475>:
    1358:	eb 00                	jmp    135a <.label2476>

000000000000135a <.label2476>:
    135a:	eb 00                	jmp    135c <.label2477>

000000000000135c <.label2477>:
    135c:	eb 00                	jmp    135e <.label2478>

000000000000135e <.label2478>:
    135e:	eb 00                	jmp    1360 <.label2479>

0000000000001360 <.label2479>:
    1360:	eb 00                	jmp    1362 <.label2480>

0000000000001362 <.label2480>:
    1362:	eb 00                	jmp    1364 <.label2481>

0000000000001364 <.label2481>:
    1364:	eb 00                	jmp    1366 <.label2482>

0000000000001366 <.label2482>:
    1366:	eb 00                	jmp    1368 <.label2483>

0000000000001368 <.label2483>:
    1368:	eb 00                	jmp    136a <.label2484>

000000000000136a <.label2484>:
    136a:	eb 00                	jmp    136c <.label2485>

000000000000136c <.label2485>:
    136c:	eb 00                	jmp    136e <.label2486>

000000000000136e <.label2486>:
    136e:	eb 00                	jmp    1370 <.label2487>

0000000000001370 <.label2487>:
    1370:	eb 00                	jmp    1372 <.label2488>

0000000000001372 <.label2488>:
    1372:	eb 00                	jmp    1374 <.label2489>

0000000000001374 <.label2489>:
    1374:	eb 00                	jmp    1376 <.label2490>

0000000000001376 <.label2490>:
    1376:	eb 00                	jmp    1378 <.label2491>

0000000000001378 <.label2491>:
    1378:	eb 00                	jmp    137a <.label2492>

000000000000137a <.label2492>:
    137a:	eb 00                	jmp    137c <.label2493>

000000000000137c <.label2493>:
    137c:	eb 00                	jmp    137e <.label2494>

000000000000137e <.label2494>:
    137e:	eb 00                	jmp    1380 <.label2495>

0000000000001380 <.label2495>:
    1380:	eb 00                	jmp    1382 <.label2496>

0000000000001382 <.label2496>:
    1382:	eb 00                	jmp    1384 <.label2497>

0000000000001384 <.label2497>:
    1384:	eb 00                	jmp    1386 <.label2498>

0000000000001386 <.label2498>:
    1386:	eb 00                	jmp    1388 <.label2499>

0000000000001388 <.label2499>:
    1388:	eb 00                	jmp    138a <.label2500>

000000000000138a <.label2500>:
    138a:	eb 00                	jmp    138c <.label2501>

000000000000138c <.label2501>:
    138c:	eb 00                	jmp    138e <.label2502>

000000000000138e <.label2502>:
    138e:	eb 00                	jmp    1390 <.label2503>

0000000000001390 <.label2503>:
    1390:	eb 00                	jmp    1392 <.label2504>

0000000000001392 <.label2504>:
    1392:	eb 00                	jmp    1394 <.label2505>

0000000000001394 <.label2505>:
    1394:	eb 00                	jmp    1396 <.label2506>

0000000000001396 <.label2506>:
    1396:	eb 00                	jmp    1398 <.label2507>

0000000000001398 <.label2507>:
    1398:	eb 00                	jmp    139a <.label2508>

000000000000139a <.label2508>:
    139a:	eb 00                	jmp    139c <.label2509>

000000000000139c <.label2509>:
    139c:	eb 00                	jmp    139e <.label2510>

000000000000139e <.label2510>:
    139e:	eb 00                	jmp    13a0 <.label2511>

00000000000013a0 <.label2511>:
    13a0:	eb 00                	jmp    13a2 <.label2512>

00000000000013a2 <.label2512>:
    13a2:	eb 00                	jmp    13a4 <.label2513>

00000000000013a4 <.label2513>:
    13a4:	eb 00                	jmp    13a6 <.label2514>

00000000000013a6 <.label2514>:
    13a6:	eb 00                	jmp    13a8 <.label2515>

00000000000013a8 <.label2515>:
    13a8:	eb 00                	jmp    13aa <.label2516>

00000000000013aa <.label2516>:
    13aa:	eb 00                	jmp    13ac <.label2517>

00000000000013ac <.label2517>:
    13ac:	eb 00                	jmp    13ae <.label2518>

00000000000013ae <.label2518>:
    13ae:	eb 00                	jmp    13b0 <.label2519>

00000000000013b0 <.label2519>:
    13b0:	eb 00                	jmp    13b2 <.label2520>

00000000000013b2 <.label2520>:
    13b2:	eb 00                	jmp    13b4 <.label2521>

00000000000013b4 <.label2521>:
    13b4:	eb 00                	jmp    13b6 <.label2522>

00000000000013b6 <.label2522>:
    13b6:	eb 00                	jmp    13b8 <.label2523>

00000000000013b8 <.label2523>:
    13b8:	eb 00                	jmp    13ba <.label2524>

00000000000013ba <.label2524>:
    13ba:	eb 00                	jmp    13bc <.label2525>

00000000000013bc <.label2525>:
    13bc:	eb 00                	jmp    13be <.label2526>

00000000000013be <.label2526>:
    13be:	eb 00                	jmp    13c0 <.label2527>

00000000000013c0 <.label2527>:
    13c0:	eb 00                	jmp    13c2 <.label2528>

00000000000013c2 <.label2528>:
    13c2:	eb 00                	jmp    13c4 <.label2529>

00000000000013c4 <.label2529>:
    13c4:	eb 00                	jmp    13c6 <.label2530>

00000000000013c6 <.label2530>:
    13c6:	eb 00                	jmp    13c8 <.label2531>

00000000000013c8 <.label2531>:
    13c8:	eb 00                	jmp    13ca <.label2532>

00000000000013ca <.label2532>:
    13ca:	eb 00                	jmp    13cc <.label2533>

00000000000013cc <.label2533>:
    13cc:	eb 00                	jmp    13ce <.label2534>

00000000000013ce <.label2534>:
    13ce:	eb 00                	jmp    13d0 <.label2535>

00000000000013d0 <.label2535>:
    13d0:	eb 00                	jmp    13d2 <.label2536>

00000000000013d2 <.label2536>:
    13d2:	eb 00                	jmp    13d4 <.label2537>

00000000000013d4 <.label2537>:
    13d4:	eb 00                	jmp    13d6 <.label2538>

00000000000013d6 <.label2538>:
    13d6:	eb 00                	jmp    13d8 <.label2539>

00000000000013d8 <.label2539>:
    13d8:	eb 00                	jmp    13da <.label2540>

00000000000013da <.label2540>:
    13da:	eb 00                	jmp    13dc <.label2541>

00000000000013dc <.label2541>:
    13dc:	eb 00                	jmp    13de <.label2542>

00000000000013de <.label2542>:
    13de:	eb 00                	jmp    13e0 <.label2543>

00000000000013e0 <.label2543>:
    13e0:	eb 00                	jmp    13e2 <.label2544>

00000000000013e2 <.label2544>:
    13e2:	eb 00                	jmp    13e4 <.label2545>

00000000000013e4 <.label2545>:
    13e4:	eb 00                	jmp    13e6 <.label2546>

00000000000013e6 <.label2546>:
    13e6:	eb 00                	jmp    13e8 <.label2547>

00000000000013e8 <.label2547>:
    13e8:	eb 00                	jmp    13ea <.label2548>

00000000000013ea <.label2548>:
    13ea:	eb 00                	jmp    13ec <.label2549>

00000000000013ec <.label2549>:
    13ec:	eb 00                	jmp    13ee <.label2550>

00000000000013ee <.label2550>:
    13ee:	eb 00                	jmp    13f0 <.label2551>

00000000000013f0 <.label2551>:
    13f0:	eb 00                	jmp    13f2 <.label2552>

00000000000013f2 <.label2552>:
    13f2:	eb 00                	jmp    13f4 <.label2553>

00000000000013f4 <.label2553>:
    13f4:	eb 00                	jmp    13f6 <.label2554>

00000000000013f6 <.label2554>:
    13f6:	eb 00                	jmp    13f8 <.label2555>

00000000000013f8 <.label2555>:
    13f8:	eb 00                	jmp    13fa <.label2556>

00000000000013fa <.label2556>:
    13fa:	eb 00                	jmp    13fc <.label2557>

00000000000013fc <.label2557>:
    13fc:	eb 00                	jmp    13fe <.label2558>

00000000000013fe <.label2558>:
    13fe:	eb 00                	jmp    1400 <.label2559>

0000000000001400 <.label2559>:
    1400:	eb 00                	jmp    1402 <.label2560>

0000000000001402 <.label2560>:
    1402:	eb 00                	jmp    1404 <.label2561>

0000000000001404 <.label2561>:
    1404:	eb 00                	jmp    1406 <.label2562>

0000000000001406 <.label2562>:
    1406:	eb 00                	jmp    1408 <.label2563>

0000000000001408 <.label2563>:
    1408:	eb 00                	jmp    140a <.label2564>

000000000000140a <.label2564>:
    140a:	eb 00                	jmp    140c <.label2565>

000000000000140c <.label2565>:
    140c:	eb 00                	jmp    140e <.label2566>

000000000000140e <.label2566>:
    140e:	eb 00                	jmp    1410 <.label2567>

0000000000001410 <.label2567>:
    1410:	eb 00                	jmp    1412 <.label2568>

0000000000001412 <.label2568>:
    1412:	eb 00                	jmp    1414 <.label2569>

0000000000001414 <.label2569>:
    1414:	eb 00                	jmp    1416 <.label2570>

0000000000001416 <.label2570>:
    1416:	eb 00                	jmp    1418 <.label2571>

0000000000001418 <.label2571>:
    1418:	eb 00                	jmp    141a <.label2572>

000000000000141a <.label2572>:
    141a:	eb 00                	jmp    141c <.label2573>

000000000000141c <.label2573>:
    141c:	eb 00                	jmp    141e <.label2574>

000000000000141e <.label2574>:
    141e:	eb 00                	jmp    1420 <.label2575>

0000000000001420 <.label2575>:
    1420:	eb 00                	jmp    1422 <.label2576>

0000000000001422 <.label2576>:
    1422:	eb 00                	jmp    1424 <.label2577>

0000000000001424 <.label2577>:
    1424:	eb 00                	jmp    1426 <.label2578>

0000000000001426 <.label2578>:
    1426:	eb 00                	jmp    1428 <.label2579>

0000000000001428 <.label2579>:
    1428:	eb 00                	jmp    142a <.label2580>

000000000000142a <.label2580>:
    142a:	eb 00                	jmp    142c <.label2581>

000000000000142c <.label2581>:
    142c:	eb 00                	jmp    142e <.label2582>

000000000000142e <.label2582>:
    142e:	eb 00                	jmp    1430 <.label2583>

0000000000001430 <.label2583>:
    1430:	eb 00                	jmp    1432 <.label2584>

0000000000001432 <.label2584>:
    1432:	eb 00                	jmp    1434 <.label2585>

0000000000001434 <.label2585>:
    1434:	eb 00                	jmp    1436 <.label2586>

0000000000001436 <.label2586>:
    1436:	eb 00                	jmp    1438 <.label2587>

0000000000001438 <.label2587>:
    1438:	eb 00                	jmp    143a <.label2588>

000000000000143a <.label2588>:
    143a:	eb 00                	jmp    143c <.label2589>

000000000000143c <.label2589>:
    143c:	eb 00                	jmp    143e <.label2590>

000000000000143e <.label2590>:
    143e:	eb 00                	jmp    1440 <.label2591>

0000000000001440 <.label2591>:
    1440:	eb 00                	jmp    1442 <.label2592>

0000000000001442 <.label2592>:
    1442:	eb 00                	jmp    1444 <.label2593>

0000000000001444 <.label2593>:
    1444:	eb 00                	jmp    1446 <.label2594>

0000000000001446 <.label2594>:
    1446:	eb 00                	jmp    1448 <.label2595>

0000000000001448 <.label2595>:
    1448:	eb 00                	jmp    144a <.label2596>

000000000000144a <.label2596>:
    144a:	eb 00                	jmp    144c <.label2597>

000000000000144c <.label2597>:
    144c:	eb 00                	jmp    144e <.label2598>

000000000000144e <.label2598>:
    144e:	eb 00                	jmp    1450 <.label2599>

0000000000001450 <.label2599>:
    1450:	eb 00                	jmp    1452 <.label2600>

0000000000001452 <.label2600>:
    1452:	eb 00                	jmp    1454 <.label2601>

0000000000001454 <.label2601>:
    1454:	eb 00                	jmp    1456 <.label2602>

0000000000001456 <.label2602>:
    1456:	eb 00                	jmp    1458 <.label2603>

0000000000001458 <.label2603>:
    1458:	eb 00                	jmp    145a <.label2604>

000000000000145a <.label2604>:
    145a:	eb 00                	jmp    145c <.label2605>

000000000000145c <.label2605>:
    145c:	eb 00                	jmp    145e <.label2606>

000000000000145e <.label2606>:
    145e:	eb 00                	jmp    1460 <.label2607>

0000000000001460 <.label2607>:
    1460:	eb 00                	jmp    1462 <.label2608>

0000000000001462 <.label2608>:
    1462:	eb 00                	jmp    1464 <.label2609>

0000000000001464 <.label2609>:
    1464:	eb 00                	jmp    1466 <.label2610>

0000000000001466 <.label2610>:
    1466:	eb 00                	jmp    1468 <.label2611>

0000000000001468 <.label2611>:
    1468:	eb 00                	jmp    146a <.label2612>

000000000000146a <.label2612>:
    146a:	eb 00                	jmp    146c <.label2613>

000000000000146c <.label2613>:
    146c:	eb 00                	jmp    146e <.label2614>

000000000000146e <.label2614>:
    146e:	eb 00                	jmp    1470 <.label2615>

0000000000001470 <.label2615>:
    1470:	eb 00                	jmp    1472 <.label2616>

0000000000001472 <.label2616>:
    1472:	eb 00                	jmp    1474 <.label2617>

0000000000001474 <.label2617>:
    1474:	eb 00                	jmp    1476 <.label2618>

0000000000001476 <.label2618>:
    1476:	eb 00                	jmp    1478 <.label2619>

0000000000001478 <.label2619>:
    1478:	eb 00                	jmp    147a <.label2620>

000000000000147a <.label2620>:
    147a:	eb 00                	jmp    147c <.label2621>

000000000000147c <.label2621>:
    147c:	eb 00                	jmp    147e <.label2622>

000000000000147e <.label2622>:
    147e:	eb 00                	jmp    1480 <.label2623>

0000000000001480 <.label2623>:
    1480:	eb 00                	jmp    1482 <.label2624>

0000000000001482 <.label2624>:
    1482:	eb 00                	jmp    1484 <.label2625>

0000000000001484 <.label2625>:
    1484:	eb 00                	jmp    1486 <.label2626>

0000000000001486 <.label2626>:
    1486:	eb 00                	jmp    1488 <.label2627>

0000000000001488 <.label2627>:
    1488:	eb 00                	jmp    148a <.label2628>

000000000000148a <.label2628>:
    148a:	eb 00                	jmp    148c <.label2629>

000000000000148c <.label2629>:
    148c:	eb 00                	jmp    148e <.label2630>

000000000000148e <.label2630>:
    148e:	eb 00                	jmp    1490 <.label2631>

0000000000001490 <.label2631>:
    1490:	eb 00                	jmp    1492 <.label2632>

0000000000001492 <.label2632>:
    1492:	eb 00                	jmp    1494 <.label2633>

0000000000001494 <.label2633>:
    1494:	eb 00                	jmp    1496 <.label2634>

0000000000001496 <.label2634>:
    1496:	eb 00                	jmp    1498 <.label2635>

0000000000001498 <.label2635>:
    1498:	eb 00                	jmp    149a <.label2636>

000000000000149a <.label2636>:
    149a:	eb 00                	jmp    149c <.label2637>

000000000000149c <.label2637>:
    149c:	eb 00                	jmp    149e <.label2638>

000000000000149e <.label2638>:
    149e:	eb 00                	jmp    14a0 <.label2639>

00000000000014a0 <.label2639>:
    14a0:	eb 00                	jmp    14a2 <.label2640>

00000000000014a2 <.label2640>:
    14a2:	eb 00                	jmp    14a4 <.label2641>

00000000000014a4 <.label2641>:
    14a4:	eb 00                	jmp    14a6 <.label2642>

00000000000014a6 <.label2642>:
    14a6:	eb 00                	jmp    14a8 <.label2643>

00000000000014a8 <.label2643>:
    14a8:	eb 00                	jmp    14aa <.label2644>

00000000000014aa <.label2644>:
    14aa:	eb 00                	jmp    14ac <.label2645>

00000000000014ac <.label2645>:
    14ac:	eb 00                	jmp    14ae <.label2646>

00000000000014ae <.label2646>:
    14ae:	eb 00                	jmp    14b0 <.label2647>

00000000000014b0 <.label2647>:
    14b0:	eb 00                	jmp    14b2 <.label2648>

00000000000014b2 <.label2648>:
    14b2:	eb 00                	jmp    14b4 <.label2649>

00000000000014b4 <.label2649>:
    14b4:	eb 00                	jmp    14b6 <.label2650>

00000000000014b6 <.label2650>:
    14b6:	eb 00                	jmp    14b8 <.label2651>

00000000000014b8 <.label2651>:
    14b8:	eb 00                	jmp    14ba <.label2652>

00000000000014ba <.label2652>:
    14ba:	eb 00                	jmp    14bc <.label2653>

00000000000014bc <.label2653>:
    14bc:	eb 00                	jmp    14be <.label2654>

00000000000014be <.label2654>:
    14be:	eb 00                	jmp    14c0 <.label2655>

00000000000014c0 <.label2655>:
    14c0:	eb 00                	jmp    14c2 <.label2656>

00000000000014c2 <.label2656>:
    14c2:	eb 00                	jmp    14c4 <.label2657>

00000000000014c4 <.label2657>:
    14c4:	eb 00                	jmp    14c6 <.label2658>

00000000000014c6 <.label2658>:
    14c6:	eb 00                	jmp    14c8 <.label2659>

00000000000014c8 <.label2659>:
    14c8:	eb 00                	jmp    14ca <.label2660>

00000000000014ca <.label2660>:
    14ca:	eb 00                	jmp    14cc <.label2661>

00000000000014cc <.label2661>:
    14cc:	eb 00                	jmp    14ce <.label2662>

00000000000014ce <.label2662>:
    14ce:	eb 00                	jmp    14d0 <.label2663>

00000000000014d0 <.label2663>:
    14d0:	eb 00                	jmp    14d2 <.label2664>

00000000000014d2 <.label2664>:
    14d2:	eb 00                	jmp    14d4 <.label2665>

00000000000014d4 <.label2665>:
    14d4:	eb 00                	jmp    14d6 <.label2666>

00000000000014d6 <.label2666>:
    14d6:	eb 00                	jmp    14d8 <.label2667>

00000000000014d8 <.label2667>:
    14d8:	eb 00                	jmp    14da <.label2668>

00000000000014da <.label2668>:
    14da:	eb 00                	jmp    14dc <.label2669>

00000000000014dc <.label2669>:
    14dc:	eb 00                	jmp    14de <.label2670>

00000000000014de <.label2670>:
    14de:	eb 00                	jmp    14e0 <.label2671>

00000000000014e0 <.label2671>:
    14e0:	eb 00                	jmp    14e2 <.label2672>

00000000000014e2 <.label2672>:
    14e2:	eb 00                	jmp    14e4 <.label2673>

00000000000014e4 <.label2673>:
    14e4:	eb 00                	jmp    14e6 <.label2674>

00000000000014e6 <.label2674>:
    14e6:	eb 00                	jmp    14e8 <.label2675>

00000000000014e8 <.label2675>:
    14e8:	eb 00                	jmp    14ea <.label2676>

00000000000014ea <.label2676>:
    14ea:	eb 00                	jmp    14ec <.label2677>

00000000000014ec <.label2677>:
    14ec:	eb 00                	jmp    14ee <.label2678>

00000000000014ee <.label2678>:
    14ee:	eb 00                	jmp    14f0 <.label2679>

00000000000014f0 <.label2679>:
    14f0:	eb 00                	jmp    14f2 <.label2680>

00000000000014f2 <.label2680>:
    14f2:	eb 00                	jmp    14f4 <.label2681>

00000000000014f4 <.label2681>:
    14f4:	eb 00                	jmp    14f6 <.label2682>

00000000000014f6 <.label2682>:
    14f6:	eb 00                	jmp    14f8 <.label2683>

00000000000014f8 <.label2683>:
    14f8:	eb 00                	jmp    14fa <.label2684>

00000000000014fa <.label2684>:
    14fa:	eb 00                	jmp    14fc <.label2685>

00000000000014fc <.label2685>:
    14fc:	eb 00                	jmp    14fe <.label2686>

00000000000014fe <.label2686>:
    14fe:	eb 00                	jmp    1500 <.label2687>

0000000000001500 <.label2687>:
    1500:	eb 00                	jmp    1502 <.label2688>

0000000000001502 <.label2688>:
    1502:	eb 00                	jmp    1504 <.label2689>

0000000000001504 <.label2689>:
    1504:	eb 00                	jmp    1506 <.label2690>

0000000000001506 <.label2690>:
    1506:	eb 00                	jmp    1508 <.label2691>

0000000000001508 <.label2691>:
    1508:	eb 00                	jmp    150a <.label2692>

000000000000150a <.label2692>:
    150a:	eb 00                	jmp    150c <.label2693>

000000000000150c <.label2693>:
    150c:	eb 00                	jmp    150e <.label2694>

000000000000150e <.label2694>:
    150e:	eb 00                	jmp    1510 <.label2695>

0000000000001510 <.label2695>:
    1510:	eb 00                	jmp    1512 <.label2696>

0000000000001512 <.label2696>:
    1512:	eb 00                	jmp    1514 <.label2697>

0000000000001514 <.label2697>:
    1514:	eb 00                	jmp    1516 <.label2698>

0000000000001516 <.label2698>:
    1516:	eb 00                	jmp    1518 <.label2699>

0000000000001518 <.label2699>:
    1518:	eb 00                	jmp    151a <.label2700>

000000000000151a <.label2700>:
    151a:	eb 00                	jmp    151c <.label2701>

000000000000151c <.label2701>:
    151c:	eb 00                	jmp    151e <.label2702>

000000000000151e <.label2702>:
    151e:	eb 00                	jmp    1520 <.label2703>

0000000000001520 <.label2703>:
    1520:	eb 00                	jmp    1522 <.label2704>

0000000000001522 <.label2704>:
    1522:	eb 00                	jmp    1524 <.label2705>

0000000000001524 <.label2705>:
    1524:	eb 00                	jmp    1526 <.label2706>

0000000000001526 <.label2706>:
    1526:	eb 00                	jmp    1528 <.label2707>

0000000000001528 <.label2707>:
    1528:	eb 00                	jmp    152a <.label2708>

000000000000152a <.label2708>:
    152a:	eb 00                	jmp    152c <.label2709>

000000000000152c <.label2709>:
    152c:	eb 00                	jmp    152e <.label2710>

000000000000152e <.label2710>:
    152e:	eb 00                	jmp    1530 <.label2711>

0000000000001530 <.label2711>:
    1530:	eb 00                	jmp    1532 <.label2712>

0000000000001532 <.label2712>:
    1532:	eb 00                	jmp    1534 <.label2713>

0000000000001534 <.label2713>:
    1534:	eb 00                	jmp    1536 <.label2714>

0000000000001536 <.label2714>:
    1536:	eb 00                	jmp    1538 <.label2715>

0000000000001538 <.label2715>:
    1538:	eb 00                	jmp    153a <.label2716>

000000000000153a <.label2716>:
    153a:	eb 00                	jmp    153c <.label2717>

000000000000153c <.label2717>:
    153c:	eb 00                	jmp    153e <.label2718>

000000000000153e <.label2718>:
    153e:	eb 00                	jmp    1540 <.label2719>

0000000000001540 <.label2719>:
    1540:	eb 00                	jmp    1542 <.label2720>

0000000000001542 <.label2720>:
    1542:	eb 00                	jmp    1544 <.label2721>

0000000000001544 <.label2721>:
    1544:	eb 00                	jmp    1546 <.label2722>

0000000000001546 <.label2722>:
    1546:	eb 00                	jmp    1548 <.label2723>

0000000000001548 <.label2723>:
    1548:	eb 00                	jmp    154a <.label2724>

000000000000154a <.label2724>:
    154a:	eb 00                	jmp    154c <.label2725>

000000000000154c <.label2725>:
    154c:	eb 00                	jmp    154e <.label2726>

000000000000154e <.label2726>:
    154e:	eb 00                	jmp    1550 <.label2727>

0000000000001550 <.label2727>:
    1550:	eb 00                	jmp    1552 <.label2728>

0000000000001552 <.label2728>:
    1552:	eb 00                	jmp    1554 <.label2729>

0000000000001554 <.label2729>:
    1554:	eb 00                	jmp    1556 <.label2730>

0000000000001556 <.label2730>:
    1556:	eb 00                	jmp    1558 <.label2731>

0000000000001558 <.label2731>:
    1558:	eb 00                	jmp    155a <.label2732>

000000000000155a <.label2732>:
    155a:	eb 00                	jmp    155c <.label2733>

000000000000155c <.label2733>:
    155c:	eb 00                	jmp    155e <.label2734>

000000000000155e <.label2734>:
    155e:	eb 00                	jmp    1560 <.label2735>

0000000000001560 <.label2735>:
    1560:	eb 00                	jmp    1562 <.label2736>

0000000000001562 <.label2736>:
    1562:	eb 00                	jmp    1564 <.label2737>

0000000000001564 <.label2737>:
    1564:	eb 00                	jmp    1566 <.label2738>

0000000000001566 <.label2738>:
    1566:	eb 00                	jmp    1568 <.label2739>

0000000000001568 <.label2739>:
    1568:	eb 00                	jmp    156a <.label2740>

000000000000156a <.label2740>:
    156a:	eb 00                	jmp    156c <.label2741>

000000000000156c <.label2741>:
    156c:	eb 00                	jmp    156e <.label2742>

000000000000156e <.label2742>:
    156e:	eb 00                	jmp    1570 <.label2743>

0000000000001570 <.label2743>:
    1570:	eb 00                	jmp    1572 <.label2744>

0000000000001572 <.label2744>:
    1572:	eb 00                	jmp    1574 <.label2745>

0000000000001574 <.label2745>:
    1574:	eb 00                	jmp    1576 <.label2746>

0000000000001576 <.label2746>:
    1576:	eb 00                	jmp    1578 <.label2747>

0000000000001578 <.label2747>:
    1578:	eb 00                	jmp    157a <.label2748>

000000000000157a <.label2748>:
    157a:	eb 00                	jmp    157c <.label2749>

000000000000157c <.label2749>:
    157c:	eb 00                	jmp    157e <.label2750>

000000000000157e <.label2750>:
    157e:	eb 00                	jmp    1580 <.label2751>

0000000000001580 <.label2751>:
    1580:	eb 00                	jmp    1582 <.label2752>

0000000000001582 <.label2752>:
    1582:	eb 00                	jmp    1584 <.label2753>

0000000000001584 <.label2753>:
    1584:	eb 00                	jmp    1586 <.label2754>

0000000000001586 <.label2754>:
    1586:	eb 00                	jmp    1588 <.label2755>

0000000000001588 <.label2755>:
    1588:	eb 00                	jmp    158a <.label2756>

000000000000158a <.label2756>:
    158a:	eb 00                	jmp    158c <.label2757>

000000000000158c <.label2757>:
    158c:	eb 00                	jmp    158e <.label2758>

000000000000158e <.label2758>:
    158e:	eb 00                	jmp    1590 <.label2759>

0000000000001590 <.label2759>:
    1590:	eb 00                	jmp    1592 <.label2760>

0000000000001592 <.label2760>:
    1592:	eb 00                	jmp    1594 <.label2761>

0000000000001594 <.label2761>:
    1594:	eb 00                	jmp    1596 <.label2762>

0000000000001596 <.label2762>:
    1596:	eb 00                	jmp    1598 <.label2763>

0000000000001598 <.label2763>:
    1598:	eb 00                	jmp    159a <.label2764>

000000000000159a <.label2764>:
    159a:	eb 00                	jmp    159c <.label2765>

000000000000159c <.label2765>:
    159c:	eb 00                	jmp    159e <.label2766>

000000000000159e <.label2766>:
    159e:	eb 00                	jmp    15a0 <.label2767>

00000000000015a0 <.label2767>:
    15a0:	eb 00                	jmp    15a2 <.label2768>

00000000000015a2 <.label2768>:
    15a2:	eb 00                	jmp    15a4 <.label2769>

00000000000015a4 <.label2769>:
    15a4:	eb 00                	jmp    15a6 <.label2770>

00000000000015a6 <.label2770>:
    15a6:	eb 00                	jmp    15a8 <.label2771>

00000000000015a8 <.label2771>:
    15a8:	eb 00                	jmp    15aa <.label2772>

00000000000015aa <.label2772>:
    15aa:	eb 00                	jmp    15ac <.label2773>

00000000000015ac <.label2773>:
    15ac:	eb 00                	jmp    15ae <.label2774>

00000000000015ae <.label2774>:
    15ae:	eb 00                	jmp    15b0 <.label2775>

00000000000015b0 <.label2775>:
    15b0:	eb 00                	jmp    15b2 <.label2776>

00000000000015b2 <.label2776>:
    15b2:	eb 00                	jmp    15b4 <.label2777>

00000000000015b4 <.label2777>:
    15b4:	eb 00                	jmp    15b6 <.label2778>

00000000000015b6 <.label2778>:
    15b6:	eb 00                	jmp    15b8 <.label2779>

00000000000015b8 <.label2779>:
    15b8:	eb 00                	jmp    15ba <.label2780>

00000000000015ba <.label2780>:
    15ba:	eb 00                	jmp    15bc <.label2781>

00000000000015bc <.label2781>:
    15bc:	eb 00                	jmp    15be <.label2782>

00000000000015be <.label2782>:
    15be:	eb 00                	jmp    15c0 <.label2783>

00000000000015c0 <.label2783>:
    15c0:	eb 00                	jmp    15c2 <.label2784>

00000000000015c2 <.label2784>:
    15c2:	eb 00                	jmp    15c4 <.label2785>

00000000000015c4 <.label2785>:
    15c4:	eb 00                	jmp    15c6 <.label2786>

00000000000015c6 <.label2786>:
    15c6:	eb 00                	jmp    15c8 <.label2787>

00000000000015c8 <.label2787>:
    15c8:	eb 00                	jmp    15ca <.label2788>

00000000000015ca <.label2788>:
    15ca:	eb 00                	jmp    15cc <.label2789>

00000000000015cc <.label2789>:
    15cc:	eb 00                	jmp    15ce <.label2790>

00000000000015ce <.label2790>:
    15ce:	eb 00                	jmp    15d0 <.label2791>

00000000000015d0 <.label2791>:
    15d0:	eb 00                	jmp    15d2 <.label2792>

00000000000015d2 <.label2792>:
    15d2:	eb 00                	jmp    15d4 <.label2793>

00000000000015d4 <.label2793>:
    15d4:	eb 00                	jmp    15d6 <.label2794>

00000000000015d6 <.label2794>:
    15d6:	eb 00                	jmp    15d8 <.label2795>

00000000000015d8 <.label2795>:
    15d8:	eb 00                	jmp    15da <.label2796>

00000000000015da <.label2796>:
    15da:	eb 00                	jmp    15dc <.label2797>

00000000000015dc <.label2797>:
    15dc:	eb 00                	jmp    15de <.label2798>

00000000000015de <.label2798>:
    15de:	eb 00                	jmp    15e0 <.label2799>

00000000000015e0 <.label2799>:
    15e0:	eb 00                	jmp    15e2 <.label2800>

00000000000015e2 <.label2800>:
    15e2:	eb 00                	jmp    15e4 <.label2801>

00000000000015e4 <.label2801>:
    15e4:	eb 00                	jmp    15e6 <.label2802>

00000000000015e6 <.label2802>:
    15e6:	eb 00                	jmp    15e8 <.label2803>

00000000000015e8 <.label2803>:
    15e8:	eb 00                	jmp    15ea <.label2804>

00000000000015ea <.label2804>:
    15ea:	eb 00                	jmp    15ec <.label2805>

00000000000015ec <.label2805>:
    15ec:	eb 00                	jmp    15ee <.label2806>

00000000000015ee <.label2806>:
    15ee:	eb 00                	jmp    15f0 <.label2807>

00000000000015f0 <.label2807>:
    15f0:	eb 00                	jmp    15f2 <.label2808>

00000000000015f2 <.label2808>:
    15f2:	eb 00                	jmp    15f4 <.label2809>

00000000000015f4 <.label2809>:
    15f4:	eb 00                	jmp    15f6 <.label2810>

00000000000015f6 <.label2810>:
    15f6:	eb 00                	jmp    15f8 <.label2811>

00000000000015f8 <.label2811>:
    15f8:	eb 00                	jmp    15fa <.label2812>

00000000000015fa <.label2812>:
    15fa:	eb 00                	jmp    15fc <.label2813>

00000000000015fc <.label2813>:
    15fc:	eb 00                	jmp    15fe <.label2814>

00000000000015fe <.label2814>:
    15fe:	eb 00                	jmp    1600 <.label2815>

0000000000001600 <.label2815>:
    1600:	eb 00                	jmp    1602 <.label2816>

0000000000001602 <.label2816>:
    1602:	eb 00                	jmp    1604 <.label2817>

0000000000001604 <.label2817>:
    1604:	eb 00                	jmp    1606 <.label2818>

0000000000001606 <.label2818>:
    1606:	eb 00                	jmp    1608 <.label2819>

0000000000001608 <.label2819>:
    1608:	eb 00                	jmp    160a <.label2820>

000000000000160a <.label2820>:
    160a:	eb 00                	jmp    160c <.label2821>

000000000000160c <.label2821>:
    160c:	eb 00                	jmp    160e <.label2822>

000000000000160e <.label2822>:
    160e:	eb 00                	jmp    1610 <.label2823>

0000000000001610 <.label2823>:
    1610:	eb 00                	jmp    1612 <.label2824>

0000000000001612 <.label2824>:
    1612:	eb 00                	jmp    1614 <.label2825>

0000000000001614 <.label2825>:
    1614:	eb 00                	jmp    1616 <.label2826>

0000000000001616 <.label2826>:
    1616:	eb 00                	jmp    1618 <.label2827>

0000000000001618 <.label2827>:
    1618:	eb 00                	jmp    161a <.label2828>

000000000000161a <.label2828>:
    161a:	eb 00                	jmp    161c <.label2829>

000000000000161c <.label2829>:
    161c:	eb 00                	jmp    161e <.label2830>

000000000000161e <.label2830>:
    161e:	eb 00                	jmp    1620 <.label2831>

0000000000001620 <.label2831>:
    1620:	eb 00                	jmp    1622 <.label2832>

0000000000001622 <.label2832>:
    1622:	eb 00                	jmp    1624 <.label2833>

0000000000001624 <.label2833>:
    1624:	eb 00                	jmp    1626 <.label2834>

0000000000001626 <.label2834>:
    1626:	eb 00                	jmp    1628 <.label2835>

0000000000001628 <.label2835>:
    1628:	eb 00                	jmp    162a <.label2836>

000000000000162a <.label2836>:
    162a:	eb 00                	jmp    162c <.label2837>

000000000000162c <.label2837>:
    162c:	eb 00                	jmp    162e <.label2838>

000000000000162e <.label2838>:
    162e:	eb 00                	jmp    1630 <.label2839>

0000000000001630 <.label2839>:
    1630:	eb 00                	jmp    1632 <.label2840>

0000000000001632 <.label2840>:
    1632:	eb 00                	jmp    1634 <.label2841>

0000000000001634 <.label2841>:
    1634:	eb 00                	jmp    1636 <.label2842>

0000000000001636 <.label2842>:
    1636:	eb 00                	jmp    1638 <.label2843>

0000000000001638 <.label2843>:
    1638:	eb 00                	jmp    163a <.label2844>

000000000000163a <.label2844>:
    163a:	eb 00                	jmp    163c <.label2845>

000000000000163c <.label2845>:
    163c:	eb 00                	jmp    163e <.label2846>

000000000000163e <.label2846>:
    163e:	eb 00                	jmp    1640 <.label2847>

0000000000001640 <.label2847>:
    1640:	eb 00                	jmp    1642 <.label2848>

0000000000001642 <.label2848>:
    1642:	eb 00                	jmp    1644 <.label2849>

0000000000001644 <.label2849>:
    1644:	eb 00                	jmp    1646 <.label2850>

0000000000001646 <.label2850>:
    1646:	eb 00                	jmp    1648 <.label2851>

0000000000001648 <.label2851>:
    1648:	eb 00                	jmp    164a <.label2852>

000000000000164a <.label2852>:
    164a:	eb 00                	jmp    164c <.label2853>

000000000000164c <.label2853>:
    164c:	eb 00                	jmp    164e <.label2854>

000000000000164e <.label2854>:
    164e:	eb 00                	jmp    1650 <.label2855>

0000000000001650 <.label2855>:
    1650:	eb 00                	jmp    1652 <.label2856>

0000000000001652 <.label2856>:
    1652:	eb 00                	jmp    1654 <.label2857>

0000000000001654 <.label2857>:
    1654:	eb 00                	jmp    1656 <.label2858>

0000000000001656 <.label2858>:
    1656:	eb 00                	jmp    1658 <.label2859>

0000000000001658 <.label2859>:
    1658:	eb 00                	jmp    165a <.label2860>

000000000000165a <.label2860>:
    165a:	eb 00                	jmp    165c <.label2861>

000000000000165c <.label2861>:
    165c:	eb 00                	jmp    165e <.label2862>

000000000000165e <.label2862>:
    165e:	eb 00                	jmp    1660 <.label2863>

0000000000001660 <.label2863>:
    1660:	eb 00                	jmp    1662 <.label2864>

0000000000001662 <.label2864>:
    1662:	eb 00                	jmp    1664 <.label2865>

0000000000001664 <.label2865>:
    1664:	eb 00                	jmp    1666 <.label2866>

0000000000001666 <.label2866>:
    1666:	eb 00                	jmp    1668 <.label2867>

0000000000001668 <.label2867>:
    1668:	eb 00                	jmp    166a <.label2868>

000000000000166a <.label2868>:
    166a:	eb 00                	jmp    166c <.label2869>

000000000000166c <.label2869>:
    166c:	eb 00                	jmp    166e <.label2870>

000000000000166e <.label2870>:
    166e:	eb 00                	jmp    1670 <.label2871>

0000000000001670 <.label2871>:
    1670:	eb 00                	jmp    1672 <.label2872>

0000000000001672 <.label2872>:
    1672:	eb 00                	jmp    1674 <.label2873>

0000000000001674 <.label2873>:
    1674:	eb 00                	jmp    1676 <.label2874>

0000000000001676 <.label2874>:
    1676:	eb 00                	jmp    1678 <.label2875>

0000000000001678 <.label2875>:
    1678:	eb 00                	jmp    167a <.label2876>

000000000000167a <.label2876>:
    167a:	eb 00                	jmp    167c <.label2877>

000000000000167c <.label2877>:
    167c:	eb 00                	jmp    167e <.label2878>

000000000000167e <.label2878>:
    167e:	eb 00                	jmp    1680 <.label2879>

0000000000001680 <.label2879>:
    1680:	eb 00                	jmp    1682 <.label2880>

0000000000001682 <.label2880>:
    1682:	eb 00                	jmp    1684 <.label2881>

0000000000001684 <.label2881>:
    1684:	eb 00                	jmp    1686 <.label2882>

0000000000001686 <.label2882>:
    1686:	eb 00                	jmp    1688 <.label2883>

0000000000001688 <.label2883>:
    1688:	eb 00                	jmp    168a <.label2884>

000000000000168a <.label2884>:
    168a:	eb 00                	jmp    168c <.label2885>

000000000000168c <.label2885>:
    168c:	eb 00                	jmp    168e <.label2886>

000000000000168e <.label2886>:
    168e:	eb 00                	jmp    1690 <.label2887>

0000000000001690 <.label2887>:
    1690:	eb 00                	jmp    1692 <.label2888>

0000000000001692 <.label2888>:
    1692:	eb 00                	jmp    1694 <.label2889>

0000000000001694 <.label2889>:
    1694:	eb 00                	jmp    1696 <.label2890>

0000000000001696 <.label2890>:
    1696:	eb 00                	jmp    1698 <.label2891>

0000000000001698 <.label2891>:
    1698:	eb 00                	jmp    169a <.label2892>

000000000000169a <.label2892>:
    169a:	eb 00                	jmp    169c <.label2893>

000000000000169c <.label2893>:
    169c:	eb 00                	jmp    169e <.label2894>

000000000000169e <.label2894>:
    169e:	eb 00                	jmp    16a0 <.label2895>

00000000000016a0 <.label2895>:
    16a0:	eb 00                	jmp    16a2 <.label2896>

00000000000016a2 <.label2896>:
    16a2:	eb 00                	jmp    16a4 <.label2897>

00000000000016a4 <.label2897>:
    16a4:	eb 00                	jmp    16a6 <.label2898>

00000000000016a6 <.label2898>:
    16a6:	eb 00                	jmp    16a8 <.label2899>

00000000000016a8 <.label2899>:
    16a8:	eb 00                	jmp    16aa <.label2900>

00000000000016aa <.label2900>:
    16aa:	eb 00                	jmp    16ac <.label2901>

00000000000016ac <.label2901>:
    16ac:	eb 00                	jmp    16ae <.label2902>

00000000000016ae <.label2902>:
    16ae:	eb 00                	jmp    16b0 <.label2903>

00000000000016b0 <.label2903>:
    16b0:	eb 00                	jmp    16b2 <.label2904>

00000000000016b2 <.label2904>:
    16b2:	eb 00                	jmp    16b4 <.label2905>

00000000000016b4 <.label2905>:
    16b4:	eb 00                	jmp    16b6 <.label2906>

00000000000016b6 <.label2906>:
    16b6:	eb 00                	jmp    16b8 <.label2907>

00000000000016b8 <.label2907>:
    16b8:	eb 00                	jmp    16ba <.label2908>

00000000000016ba <.label2908>:
    16ba:	eb 00                	jmp    16bc <.label2909>

00000000000016bc <.label2909>:
    16bc:	eb 00                	jmp    16be <.label2910>

00000000000016be <.label2910>:
    16be:	eb 00                	jmp    16c0 <.label2911>

00000000000016c0 <.label2911>:
    16c0:	eb 00                	jmp    16c2 <.label2912>

00000000000016c2 <.label2912>:
    16c2:	eb 00                	jmp    16c4 <.label2913>

00000000000016c4 <.label2913>:
    16c4:	eb 00                	jmp    16c6 <.label2914>

00000000000016c6 <.label2914>:
    16c6:	eb 00                	jmp    16c8 <.label2915>

00000000000016c8 <.label2915>:
    16c8:	eb 00                	jmp    16ca <.label2916>

00000000000016ca <.label2916>:
    16ca:	eb 00                	jmp    16cc <.label2917>

00000000000016cc <.label2917>:
    16cc:	eb 00                	jmp    16ce <.label2918>

00000000000016ce <.label2918>:
    16ce:	eb 00                	jmp    16d0 <.label2919>

00000000000016d0 <.label2919>:
    16d0:	eb 00                	jmp    16d2 <.label2920>

00000000000016d2 <.label2920>:
    16d2:	eb 00                	jmp    16d4 <.label2921>

00000000000016d4 <.label2921>:
    16d4:	eb 00                	jmp    16d6 <.label2922>

00000000000016d6 <.label2922>:
    16d6:	eb 00                	jmp    16d8 <.label2923>

00000000000016d8 <.label2923>:
    16d8:	eb 00                	jmp    16da <.label2924>

00000000000016da <.label2924>:
    16da:	eb 00                	jmp    16dc <.label2925>

00000000000016dc <.label2925>:
    16dc:	eb 00                	jmp    16de <.label2926>

00000000000016de <.label2926>:
    16de:	eb 00                	jmp    16e0 <.label2927>

00000000000016e0 <.label2927>:
    16e0:	eb 00                	jmp    16e2 <.label2928>

00000000000016e2 <.label2928>:
    16e2:	eb 00                	jmp    16e4 <.label2929>

00000000000016e4 <.label2929>:
    16e4:	eb 00                	jmp    16e6 <.label2930>

00000000000016e6 <.label2930>:
    16e6:	eb 00                	jmp    16e8 <.label2931>

00000000000016e8 <.label2931>:
    16e8:	eb 00                	jmp    16ea <.label2932>

00000000000016ea <.label2932>:
    16ea:	eb 00                	jmp    16ec <.label2933>

00000000000016ec <.label2933>:
    16ec:	eb 00                	jmp    16ee <.label2934>

00000000000016ee <.label2934>:
    16ee:	eb 00                	jmp    16f0 <.label2935>

00000000000016f0 <.label2935>:
    16f0:	eb 00                	jmp    16f2 <.label2936>

00000000000016f2 <.label2936>:
    16f2:	eb 00                	jmp    16f4 <.label2937>

00000000000016f4 <.label2937>:
    16f4:	eb 00                	jmp    16f6 <.label2938>

00000000000016f6 <.label2938>:
    16f6:	eb 00                	jmp    16f8 <.label2939>

00000000000016f8 <.label2939>:
    16f8:	eb 00                	jmp    16fa <.label2940>

00000000000016fa <.label2940>:
    16fa:	eb 00                	jmp    16fc <.label2941>

00000000000016fc <.label2941>:
    16fc:	eb 00                	jmp    16fe <.label2942>

00000000000016fe <.label2942>:
    16fe:	eb 00                	jmp    1700 <.label2943>

0000000000001700 <.label2943>:
    1700:	eb 00                	jmp    1702 <.label2944>

0000000000001702 <.label2944>:
    1702:	eb 00                	jmp    1704 <.label2945>

0000000000001704 <.label2945>:
    1704:	eb 00                	jmp    1706 <.label2946>

0000000000001706 <.label2946>:
    1706:	eb 00                	jmp    1708 <.label2947>

0000000000001708 <.label2947>:
    1708:	eb 00                	jmp    170a <.label2948>

000000000000170a <.label2948>:
    170a:	eb 00                	jmp    170c <.label2949>

000000000000170c <.label2949>:
    170c:	eb 00                	jmp    170e <.label2950>

000000000000170e <.label2950>:
    170e:	eb 00                	jmp    1710 <.label2951>

0000000000001710 <.label2951>:
    1710:	eb 00                	jmp    1712 <.label2952>

0000000000001712 <.label2952>:
    1712:	eb 00                	jmp    1714 <.label2953>

0000000000001714 <.label2953>:
    1714:	eb 00                	jmp    1716 <.label2954>

0000000000001716 <.label2954>:
    1716:	eb 00                	jmp    1718 <.label2955>

0000000000001718 <.label2955>:
    1718:	eb 00                	jmp    171a <.label2956>

000000000000171a <.label2956>:
    171a:	eb 00                	jmp    171c <.label2957>

000000000000171c <.label2957>:
    171c:	eb 00                	jmp    171e <.label2958>

000000000000171e <.label2958>:
    171e:	eb 00                	jmp    1720 <.label2959>

0000000000001720 <.label2959>:
    1720:	eb 00                	jmp    1722 <.label2960>

0000000000001722 <.label2960>:
    1722:	eb 00                	jmp    1724 <.label2961>

0000000000001724 <.label2961>:
    1724:	eb 00                	jmp    1726 <.label2962>

0000000000001726 <.label2962>:
    1726:	eb 00                	jmp    1728 <.label2963>

0000000000001728 <.label2963>:
    1728:	eb 00                	jmp    172a <.label2964>

000000000000172a <.label2964>:
    172a:	eb 00                	jmp    172c <.label2965>

000000000000172c <.label2965>:
    172c:	eb 00                	jmp    172e <.label2966>

000000000000172e <.label2966>:
    172e:	eb 00                	jmp    1730 <.label2967>

0000000000001730 <.label2967>:
    1730:	eb 00                	jmp    1732 <.label2968>

0000000000001732 <.label2968>:
    1732:	eb 00                	jmp    1734 <.label2969>

0000000000001734 <.label2969>:
    1734:	eb 00                	jmp    1736 <.label2970>

0000000000001736 <.label2970>:
    1736:	eb 00                	jmp    1738 <.label2971>

0000000000001738 <.label2971>:
    1738:	eb 00                	jmp    173a <.label2972>

000000000000173a <.label2972>:
    173a:	eb 00                	jmp    173c <.label2973>

000000000000173c <.label2973>:
    173c:	eb 00                	jmp    173e <.label2974>

000000000000173e <.label2974>:
    173e:	eb 00                	jmp    1740 <.label2975>

0000000000001740 <.label2975>:
    1740:	eb 00                	jmp    1742 <.label2976>

0000000000001742 <.label2976>:
    1742:	eb 00                	jmp    1744 <.label2977>

0000000000001744 <.label2977>:
    1744:	eb 00                	jmp    1746 <.label2978>

0000000000001746 <.label2978>:
    1746:	eb 00                	jmp    1748 <.label2979>

0000000000001748 <.label2979>:
    1748:	eb 00                	jmp    174a <.label2980>

000000000000174a <.label2980>:
    174a:	eb 00                	jmp    174c <.label2981>

000000000000174c <.label2981>:
    174c:	eb 00                	jmp    174e <.label2982>

000000000000174e <.label2982>:
    174e:	eb 00                	jmp    1750 <.label2983>

0000000000001750 <.label2983>:
    1750:	eb 00                	jmp    1752 <.label2984>

0000000000001752 <.label2984>:
    1752:	eb 00                	jmp    1754 <.label2985>

0000000000001754 <.label2985>:
    1754:	eb 00                	jmp    1756 <.label2986>

0000000000001756 <.label2986>:
    1756:	eb 00                	jmp    1758 <.label2987>

0000000000001758 <.label2987>:
    1758:	eb 00                	jmp    175a <.label2988>

000000000000175a <.label2988>:
    175a:	eb 00                	jmp    175c <.label2989>

000000000000175c <.label2989>:
    175c:	eb 00                	jmp    175e <.label2990>

000000000000175e <.label2990>:
    175e:	eb 00                	jmp    1760 <.label2991>

0000000000001760 <.label2991>:
    1760:	eb 00                	jmp    1762 <.label2992>

0000000000001762 <.label2992>:
    1762:	eb 00                	jmp    1764 <.label2993>

0000000000001764 <.label2993>:
    1764:	eb 00                	jmp    1766 <.label2994>

0000000000001766 <.label2994>:
    1766:	eb 00                	jmp    1768 <.label2995>

0000000000001768 <.label2995>:
    1768:	eb 00                	jmp    176a <.label2996>

000000000000176a <.label2996>:
    176a:	eb 00                	jmp    176c <.label2997>

000000000000176c <.label2997>:
    176c:	eb 00                	jmp    176e <.label2998>

000000000000176e <.label2998>:
    176e:	eb 00                	jmp    1770 <.label2999>

0000000000001770 <.label2999>:
    1770:	eb 00                	jmp    1772 <.label3000>

0000000000001772 <.label3000>:
    1772:	eb 00                	jmp    1774 <.label3001>

0000000000001774 <.label3001>:
    1774:	eb 00                	jmp    1776 <.label3002>

0000000000001776 <.label3002>:
    1776:	eb 00                	jmp    1778 <.label3003>

0000000000001778 <.label3003>:
    1778:	eb 00                	jmp    177a <.label3004>

000000000000177a <.label3004>:
    177a:	eb 00                	jmp    177c <.label3005>

000000000000177c <.label3005>:
    177c:	eb 00                	jmp    177e <.label3006>

000000000000177e <.label3006>:
    177e:	eb 00                	jmp    1780 <.label3007>

0000000000001780 <.label3007>:
    1780:	eb 00                	jmp    1782 <.label3008>

0000000000001782 <.label3008>:
    1782:	eb 00                	jmp    1784 <.label3009>

0000000000001784 <.label3009>:
    1784:	eb 00                	jmp    1786 <.label3010>

0000000000001786 <.label3010>:
    1786:	eb 00                	jmp    1788 <.label3011>

0000000000001788 <.label3011>:
    1788:	eb 00                	jmp    178a <.label3012>

000000000000178a <.label3012>:
    178a:	eb 00                	jmp    178c <.label3013>

000000000000178c <.label3013>:
    178c:	eb 00                	jmp    178e <.label3014>

000000000000178e <.label3014>:
    178e:	eb 00                	jmp    1790 <.label3015>

0000000000001790 <.label3015>:
    1790:	eb 00                	jmp    1792 <.label3016>

0000000000001792 <.label3016>:
    1792:	eb 00                	jmp    1794 <.label3017>

0000000000001794 <.label3017>:
    1794:	eb 00                	jmp    1796 <.label3018>

0000000000001796 <.label3018>:
    1796:	eb 00                	jmp    1798 <.label3019>

0000000000001798 <.label3019>:
    1798:	eb 00                	jmp    179a <.label3020>

000000000000179a <.label3020>:
    179a:	eb 00                	jmp    179c <.label3021>

000000000000179c <.label3021>:
    179c:	eb 00                	jmp    179e <.label3022>

000000000000179e <.label3022>:
    179e:	eb 00                	jmp    17a0 <.label3023>

00000000000017a0 <.label3023>:
    17a0:	eb 00                	jmp    17a2 <.label3024>

00000000000017a2 <.label3024>:
    17a2:	eb 00                	jmp    17a4 <.label3025>

00000000000017a4 <.label3025>:
    17a4:	eb 00                	jmp    17a6 <.label3026>

00000000000017a6 <.label3026>:
    17a6:	eb 00                	jmp    17a8 <.label3027>

00000000000017a8 <.label3027>:
    17a8:	eb 00                	jmp    17aa <.label3028>

00000000000017aa <.label3028>:
    17aa:	eb 00                	jmp    17ac <.label3029>

00000000000017ac <.label3029>:
    17ac:	eb 00                	jmp    17ae <.label3030>

00000000000017ae <.label3030>:
    17ae:	eb 00                	jmp    17b0 <.label3031>

00000000000017b0 <.label3031>:
    17b0:	eb 00                	jmp    17b2 <.label3032>

00000000000017b2 <.label3032>:
    17b2:	eb 00                	jmp    17b4 <.label3033>

00000000000017b4 <.label3033>:
    17b4:	eb 00                	jmp    17b6 <.label3034>

00000000000017b6 <.label3034>:
    17b6:	eb 00                	jmp    17b8 <.label3035>

00000000000017b8 <.label3035>:
    17b8:	eb 00                	jmp    17ba <.label3036>

00000000000017ba <.label3036>:
    17ba:	eb 00                	jmp    17bc <.label3037>

00000000000017bc <.label3037>:
    17bc:	eb 00                	jmp    17be <.label3038>

00000000000017be <.label3038>:
    17be:	eb 00                	jmp    17c0 <.label3039>

00000000000017c0 <.label3039>:
    17c0:	eb 00                	jmp    17c2 <.label3040>

00000000000017c2 <.label3040>:
    17c2:	eb 00                	jmp    17c4 <.label3041>

00000000000017c4 <.label3041>:
    17c4:	eb 00                	jmp    17c6 <.label3042>

00000000000017c6 <.label3042>:
    17c6:	eb 00                	jmp    17c8 <.label3043>

00000000000017c8 <.label3043>:
    17c8:	eb 00                	jmp    17ca <.label3044>

00000000000017ca <.label3044>:
    17ca:	eb 00                	jmp    17cc <.label3045>

00000000000017cc <.label3045>:
    17cc:	eb 00                	jmp    17ce <.label3046>

00000000000017ce <.label3046>:
    17ce:	eb 00                	jmp    17d0 <.label3047>

00000000000017d0 <.label3047>:
    17d0:	eb 00                	jmp    17d2 <.label3048>

00000000000017d2 <.label3048>:
    17d2:	eb 00                	jmp    17d4 <.label3049>

00000000000017d4 <.label3049>:
    17d4:	eb 00                	jmp    17d6 <.label3050>

00000000000017d6 <.label3050>:
    17d6:	eb 00                	jmp    17d8 <.label3051>

00000000000017d8 <.label3051>:
    17d8:	eb 00                	jmp    17da <.label3052>

00000000000017da <.label3052>:
    17da:	eb 00                	jmp    17dc <.label3053>

00000000000017dc <.label3053>:
    17dc:	eb 00                	jmp    17de <.label3054>

00000000000017de <.label3054>:
    17de:	eb 00                	jmp    17e0 <.label3055>

00000000000017e0 <.label3055>:
    17e0:	eb 00                	jmp    17e2 <.label3056>

00000000000017e2 <.label3056>:
    17e2:	eb 00                	jmp    17e4 <.label3057>

00000000000017e4 <.label3057>:
    17e4:	eb 00                	jmp    17e6 <.label3058>

00000000000017e6 <.label3058>:
    17e6:	eb 00                	jmp    17e8 <.label3059>

00000000000017e8 <.label3059>:
    17e8:	eb 00                	jmp    17ea <.label3060>

00000000000017ea <.label3060>:
    17ea:	eb 00                	jmp    17ec <.label3061>

00000000000017ec <.label3061>:
    17ec:	eb 00                	jmp    17ee <.label3062>

00000000000017ee <.label3062>:
    17ee:	eb 00                	jmp    17f0 <.label3063>

00000000000017f0 <.label3063>:
    17f0:	eb 00                	jmp    17f2 <.label3064>

00000000000017f2 <.label3064>:
    17f2:	eb 00                	jmp    17f4 <.label3065>

00000000000017f4 <.label3065>:
    17f4:	eb 00                	jmp    17f6 <.label3066>

00000000000017f6 <.label3066>:
    17f6:	eb 00                	jmp    17f8 <.label3067>

00000000000017f8 <.label3067>:
    17f8:	eb 00                	jmp    17fa <.label3068>

00000000000017fa <.label3068>:
    17fa:	eb 00                	jmp    17fc <.label3069>

00000000000017fc <.label3069>:
    17fc:	eb 00                	jmp    17fe <.label3070>

00000000000017fe <.label3070>:
    17fe:	eb 00                	jmp    1800 <.label3071>

0000000000001800 <.label3071>:
    1800:	eb 00                	jmp    1802 <.label3072>

0000000000001802 <.label3072>:
    1802:	eb 00                	jmp    1804 <.label3073>

0000000000001804 <.label3073>:
    1804:	eb 00                	jmp    1806 <.label3074>

0000000000001806 <.label3074>:
    1806:	eb 00                	jmp    1808 <.label3075>

0000000000001808 <.label3075>:
    1808:	eb 00                	jmp    180a <.label3076>

000000000000180a <.label3076>:
    180a:	eb 00                	jmp    180c <.label3077>

000000000000180c <.label3077>:
    180c:	eb 00                	jmp    180e <.label3078>

000000000000180e <.label3078>:
    180e:	eb 00                	jmp    1810 <.label3079>

0000000000001810 <.label3079>:
    1810:	eb 00                	jmp    1812 <.label3080>

0000000000001812 <.label3080>:
    1812:	eb 00                	jmp    1814 <.label3081>

0000000000001814 <.label3081>:
    1814:	eb 00                	jmp    1816 <.label3082>

0000000000001816 <.label3082>:
    1816:	eb 00                	jmp    1818 <.label3083>

0000000000001818 <.label3083>:
    1818:	eb 00                	jmp    181a <.label3084>

000000000000181a <.label3084>:
    181a:	eb 00                	jmp    181c <.label3085>

000000000000181c <.label3085>:
    181c:	eb 00                	jmp    181e <.label3086>

000000000000181e <.label3086>:
    181e:	eb 00                	jmp    1820 <.label3087>

0000000000001820 <.label3087>:
    1820:	eb 00                	jmp    1822 <.label3088>

0000000000001822 <.label3088>:
    1822:	eb 00                	jmp    1824 <.label3089>

0000000000001824 <.label3089>:
    1824:	eb 00                	jmp    1826 <.label3090>

0000000000001826 <.label3090>:
    1826:	eb 00                	jmp    1828 <.label3091>

0000000000001828 <.label3091>:
    1828:	eb 00                	jmp    182a <.label3092>

000000000000182a <.label3092>:
    182a:	eb 00                	jmp    182c <.label3093>

000000000000182c <.label3093>:
    182c:	eb 00                	jmp    182e <.label3094>

000000000000182e <.label3094>:
    182e:	eb 00                	jmp    1830 <.label3095>

0000000000001830 <.label3095>:
    1830:	eb 00                	jmp    1832 <.label3096>

0000000000001832 <.label3096>:
    1832:	eb 00                	jmp    1834 <.label3097>

0000000000001834 <.label3097>:
    1834:	eb 00                	jmp    1836 <.label3098>

0000000000001836 <.label3098>:
    1836:	eb 00                	jmp    1838 <.label3099>

0000000000001838 <.label3099>:
    1838:	eb 00                	jmp    183a <.label3100>

000000000000183a <.label3100>:
    183a:	eb 00                	jmp    183c <.label3101>

000000000000183c <.label3101>:
    183c:	eb 00                	jmp    183e <.label3102>

000000000000183e <.label3102>:
    183e:	eb 00                	jmp    1840 <.label3103>

0000000000001840 <.label3103>:
    1840:	eb 00                	jmp    1842 <.label3104>

0000000000001842 <.label3104>:
    1842:	eb 00                	jmp    1844 <.label3105>

0000000000001844 <.label3105>:
    1844:	eb 00                	jmp    1846 <.label3106>

0000000000001846 <.label3106>:
    1846:	eb 00                	jmp    1848 <.label3107>

0000000000001848 <.label3107>:
    1848:	eb 00                	jmp    184a <.label3108>

000000000000184a <.label3108>:
    184a:	eb 00                	jmp    184c <.label3109>

000000000000184c <.label3109>:
    184c:	eb 00                	jmp    184e <.label3110>

000000000000184e <.label3110>:
    184e:	eb 00                	jmp    1850 <.label3111>

0000000000001850 <.label3111>:
    1850:	eb 00                	jmp    1852 <.label3112>

0000000000001852 <.label3112>:
    1852:	eb 00                	jmp    1854 <.label3113>

0000000000001854 <.label3113>:
    1854:	eb 00                	jmp    1856 <.label3114>

0000000000001856 <.label3114>:
    1856:	eb 00                	jmp    1858 <.label3115>

0000000000001858 <.label3115>:
    1858:	eb 00                	jmp    185a <.label3116>

000000000000185a <.label3116>:
    185a:	eb 00                	jmp    185c <.label3117>

000000000000185c <.label3117>:
    185c:	eb 00                	jmp    185e <.label3118>

000000000000185e <.label3118>:
    185e:	eb 00                	jmp    1860 <.label3119>

0000000000001860 <.label3119>:
    1860:	eb 00                	jmp    1862 <.label3120>

0000000000001862 <.label3120>:
    1862:	eb 00                	jmp    1864 <.label3121>

0000000000001864 <.label3121>:
    1864:	eb 00                	jmp    1866 <.label3122>

0000000000001866 <.label3122>:
    1866:	eb 00                	jmp    1868 <.label3123>

0000000000001868 <.label3123>:
    1868:	eb 00                	jmp    186a <.label3124>

000000000000186a <.label3124>:
    186a:	eb 00                	jmp    186c <.label3125>

000000000000186c <.label3125>:
    186c:	eb 00                	jmp    186e <.label3126>

000000000000186e <.label3126>:
    186e:	eb 00                	jmp    1870 <.label3127>

0000000000001870 <.label3127>:
    1870:	eb 00                	jmp    1872 <.label3128>

0000000000001872 <.label3128>:
    1872:	eb 00                	jmp    1874 <.label3129>

0000000000001874 <.label3129>:
    1874:	eb 00                	jmp    1876 <.label3130>

0000000000001876 <.label3130>:
    1876:	eb 00                	jmp    1878 <.label3131>

0000000000001878 <.label3131>:
    1878:	eb 00                	jmp    187a <.label3132>

000000000000187a <.label3132>:
    187a:	eb 00                	jmp    187c <.label3133>

000000000000187c <.label3133>:
    187c:	eb 00                	jmp    187e <.label3134>

000000000000187e <.label3134>:
    187e:	eb 00                	jmp    1880 <.label3135>

0000000000001880 <.label3135>:
    1880:	eb 00                	jmp    1882 <.label3136>

0000000000001882 <.label3136>:
    1882:	eb 00                	jmp    1884 <.label3137>

0000000000001884 <.label3137>:
    1884:	eb 00                	jmp    1886 <.label3138>

0000000000001886 <.label3138>:
    1886:	eb 00                	jmp    1888 <.label3139>

0000000000001888 <.label3139>:
    1888:	eb 00                	jmp    188a <.label3140>

000000000000188a <.label3140>:
    188a:	eb 00                	jmp    188c <.label3141>

000000000000188c <.label3141>:
    188c:	eb 00                	jmp    188e <.label3142>

000000000000188e <.label3142>:
    188e:	eb 00                	jmp    1890 <.label3143>

0000000000001890 <.label3143>:
    1890:	eb 00                	jmp    1892 <.label3144>

0000000000001892 <.label3144>:
    1892:	eb 00                	jmp    1894 <.label3145>

0000000000001894 <.label3145>:
    1894:	eb 00                	jmp    1896 <.label3146>

0000000000001896 <.label3146>:
    1896:	eb 00                	jmp    1898 <.label3147>

0000000000001898 <.label3147>:
    1898:	eb 00                	jmp    189a <.label3148>

000000000000189a <.label3148>:
    189a:	eb 00                	jmp    189c <.label3149>

000000000000189c <.label3149>:
    189c:	eb 00                	jmp    189e <.label3150>

000000000000189e <.label3150>:
    189e:	eb 00                	jmp    18a0 <.label3151>

00000000000018a0 <.label3151>:
    18a0:	eb 00                	jmp    18a2 <.label3152>

00000000000018a2 <.label3152>:
    18a2:	eb 00                	jmp    18a4 <.label3153>

00000000000018a4 <.label3153>:
    18a4:	eb 00                	jmp    18a6 <.label3154>

00000000000018a6 <.label3154>:
    18a6:	eb 00                	jmp    18a8 <.label3155>

00000000000018a8 <.label3155>:
    18a8:	eb 00                	jmp    18aa <.label3156>

00000000000018aa <.label3156>:
    18aa:	eb 00                	jmp    18ac <.label3157>

00000000000018ac <.label3157>:
    18ac:	eb 00                	jmp    18ae <.label3158>

00000000000018ae <.label3158>:
    18ae:	eb 00                	jmp    18b0 <.label3159>

00000000000018b0 <.label3159>:
    18b0:	eb 00                	jmp    18b2 <.label3160>

00000000000018b2 <.label3160>:
    18b2:	eb 00                	jmp    18b4 <.label3161>

00000000000018b4 <.label3161>:
    18b4:	eb 00                	jmp    18b6 <.label3162>

00000000000018b6 <.label3162>:
    18b6:	eb 00                	jmp    18b8 <.label3163>

00000000000018b8 <.label3163>:
    18b8:	eb 00                	jmp    18ba <.label3164>

00000000000018ba <.label3164>:
    18ba:	eb 00                	jmp    18bc <.label3165>

00000000000018bc <.label3165>:
    18bc:	eb 00                	jmp    18be <.label3166>

00000000000018be <.label3166>:
    18be:	eb 00                	jmp    18c0 <.label3167>

00000000000018c0 <.label3167>:
    18c0:	eb 00                	jmp    18c2 <.label3168>

00000000000018c2 <.label3168>:
    18c2:	eb 00                	jmp    18c4 <.label3169>

00000000000018c4 <.label3169>:
    18c4:	eb 00                	jmp    18c6 <.label3170>

00000000000018c6 <.label3170>:
    18c6:	eb 00                	jmp    18c8 <.label3171>

00000000000018c8 <.label3171>:
    18c8:	eb 00                	jmp    18ca <.label3172>

00000000000018ca <.label3172>:
    18ca:	eb 00                	jmp    18cc <.label3173>

00000000000018cc <.label3173>:
    18cc:	eb 00                	jmp    18ce <.label3174>

00000000000018ce <.label3174>:
    18ce:	eb 00                	jmp    18d0 <.label3175>

00000000000018d0 <.label3175>:
    18d0:	eb 00                	jmp    18d2 <.label3176>

00000000000018d2 <.label3176>:
    18d2:	eb 00                	jmp    18d4 <.label3177>

00000000000018d4 <.label3177>:
    18d4:	eb 00                	jmp    18d6 <.label3178>

00000000000018d6 <.label3178>:
    18d6:	eb 00                	jmp    18d8 <.label3179>

00000000000018d8 <.label3179>:
    18d8:	eb 00                	jmp    18da <.label3180>

00000000000018da <.label3180>:
    18da:	eb 00                	jmp    18dc <.label3181>

00000000000018dc <.label3181>:
    18dc:	eb 00                	jmp    18de <.label3182>

00000000000018de <.label3182>:
    18de:	eb 00                	jmp    18e0 <.label3183>

00000000000018e0 <.label3183>:
    18e0:	eb 00                	jmp    18e2 <.label3184>

00000000000018e2 <.label3184>:
    18e2:	eb 00                	jmp    18e4 <.label3185>

00000000000018e4 <.label3185>:
    18e4:	eb 00                	jmp    18e6 <.label3186>

00000000000018e6 <.label3186>:
    18e6:	eb 00                	jmp    18e8 <.label3187>

00000000000018e8 <.label3187>:
    18e8:	eb 00                	jmp    18ea <.label3188>

00000000000018ea <.label3188>:
    18ea:	eb 00                	jmp    18ec <.label3189>

00000000000018ec <.label3189>:
    18ec:	eb 00                	jmp    18ee <.label3190>

00000000000018ee <.label3190>:
    18ee:	eb 00                	jmp    18f0 <.label3191>

00000000000018f0 <.label3191>:
    18f0:	eb 00                	jmp    18f2 <.label3192>

00000000000018f2 <.label3192>:
    18f2:	eb 00                	jmp    18f4 <.label3193>

00000000000018f4 <.label3193>:
    18f4:	eb 00                	jmp    18f6 <.label3194>

00000000000018f6 <.label3194>:
    18f6:	eb 00                	jmp    18f8 <.label3195>

00000000000018f8 <.label3195>:
    18f8:	eb 00                	jmp    18fa <.label3196>

00000000000018fa <.label3196>:
    18fa:	eb 00                	jmp    18fc <.label3197>

00000000000018fc <.label3197>:
    18fc:	eb 00                	jmp    18fe <.label3198>

00000000000018fe <.label3198>:
    18fe:	eb 00                	jmp    1900 <.label3199>

0000000000001900 <.label3199>:
    1900:	eb 00                	jmp    1902 <.label3200>

0000000000001902 <.label3200>:
    1902:	eb 00                	jmp    1904 <.label3201>

0000000000001904 <.label3201>:
    1904:	eb 00                	jmp    1906 <.label3202>

0000000000001906 <.label3202>:
    1906:	eb 00                	jmp    1908 <.label3203>

0000000000001908 <.label3203>:
    1908:	eb 00                	jmp    190a <.label3204>

000000000000190a <.label3204>:
    190a:	eb 00                	jmp    190c <.label3205>

000000000000190c <.label3205>:
    190c:	eb 00                	jmp    190e <.label3206>

000000000000190e <.label3206>:
    190e:	eb 00                	jmp    1910 <.label3207>

0000000000001910 <.label3207>:
    1910:	eb 00                	jmp    1912 <.label3208>

0000000000001912 <.label3208>:
    1912:	eb 00                	jmp    1914 <.label3209>

0000000000001914 <.label3209>:
    1914:	eb 00                	jmp    1916 <.label3210>

0000000000001916 <.label3210>:
    1916:	eb 00                	jmp    1918 <.label3211>

0000000000001918 <.label3211>:
    1918:	eb 00                	jmp    191a <.label3212>

000000000000191a <.label3212>:
    191a:	eb 00                	jmp    191c <.label3213>

000000000000191c <.label3213>:
    191c:	eb 00                	jmp    191e <.label3214>

000000000000191e <.label3214>:
    191e:	eb 00                	jmp    1920 <.label3215>

0000000000001920 <.label3215>:
    1920:	eb 00                	jmp    1922 <.label3216>

0000000000001922 <.label3216>:
    1922:	eb 00                	jmp    1924 <.label3217>

0000000000001924 <.label3217>:
    1924:	eb 00                	jmp    1926 <.label3218>

0000000000001926 <.label3218>:
    1926:	eb 00                	jmp    1928 <.label3219>

0000000000001928 <.label3219>:
    1928:	eb 00                	jmp    192a <.label3220>

000000000000192a <.label3220>:
    192a:	eb 00                	jmp    192c <.label3221>

000000000000192c <.label3221>:
    192c:	eb 00                	jmp    192e <.label3222>

000000000000192e <.label3222>:
    192e:	eb 00                	jmp    1930 <.label3223>

0000000000001930 <.label3223>:
    1930:	eb 00                	jmp    1932 <.label3224>

0000000000001932 <.label3224>:
    1932:	eb 00                	jmp    1934 <.label3225>

0000000000001934 <.label3225>:
    1934:	eb 00                	jmp    1936 <.label3226>

0000000000001936 <.label3226>:
    1936:	eb 00                	jmp    1938 <.label3227>

0000000000001938 <.label3227>:
    1938:	eb 00                	jmp    193a <.label3228>

000000000000193a <.label3228>:
    193a:	eb 00                	jmp    193c <.label3229>

000000000000193c <.label3229>:
    193c:	eb 00                	jmp    193e <.label3230>

000000000000193e <.label3230>:
    193e:	eb 00                	jmp    1940 <.label3231>

0000000000001940 <.label3231>:
    1940:	eb 00                	jmp    1942 <.label3232>

0000000000001942 <.label3232>:
    1942:	eb 00                	jmp    1944 <.label3233>

0000000000001944 <.label3233>:
    1944:	eb 00                	jmp    1946 <.label3234>

0000000000001946 <.label3234>:
    1946:	eb 00                	jmp    1948 <.label3235>

0000000000001948 <.label3235>:
    1948:	eb 00                	jmp    194a <.label3236>

000000000000194a <.label3236>:
    194a:	eb 00                	jmp    194c <.label3237>

000000000000194c <.label3237>:
    194c:	eb 00                	jmp    194e <.label3238>

000000000000194e <.label3238>:
    194e:	eb 00                	jmp    1950 <.label3239>

0000000000001950 <.label3239>:
    1950:	eb 00                	jmp    1952 <.label3240>

0000000000001952 <.label3240>:
    1952:	eb 00                	jmp    1954 <.label3241>

0000000000001954 <.label3241>:
    1954:	eb 00                	jmp    1956 <.label3242>

0000000000001956 <.label3242>:
    1956:	eb 00                	jmp    1958 <.label3243>

0000000000001958 <.label3243>:
    1958:	eb 00                	jmp    195a <.label3244>

000000000000195a <.label3244>:
    195a:	eb 00                	jmp    195c <.label3245>

000000000000195c <.label3245>:
    195c:	eb 00                	jmp    195e <.label3246>

000000000000195e <.label3246>:
    195e:	eb 00                	jmp    1960 <.label3247>

0000000000001960 <.label3247>:
    1960:	eb 00                	jmp    1962 <.label3248>

0000000000001962 <.label3248>:
    1962:	eb 00                	jmp    1964 <.label3249>

0000000000001964 <.label3249>:
    1964:	eb 00                	jmp    1966 <.label3250>

0000000000001966 <.label3250>:
    1966:	eb 00                	jmp    1968 <.label3251>

0000000000001968 <.label3251>:
    1968:	eb 00                	jmp    196a <.label3252>

000000000000196a <.label3252>:
    196a:	eb 00                	jmp    196c <.label3253>

000000000000196c <.label3253>:
    196c:	eb 00                	jmp    196e <.label3254>

000000000000196e <.label3254>:
    196e:	eb 00                	jmp    1970 <.label3255>

0000000000001970 <.label3255>:
    1970:	eb 00                	jmp    1972 <.label3256>

0000000000001972 <.label3256>:
    1972:	eb 00                	jmp    1974 <.label3257>

0000000000001974 <.label3257>:
    1974:	eb 00                	jmp    1976 <.label3258>

0000000000001976 <.label3258>:
    1976:	eb 00                	jmp    1978 <.label3259>

0000000000001978 <.label3259>:
    1978:	eb 00                	jmp    197a <.label3260>

000000000000197a <.label3260>:
    197a:	eb 00                	jmp    197c <.label3261>

000000000000197c <.label3261>:
    197c:	eb 00                	jmp    197e <.label3262>

000000000000197e <.label3262>:
    197e:	eb 00                	jmp    1980 <.label3263>

0000000000001980 <.label3263>:
    1980:	eb 00                	jmp    1982 <.label3264>

0000000000001982 <.label3264>:
    1982:	eb 00                	jmp    1984 <.label3265>

0000000000001984 <.label3265>:
    1984:	eb 00                	jmp    1986 <.label3266>

0000000000001986 <.label3266>:
    1986:	eb 00                	jmp    1988 <.label3267>

0000000000001988 <.label3267>:
    1988:	eb 00                	jmp    198a <.label3268>

000000000000198a <.label3268>:
    198a:	eb 00                	jmp    198c <.label3269>

000000000000198c <.label3269>:
    198c:	eb 00                	jmp    198e <.label3270>

000000000000198e <.label3270>:
    198e:	eb 00                	jmp    1990 <.label3271>

0000000000001990 <.label3271>:
    1990:	eb 00                	jmp    1992 <.label3272>

0000000000001992 <.label3272>:
    1992:	eb 00                	jmp    1994 <.label3273>

0000000000001994 <.label3273>:
    1994:	eb 00                	jmp    1996 <.label3274>

0000000000001996 <.label3274>:
    1996:	eb 00                	jmp    1998 <.label3275>

0000000000001998 <.label3275>:
    1998:	eb 00                	jmp    199a <.label3276>

000000000000199a <.label3276>:
    199a:	eb 00                	jmp    199c <.label3277>

000000000000199c <.label3277>:
    199c:	eb 00                	jmp    199e <.label3278>

000000000000199e <.label3278>:
    199e:	eb 00                	jmp    19a0 <.label3279>

00000000000019a0 <.label3279>:
    19a0:	eb 00                	jmp    19a2 <.label3280>

00000000000019a2 <.label3280>:
    19a2:	eb 00                	jmp    19a4 <.label3281>

00000000000019a4 <.label3281>:
    19a4:	eb 00                	jmp    19a6 <.label3282>

00000000000019a6 <.label3282>:
    19a6:	eb 00                	jmp    19a8 <.label3283>

00000000000019a8 <.label3283>:
    19a8:	eb 00                	jmp    19aa <.label3284>

00000000000019aa <.label3284>:
    19aa:	eb 00                	jmp    19ac <.label3285>

00000000000019ac <.label3285>:
    19ac:	eb 00                	jmp    19ae <.label3286>

00000000000019ae <.label3286>:
    19ae:	eb 00                	jmp    19b0 <.label3287>

00000000000019b0 <.label3287>:
    19b0:	eb 00                	jmp    19b2 <.label3288>

00000000000019b2 <.label3288>:
    19b2:	eb 00                	jmp    19b4 <.label3289>

00000000000019b4 <.label3289>:
    19b4:	eb 00                	jmp    19b6 <.label3290>

00000000000019b6 <.label3290>:
    19b6:	eb 00                	jmp    19b8 <.label3291>

00000000000019b8 <.label3291>:
    19b8:	eb 00                	jmp    19ba <.label3292>

00000000000019ba <.label3292>:
    19ba:	eb 00                	jmp    19bc <.label3293>

00000000000019bc <.label3293>:
    19bc:	eb 00                	jmp    19be <.label3294>

00000000000019be <.label3294>:
    19be:	eb 00                	jmp    19c0 <.label3295>

00000000000019c0 <.label3295>:
    19c0:	eb 00                	jmp    19c2 <.label3296>

00000000000019c2 <.label3296>:
    19c2:	eb 00                	jmp    19c4 <.label3297>

00000000000019c4 <.label3297>:
    19c4:	eb 00                	jmp    19c6 <.label3298>

00000000000019c6 <.label3298>:
    19c6:	eb 00                	jmp    19c8 <.label3299>

00000000000019c8 <.label3299>:
    19c8:	eb 00                	jmp    19ca <.label3300>

00000000000019ca <.label3300>:
    19ca:	eb 00                	jmp    19cc <.label3301>

00000000000019cc <.label3301>:
    19cc:	eb 00                	jmp    19ce <.label3302>

00000000000019ce <.label3302>:
    19ce:	eb 00                	jmp    19d0 <.label3303>

00000000000019d0 <.label3303>:
    19d0:	eb 00                	jmp    19d2 <.label3304>

00000000000019d2 <.label3304>:
    19d2:	eb 00                	jmp    19d4 <.label3305>

00000000000019d4 <.label3305>:
    19d4:	eb 00                	jmp    19d6 <.label3306>

00000000000019d6 <.label3306>:
    19d6:	eb 00                	jmp    19d8 <.label3307>

00000000000019d8 <.label3307>:
    19d8:	eb 00                	jmp    19da <.label3308>

00000000000019da <.label3308>:
    19da:	eb 00                	jmp    19dc <.label3309>

00000000000019dc <.label3309>:
    19dc:	eb 00                	jmp    19de <.label3310>

00000000000019de <.label3310>:
    19de:	eb 00                	jmp    19e0 <.label3311>

00000000000019e0 <.label3311>:
    19e0:	eb 00                	jmp    19e2 <.label3312>

00000000000019e2 <.label3312>:
    19e2:	eb 00                	jmp    19e4 <.label3313>

00000000000019e4 <.label3313>:
    19e4:	eb 00                	jmp    19e6 <.label3314>

00000000000019e6 <.label3314>:
    19e6:	eb 00                	jmp    19e8 <.label3315>

00000000000019e8 <.label3315>:
    19e8:	eb 00                	jmp    19ea <.label3316>

00000000000019ea <.label3316>:
    19ea:	eb 00                	jmp    19ec <.label3317>

00000000000019ec <.label3317>:
    19ec:	eb 00                	jmp    19ee <.label3318>

00000000000019ee <.label3318>:
    19ee:	eb 00                	jmp    19f0 <.label3319>

00000000000019f0 <.label3319>:
    19f0:	eb 00                	jmp    19f2 <.label3320>

00000000000019f2 <.label3320>:
    19f2:	eb 00                	jmp    19f4 <.label3321>

00000000000019f4 <.label3321>:
    19f4:	eb 00                	jmp    19f6 <.label3322>

00000000000019f6 <.label3322>:
    19f6:	eb 00                	jmp    19f8 <.label3323>

00000000000019f8 <.label3323>:
    19f8:	eb 00                	jmp    19fa <.label3324>

00000000000019fa <.label3324>:
    19fa:	eb 00                	jmp    19fc <.label3325>

00000000000019fc <.label3325>:
    19fc:	eb 00                	jmp    19fe <.label3326>

00000000000019fe <.label3326>:
    19fe:	eb 00                	jmp    1a00 <.label3327>

0000000000001a00 <.label3327>:
    1a00:	eb 00                	jmp    1a02 <.label3328>

0000000000001a02 <.label3328>:
    1a02:	eb 00                	jmp    1a04 <.label3329>

0000000000001a04 <.label3329>:
    1a04:	eb 00                	jmp    1a06 <.label3330>

0000000000001a06 <.label3330>:
    1a06:	eb 00                	jmp    1a08 <.label3331>

0000000000001a08 <.label3331>:
    1a08:	eb 00                	jmp    1a0a <.label3332>

0000000000001a0a <.label3332>:
    1a0a:	eb 00                	jmp    1a0c <.label3333>

0000000000001a0c <.label3333>:
    1a0c:	eb 00                	jmp    1a0e <.label3334>

0000000000001a0e <.label3334>:
    1a0e:	eb 00                	jmp    1a10 <.label3335>

0000000000001a10 <.label3335>:
    1a10:	eb 00                	jmp    1a12 <.label3336>

0000000000001a12 <.label3336>:
    1a12:	eb 00                	jmp    1a14 <.label3337>

0000000000001a14 <.label3337>:
    1a14:	eb 00                	jmp    1a16 <.label3338>

0000000000001a16 <.label3338>:
    1a16:	eb 00                	jmp    1a18 <.label3339>

0000000000001a18 <.label3339>:
    1a18:	eb 00                	jmp    1a1a <.label3340>

0000000000001a1a <.label3340>:
    1a1a:	eb 00                	jmp    1a1c <.label3341>

0000000000001a1c <.label3341>:
    1a1c:	eb 00                	jmp    1a1e <.label3342>

0000000000001a1e <.label3342>:
    1a1e:	eb 00                	jmp    1a20 <.label3343>

0000000000001a20 <.label3343>:
    1a20:	eb 00                	jmp    1a22 <.label3344>

0000000000001a22 <.label3344>:
    1a22:	eb 00                	jmp    1a24 <.label3345>

0000000000001a24 <.label3345>:
    1a24:	eb 00                	jmp    1a26 <.label3346>

0000000000001a26 <.label3346>:
    1a26:	eb 00                	jmp    1a28 <.label3347>

0000000000001a28 <.label3347>:
    1a28:	eb 00                	jmp    1a2a <.label3348>

0000000000001a2a <.label3348>:
    1a2a:	eb 00                	jmp    1a2c <.label3349>

0000000000001a2c <.label3349>:
    1a2c:	eb 00                	jmp    1a2e <.label3350>

0000000000001a2e <.label3350>:
    1a2e:	eb 00                	jmp    1a30 <.label3351>

0000000000001a30 <.label3351>:
    1a30:	eb 00                	jmp    1a32 <.label3352>

0000000000001a32 <.label3352>:
    1a32:	eb 00                	jmp    1a34 <.label3353>

0000000000001a34 <.label3353>:
    1a34:	eb 00                	jmp    1a36 <.label3354>

0000000000001a36 <.label3354>:
    1a36:	eb 00                	jmp    1a38 <.label3355>

0000000000001a38 <.label3355>:
    1a38:	eb 00                	jmp    1a3a <.label3356>

0000000000001a3a <.label3356>:
    1a3a:	eb 00                	jmp    1a3c <.label3357>

0000000000001a3c <.label3357>:
    1a3c:	eb 00                	jmp    1a3e <.label3358>

0000000000001a3e <.label3358>:
    1a3e:	eb 00                	jmp    1a40 <.label3359>

0000000000001a40 <.label3359>:
    1a40:	eb 00                	jmp    1a42 <.label3360>

0000000000001a42 <.label3360>:
    1a42:	eb 00                	jmp    1a44 <.label3361>

0000000000001a44 <.label3361>:
    1a44:	eb 00                	jmp    1a46 <.label3362>

0000000000001a46 <.label3362>:
    1a46:	eb 00                	jmp    1a48 <.label3363>

0000000000001a48 <.label3363>:
    1a48:	eb 00                	jmp    1a4a <.label3364>

0000000000001a4a <.label3364>:
    1a4a:	eb 00                	jmp    1a4c <.label3365>

0000000000001a4c <.label3365>:
    1a4c:	eb 00                	jmp    1a4e <.label3366>

0000000000001a4e <.label3366>:
    1a4e:	eb 00                	jmp    1a50 <.label3367>

0000000000001a50 <.label3367>:
    1a50:	eb 00                	jmp    1a52 <.label3368>

0000000000001a52 <.label3368>:
    1a52:	eb 00                	jmp    1a54 <.label3369>

0000000000001a54 <.label3369>:
    1a54:	eb 00                	jmp    1a56 <.label3370>

0000000000001a56 <.label3370>:
    1a56:	eb 00                	jmp    1a58 <.label3371>

0000000000001a58 <.label3371>:
    1a58:	eb 00                	jmp    1a5a <.label3372>

0000000000001a5a <.label3372>:
    1a5a:	eb 00                	jmp    1a5c <.label3373>

0000000000001a5c <.label3373>:
    1a5c:	eb 00                	jmp    1a5e <.label3374>

0000000000001a5e <.label3374>:
    1a5e:	eb 00                	jmp    1a60 <.label3375>

0000000000001a60 <.label3375>:
    1a60:	eb 00                	jmp    1a62 <.label3376>

0000000000001a62 <.label3376>:
    1a62:	eb 00                	jmp    1a64 <.label3377>

0000000000001a64 <.label3377>:
    1a64:	eb 00                	jmp    1a66 <.label3378>

0000000000001a66 <.label3378>:
    1a66:	eb 00                	jmp    1a68 <.label3379>

0000000000001a68 <.label3379>:
    1a68:	eb 00                	jmp    1a6a <.label3380>

0000000000001a6a <.label3380>:
    1a6a:	eb 00                	jmp    1a6c <.label3381>

0000000000001a6c <.label3381>:
    1a6c:	eb 00                	jmp    1a6e <.label3382>

0000000000001a6e <.label3382>:
    1a6e:	eb 00                	jmp    1a70 <.label3383>

0000000000001a70 <.label3383>:
    1a70:	eb 00                	jmp    1a72 <.label3384>

0000000000001a72 <.label3384>:
    1a72:	eb 00                	jmp    1a74 <.label3385>

0000000000001a74 <.label3385>:
    1a74:	eb 00                	jmp    1a76 <.label3386>

0000000000001a76 <.label3386>:
    1a76:	eb 00                	jmp    1a78 <.label3387>

0000000000001a78 <.label3387>:
    1a78:	eb 00                	jmp    1a7a <.label3388>

0000000000001a7a <.label3388>:
    1a7a:	eb 00                	jmp    1a7c <.label3389>

0000000000001a7c <.label3389>:
    1a7c:	eb 00                	jmp    1a7e <.label3390>

0000000000001a7e <.label3390>:
    1a7e:	eb 00                	jmp    1a80 <.label3391>

0000000000001a80 <.label3391>:
    1a80:	eb 00                	jmp    1a82 <.label3392>

0000000000001a82 <.label3392>:
    1a82:	eb 00                	jmp    1a84 <.label3393>

0000000000001a84 <.label3393>:
    1a84:	eb 00                	jmp    1a86 <.label3394>

0000000000001a86 <.label3394>:
    1a86:	eb 00                	jmp    1a88 <.label3395>

0000000000001a88 <.label3395>:
    1a88:	eb 00                	jmp    1a8a <.label3396>

0000000000001a8a <.label3396>:
    1a8a:	eb 00                	jmp    1a8c <.label3397>

0000000000001a8c <.label3397>:
    1a8c:	eb 00                	jmp    1a8e <.label3398>

0000000000001a8e <.label3398>:
    1a8e:	eb 00                	jmp    1a90 <.label3399>

0000000000001a90 <.label3399>:
    1a90:	eb 00                	jmp    1a92 <.label3400>

0000000000001a92 <.label3400>:
    1a92:	eb 00                	jmp    1a94 <.label3401>

0000000000001a94 <.label3401>:
    1a94:	eb 00                	jmp    1a96 <.label3402>

0000000000001a96 <.label3402>:
    1a96:	eb 00                	jmp    1a98 <.label3403>

0000000000001a98 <.label3403>:
    1a98:	eb 00                	jmp    1a9a <.label3404>

0000000000001a9a <.label3404>:
    1a9a:	eb 00                	jmp    1a9c <.label3405>

0000000000001a9c <.label3405>:
    1a9c:	eb 00                	jmp    1a9e <.label3406>

0000000000001a9e <.label3406>:
    1a9e:	eb 00                	jmp    1aa0 <.label3407>

0000000000001aa0 <.label3407>:
    1aa0:	eb 00                	jmp    1aa2 <.label3408>

0000000000001aa2 <.label3408>:
    1aa2:	eb 00                	jmp    1aa4 <.label3409>

0000000000001aa4 <.label3409>:
    1aa4:	eb 00                	jmp    1aa6 <.label3410>

0000000000001aa6 <.label3410>:
    1aa6:	eb 00                	jmp    1aa8 <.label3411>

0000000000001aa8 <.label3411>:
    1aa8:	eb 00                	jmp    1aaa <.label3412>

0000000000001aaa <.label3412>:
    1aaa:	eb 00                	jmp    1aac <.label3413>

0000000000001aac <.label3413>:
    1aac:	eb 00                	jmp    1aae <.label3414>

0000000000001aae <.label3414>:
    1aae:	eb 00                	jmp    1ab0 <.label3415>

0000000000001ab0 <.label3415>:
    1ab0:	eb 00                	jmp    1ab2 <.label3416>

0000000000001ab2 <.label3416>:
    1ab2:	eb 00                	jmp    1ab4 <.label3417>

0000000000001ab4 <.label3417>:
    1ab4:	eb 00                	jmp    1ab6 <.label3418>

0000000000001ab6 <.label3418>:
    1ab6:	eb 00                	jmp    1ab8 <.label3419>

0000000000001ab8 <.label3419>:
    1ab8:	eb 00                	jmp    1aba <.label3420>

0000000000001aba <.label3420>:
    1aba:	eb 00                	jmp    1abc <.label3421>

0000000000001abc <.label3421>:
    1abc:	eb 00                	jmp    1abe <.label3422>

0000000000001abe <.label3422>:
    1abe:	eb 00                	jmp    1ac0 <.label3423>

0000000000001ac0 <.label3423>:
    1ac0:	eb 00                	jmp    1ac2 <.label3424>

0000000000001ac2 <.label3424>:
    1ac2:	eb 00                	jmp    1ac4 <.label3425>

0000000000001ac4 <.label3425>:
    1ac4:	eb 00                	jmp    1ac6 <.label3426>

0000000000001ac6 <.label3426>:
    1ac6:	eb 00                	jmp    1ac8 <.label3427>

0000000000001ac8 <.label3427>:
    1ac8:	eb 00                	jmp    1aca <.label3428>

0000000000001aca <.label3428>:
    1aca:	eb 00                	jmp    1acc <.label3429>

0000000000001acc <.label3429>:
    1acc:	eb 00                	jmp    1ace <.label3430>

0000000000001ace <.label3430>:
    1ace:	eb 00                	jmp    1ad0 <.label3431>

0000000000001ad0 <.label3431>:
    1ad0:	eb 00                	jmp    1ad2 <.label3432>

0000000000001ad2 <.label3432>:
    1ad2:	eb 00                	jmp    1ad4 <.label3433>

0000000000001ad4 <.label3433>:
    1ad4:	eb 00                	jmp    1ad6 <.label3434>

0000000000001ad6 <.label3434>:
    1ad6:	eb 00                	jmp    1ad8 <.label3435>

0000000000001ad8 <.label3435>:
    1ad8:	eb 00                	jmp    1ada <.label3436>

0000000000001ada <.label3436>:
    1ada:	eb 00                	jmp    1adc <.label3437>

0000000000001adc <.label3437>:
    1adc:	eb 00                	jmp    1ade <.label3438>

0000000000001ade <.label3438>:
    1ade:	eb 00                	jmp    1ae0 <.label3439>

0000000000001ae0 <.label3439>:
    1ae0:	eb 00                	jmp    1ae2 <.label3440>

0000000000001ae2 <.label3440>:
    1ae2:	eb 00                	jmp    1ae4 <.label3441>

0000000000001ae4 <.label3441>:
    1ae4:	eb 00                	jmp    1ae6 <.label3442>

0000000000001ae6 <.label3442>:
    1ae6:	eb 00                	jmp    1ae8 <.label3443>

0000000000001ae8 <.label3443>:
    1ae8:	eb 00                	jmp    1aea <.label3444>

0000000000001aea <.label3444>:
    1aea:	eb 00                	jmp    1aec <.label3445>

0000000000001aec <.label3445>:
    1aec:	eb 00                	jmp    1aee <.label3446>

0000000000001aee <.label3446>:
    1aee:	eb 00                	jmp    1af0 <.label3447>

0000000000001af0 <.label3447>:
    1af0:	eb 00                	jmp    1af2 <.label3448>

0000000000001af2 <.label3448>:
    1af2:	eb 00                	jmp    1af4 <.label3449>

0000000000001af4 <.label3449>:
    1af4:	eb 00                	jmp    1af6 <.label3450>

0000000000001af6 <.label3450>:
    1af6:	eb 00                	jmp    1af8 <.label3451>

0000000000001af8 <.label3451>:
    1af8:	eb 00                	jmp    1afa <.label3452>

0000000000001afa <.label3452>:
    1afa:	eb 00                	jmp    1afc <.label3453>

0000000000001afc <.label3453>:
    1afc:	eb 00                	jmp    1afe <.label3454>

0000000000001afe <.label3454>:
    1afe:	eb 00                	jmp    1b00 <.label3455>

0000000000001b00 <.label3455>:
    1b00:	eb 00                	jmp    1b02 <.label3456>

0000000000001b02 <.label3456>:
    1b02:	eb 00                	jmp    1b04 <.label3457>

0000000000001b04 <.label3457>:
    1b04:	eb 00                	jmp    1b06 <.label3458>

0000000000001b06 <.label3458>:
    1b06:	eb 00                	jmp    1b08 <.label3459>

0000000000001b08 <.label3459>:
    1b08:	eb 00                	jmp    1b0a <.label3460>

0000000000001b0a <.label3460>:
    1b0a:	eb 00                	jmp    1b0c <.label3461>

0000000000001b0c <.label3461>:
    1b0c:	eb 00                	jmp    1b0e <.label3462>

0000000000001b0e <.label3462>:
    1b0e:	eb 00                	jmp    1b10 <.label3463>

0000000000001b10 <.label3463>:
    1b10:	eb 00                	jmp    1b12 <.label3464>

0000000000001b12 <.label3464>:
    1b12:	eb 00                	jmp    1b14 <.label3465>

0000000000001b14 <.label3465>:
    1b14:	eb 00                	jmp    1b16 <.label3466>

0000000000001b16 <.label3466>:
    1b16:	eb 00                	jmp    1b18 <.label3467>

0000000000001b18 <.label3467>:
    1b18:	eb 00                	jmp    1b1a <.label3468>

0000000000001b1a <.label3468>:
    1b1a:	eb 00                	jmp    1b1c <.label3469>

0000000000001b1c <.label3469>:
    1b1c:	eb 00                	jmp    1b1e <.label3470>

0000000000001b1e <.label3470>:
    1b1e:	eb 00                	jmp    1b20 <.label3471>

0000000000001b20 <.label3471>:
    1b20:	eb 00                	jmp    1b22 <.label3472>

0000000000001b22 <.label3472>:
    1b22:	eb 00                	jmp    1b24 <.label3473>

0000000000001b24 <.label3473>:
    1b24:	eb 00                	jmp    1b26 <.label3474>

0000000000001b26 <.label3474>:
    1b26:	eb 00                	jmp    1b28 <.label3475>

0000000000001b28 <.label3475>:
    1b28:	eb 00                	jmp    1b2a <.label3476>

0000000000001b2a <.label3476>:
    1b2a:	eb 00                	jmp    1b2c <.label3477>

0000000000001b2c <.label3477>:
    1b2c:	eb 00                	jmp    1b2e <.label3478>

0000000000001b2e <.label3478>:
    1b2e:	eb 00                	jmp    1b30 <.label3479>

0000000000001b30 <.label3479>:
    1b30:	eb 00                	jmp    1b32 <.label3480>

0000000000001b32 <.label3480>:
    1b32:	eb 00                	jmp    1b34 <.label3481>

0000000000001b34 <.label3481>:
    1b34:	eb 00                	jmp    1b36 <.label3482>

0000000000001b36 <.label3482>:
    1b36:	eb 00                	jmp    1b38 <.label3483>

0000000000001b38 <.label3483>:
    1b38:	eb 00                	jmp    1b3a <.label3484>

0000000000001b3a <.label3484>:
    1b3a:	eb 00                	jmp    1b3c <.label3485>

0000000000001b3c <.label3485>:
    1b3c:	eb 00                	jmp    1b3e <.label3486>

0000000000001b3e <.label3486>:
    1b3e:	eb 00                	jmp    1b40 <.label3487>

0000000000001b40 <.label3487>:
    1b40:	eb 00                	jmp    1b42 <.label3488>

0000000000001b42 <.label3488>:
    1b42:	eb 00                	jmp    1b44 <.label3489>

0000000000001b44 <.label3489>:
    1b44:	eb 00                	jmp    1b46 <.label3490>

0000000000001b46 <.label3490>:
    1b46:	eb 00                	jmp    1b48 <.label3491>

0000000000001b48 <.label3491>:
    1b48:	eb 00                	jmp    1b4a <.label3492>

0000000000001b4a <.label3492>:
    1b4a:	eb 00                	jmp    1b4c <.label3493>

0000000000001b4c <.label3493>:
    1b4c:	eb 00                	jmp    1b4e <.label3494>

0000000000001b4e <.label3494>:
    1b4e:	eb 00                	jmp    1b50 <.label3495>

0000000000001b50 <.label3495>:
    1b50:	eb 00                	jmp    1b52 <.label3496>

0000000000001b52 <.label3496>:
    1b52:	eb 00                	jmp    1b54 <.label3497>

0000000000001b54 <.label3497>:
    1b54:	eb 00                	jmp    1b56 <.label3498>

0000000000001b56 <.label3498>:
    1b56:	eb 00                	jmp    1b58 <.label3499>

0000000000001b58 <.label3499>:
    1b58:	eb 00                	jmp    1b5a <.label3500>

0000000000001b5a <.label3500>:
    1b5a:	eb 00                	jmp    1b5c <.label3501>

0000000000001b5c <.label3501>:
    1b5c:	eb 00                	jmp    1b5e <.label3502>

0000000000001b5e <.label3502>:
    1b5e:	eb 00                	jmp    1b60 <.label3503>

0000000000001b60 <.label3503>:
    1b60:	eb 00                	jmp    1b62 <.label3504>

0000000000001b62 <.label3504>:
    1b62:	eb 00                	jmp    1b64 <.label3505>

0000000000001b64 <.label3505>:
    1b64:	eb 00                	jmp    1b66 <.label3506>

0000000000001b66 <.label3506>:
    1b66:	eb 00                	jmp    1b68 <.label3507>

0000000000001b68 <.label3507>:
    1b68:	eb 00                	jmp    1b6a <.label3508>

0000000000001b6a <.label3508>:
    1b6a:	eb 00                	jmp    1b6c <.label3509>

0000000000001b6c <.label3509>:
    1b6c:	eb 00                	jmp    1b6e <.label3510>

0000000000001b6e <.label3510>:
    1b6e:	eb 00                	jmp    1b70 <.label3511>

0000000000001b70 <.label3511>:
    1b70:	eb 00                	jmp    1b72 <.label3512>

0000000000001b72 <.label3512>:
    1b72:	eb 00                	jmp    1b74 <.label3513>

0000000000001b74 <.label3513>:
    1b74:	eb 00                	jmp    1b76 <.label3514>

0000000000001b76 <.label3514>:
    1b76:	eb 00                	jmp    1b78 <.label3515>

0000000000001b78 <.label3515>:
    1b78:	eb 00                	jmp    1b7a <.label3516>

0000000000001b7a <.label3516>:
    1b7a:	eb 00                	jmp    1b7c <.label3517>

0000000000001b7c <.label3517>:
    1b7c:	eb 00                	jmp    1b7e <.label3518>

0000000000001b7e <.label3518>:
    1b7e:	eb 00                	jmp    1b80 <.label3519>

0000000000001b80 <.label3519>:
    1b80:	eb 00                	jmp    1b82 <.label3520>

0000000000001b82 <.label3520>:
    1b82:	eb 00                	jmp    1b84 <.label3521>

0000000000001b84 <.label3521>:
    1b84:	eb 00                	jmp    1b86 <.label3522>

0000000000001b86 <.label3522>:
    1b86:	eb 00                	jmp    1b88 <.label3523>

0000000000001b88 <.label3523>:
    1b88:	eb 00                	jmp    1b8a <.label3524>

0000000000001b8a <.label3524>:
    1b8a:	eb 00                	jmp    1b8c <.label3525>

0000000000001b8c <.label3525>:
    1b8c:	eb 00                	jmp    1b8e <.label3526>

0000000000001b8e <.label3526>:
    1b8e:	eb 00                	jmp    1b90 <.label3527>

0000000000001b90 <.label3527>:
    1b90:	eb 00                	jmp    1b92 <.label3528>

0000000000001b92 <.label3528>:
    1b92:	eb 00                	jmp    1b94 <.label3529>

0000000000001b94 <.label3529>:
    1b94:	eb 00                	jmp    1b96 <.label3530>

0000000000001b96 <.label3530>:
    1b96:	eb 00                	jmp    1b98 <.label3531>

0000000000001b98 <.label3531>:
    1b98:	eb 00                	jmp    1b9a <.label3532>

0000000000001b9a <.label3532>:
    1b9a:	eb 00                	jmp    1b9c <.label3533>

0000000000001b9c <.label3533>:
    1b9c:	eb 00                	jmp    1b9e <.label3534>

0000000000001b9e <.label3534>:
    1b9e:	eb 00                	jmp    1ba0 <.label3535>

0000000000001ba0 <.label3535>:
    1ba0:	eb 00                	jmp    1ba2 <.label3536>

0000000000001ba2 <.label3536>:
    1ba2:	eb 00                	jmp    1ba4 <.label3537>

0000000000001ba4 <.label3537>:
    1ba4:	eb 00                	jmp    1ba6 <.label3538>

0000000000001ba6 <.label3538>:
    1ba6:	eb 00                	jmp    1ba8 <.label3539>

0000000000001ba8 <.label3539>:
    1ba8:	eb 00                	jmp    1baa <.label3540>

0000000000001baa <.label3540>:
    1baa:	eb 00                	jmp    1bac <.label3541>

0000000000001bac <.label3541>:
    1bac:	eb 00                	jmp    1bae <.label3542>

0000000000001bae <.label3542>:
    1bae:	eb 00                	jmp    1bb0 <.label3543>

0000000000001bb0 <.label3543>:
    1bb0:	eb 00                	jmp    1bb2 <.label3544>

0000000000001bb2 <.label3544>:
    1bb2:	eb 00                	jmp    1bb4 <.label3545>

0000000000001bb4 <.label3545>:
    1bb4:	eb 00                	jmp    1bb6 <.label3546>

0000000000001bb6 <.label3546>:
    1bb6:	eb 00                	jmp    1bb8 <.label3547>

0000000000001bb8 <.label3547>:
    1bb8:	eb 00                	jmp    1bba <.label3548>

0000000000001bba <.label3548>:
    1bba:	eb 00                	jmp    1bbc <.label3549>

0000000000001bbc <.label3549>:
    1bbc:	eb 00                	jmp    1bbe <.label3550>

0000000000001bbe <.label3550>:
    1bbe:	eb 00                	jmp    1bc0 <.label3551>

0000000000001bc0 <.label3551>:
    1bc0:	eb 00                	jmp    1bc2 <.label3552>

0000000000001bc2 <.label3552>:
    1bc2:	eb 00                	jmp    1bc4 <.label3553>

0000000000001bc4 <.label3553>:
    1bc4:	eb 00                	jmp    1bc6 <.label3554>

0000000000001bc6 <.label3554>:
    1bc6:	eb 00                	jmp    1bc8 <.label3555>

0000000000001bc8 <.label3555>:
    1bc8:	eb 00                	jmp    1bca <.label3556>

0000000000001bca <.label3556>:
    1bca:	eb 00                	jmp    1bcc <.label3557>

0000000000001bcc <.label3557>:
    1bcc:	eb 00                	jmp    1bce <.label3558>

0000000000001bce <.label3558>:
    1bce:	eb 00                	jmp    1bd0 <.label3559>

0000000000001bd0 <.label3559>:
    1bd0:	eb 00                	jmp    1bd2 <.label3560>

0000000000001bd2 <.label3560>:
    1bd2:	eb 00                	jmp    1bd4 <.label3561>

0000000000001bd4 <.label3561>:
    1bd4:	eb 00                	jmp    1bd6 <.label3562>

0000000000001bd6 <.label3562>:
    1bd6:	eb 00                	jmp    1bd8 <.label3563>

0000000000001bd8 <.label3563>:
    1bd8:	eb 00                	jmp    1bda <.label3564>

0000000000001bda <.label3564>:
    1bda:	eb 00                	jmp    1bdc <.label3565>

0000000000001bdc <.label3565>:
    1bdc:	eb 00                	jmp    1bde <.label3566>

0000000000001bde <.label3566>:
    1bde:	eb 00                	jmp    1be0 <.label3567>

0000000000001be0 <.label3567>:
    1be0:	eb 00                	jmp    1be2 <.label3568>

0000000000001be2 <.label3568>:
    1be2:	eb 00                	jmp    1be4 <.label3569>

0000000000001be4 <.label3569>:
    1be4:	eb 00                	jmp    1be6 <.label3570>

0000000000001be6 <.label3570>:
    1be6:	eb 00                	jmp    1be8 <.label3571>

0000000000001be8 <.label3571>:
    1be8:	eb 00                	jmp    1bea <.label3572>

0000000000001bea <.label3572>:
    1bea:	eb 00                	jmp    1bec <.label3573>

0000000000001bec <.label3573>:
    1bec:	eb 00                	jmp    1bee <.label3574>

0000000000001bee <.label3574>:
    1bee:	eb 00                	jmp    1bf0 <.label3575>

0000000000001bf0 <.label3575>:
    1bf0:	eb 00                	jmp    1bf2 <.label3576>

0000000000001bf2 <.label3576>:
    1bf2:	eb 00                	jmp    1bf4 <.label3577>

0000000000001bf4 <.label3577>:
    1bf4:	eb 00                	jmp    1bf6 <.label3578>

0000000000001bf6 <.label3578>:
    1bf6:	eb 00                	jmp    1bf8 <.label3579>

0000000000001bf8 <.label3579>:
    1bf8:	eb 00                	jmp    1bfa <.label3580>

0000000000001bfa <.label3580>:
    1bfa:	eb 00                	jmp    1bfc <.label3581>

0000000000001bfc <.label3581>:
    1bfc:	eb 00                	jmp    1bfe <.label3582>

0000000000001bfe <.label3582>:
    1bfe:	eb 00                	jmp    1c00 <.label3583>

0000000000001c00 <.label3583>:
    1c00:	eb 00                	jmp    1c02 <.label3584>

0000000000001c02 <.label3584>:
    1c02:	eb 00                	jmp    1c04 <.label3585>

0000000000001c04 <.label3585>:
    1c04:	eb 00                	jmp    1c06 <.label3586>

0000000000001c06 <.label3586>:
    1c06:	eb 00                	jmp    1c08 <.label3587>

0000000000001c08 <.label3587>:
    1c08:	eb 00                	jmp    1c0a <.label3588>

0000000000001c0a <.label3588>:
    1c0a:	eb 00                	jmp    1c0c <.label3589>

0000000000001c0c <.label3589>:
    1c0c:	eb 00                	jmp    1c0e <.label3590>

0000000000001c0e <.label3590>:
    1c0e:	eb 00                	jmp    1c10 <.label3591>

0000000000001c10 <.label3591>:
    1c10:	eb 00                	jmp    1c12 <.label3592>

0000000000001c12 <.label3592>:
    1c12:	eb 00                	jmp    1c14 <.label3593>

0000000000001c14 <.label3593>:
    1c14:	eb 00                	jmp    1c16 <.label3594>

0000000000001c16 <.label3594>:
    1c16:	eb 00                	jmp    1c18 <.label3595>

0000000000001c18 <.label3595>:
    1c18:	eb 00                	jmp    1c1a <.label3596>

0000000000001c1a <.label3596>:
    1c1a:	eb 00                	jmp    1c1c <.label3597>

0000000000001c1c <.label3597>:
    1c1c:	eb 00                	jmp    1c1e <.label3598>

0000000000001c1e <.label3598>:
    1c1e:	eb 00                	jmp    1c20 <.label3599>

0000000000001c20 <.label3599>:
    1c20:	eb 00                	jmp    1c22 <.label3600>

0000000000001c22 <.label3600>:
    1c22:	eb 00                	jmp    1c24 <.label3601>

0000000000001c24 <.label3601>:
    1c24:	eb 00                	jmp    1c26 <.label3602>

0000000000001c26 <.label3602>:
    1c26:	eb 00                	jmp    1c28 <.label3603>

0000000000001c28 <.label3603>:
    1c28:	eb 00                	jmp    1c2a <.label3604>

0000000000001c2a <.label3604>:
    1c2a:	eb 00                	jmp    1c2c <.label3605>

0000000000001c2c <.label3605>:
    1c2c:	eb 00                	jmp    1c2e <.label3606>

0000000000001c2e <.label3606>:
    1c2e:	eb 00                	jmp    1c30 <.label3607>

0000000000001c30 <.label3607>:
    1c30:	eb 00                	jmp    1c32 <.label3608>

0000000000001c32 <.label3608>:
    1c32:	eb 00                	jmp    1c34 <.label3609>

0000000000001c34 <.label3609>:
    1c34:	eb 00                	jmp    1c36 <.label3610>

0000000000001c36 <.label3610>:
    1c36:	eb 00                	jmp    1c38 <.label3611>

0000000000001c38 <.label3611>:
    1c38:	eb 00                	jmp    1c3a <.label3612>

0000000000001c3a <.label3612>:
    1c3a:	eb 00                	jmp    1c3c <.label3613>

0000000000001c3c <.label3613>:
    1c3c:	eb 00                	jmp    1c3e <.label3614>

0000000000001c3e <.label3614>:
    1c3e:	eb 00                	jmp    1c40 <.label3615>

0000000000001c40 <.label3615>:
    1c40:	eb 00                	jmp    1c42 <.label3616>

0000000000001c42 <.label3616>:
    1c42:	eb 00                	jmp    1c44 <.label3617>

0000000000001c44 <.label3617>:
    1c44:	eb 00                	jmp    1c46 <.label3618>

0000000000001c46 <.label3618>:
    1c46:	eb 00                	jmp    1c48 <.label3619>

0000000000001c48 <.label3619>:
    1c48:	eb 00                	jmp    1c4a <.label3620>

0000000000001c4a <.label3620>:
    1c4a:	eb 00                	jmp    1c4c <.label3621>

0000000000001c4c <.label3621>:
    1c4c:	eb 00                	jmp    1c4e <.label3622>

0000000000001c4e <.label3622>:
    1c4e:	eb 00                	jmp    1c50 <.label3623>

0000000000001c50 <.label3623>:
    1c50:	eb 00                	jmp    1c52 <.label3624>

0000000000001c52 <.label3624>:
    1c52:	eb 00                	jmp    1c54 <.label3625>

0000000000001c54 <.label3625>:
    1c54:	eb 00                	jmp    1c56 <.label3626>

0000000000001c56 <.label3626>:
    1c56:	eb 00                	jmp    1c58 <.label3627>

0000000000001c58 <.label3627>:
    1c58:	eb 00                	jmp    1c5a <.label3628>

0000000000001c5a <.label3628>:
    1c5a:	eb 00                	jmp    1c5c <.label3629>

0000000000001c5c <.label3629>:
    1c5c:	eb 00                	jmp    1c5e <.label3630>

0000000000001c5e <.label3630>:
    1c5e:	eb 00                	jmp    1c60 <.label3631>

0000000000001c60 <.label3631>:
    1c60:	eb 00                	jmp    1c62 <.label3632>

0000000000001c62 <.label3632>:
    1c62:	eb 00                	jmp    1c64 <.label3633>

0000000000001c64 <.label3633>:
    1c64:	eb 00                	jmp    1c66 <.label3634>

0000000000001c66 <.label3634>:
    1c66:	eb 00                	jmp    1c68 <.label3635>

0000000000001c68 <.label3635>:
    1c68:	eb 00                	jmp    1c6a <.label3636>

0000000000001c6a <.label3636>:
    1c6a:	eb 00                	jmp    1c6c <.label3637>

0000000000001c6c <.label3637>:
    1c6c:	eb 00                	jmp    1c6e <.label3638>

0000000000001c6e <.label3638>:
    1c6e:	eb 00                	jmp    1c70 <.label3639>

0000000000001c70 <.label3639>:
    1c70:	eb 00                	jmp    1c72 <.label3640>

0000000000001c72 <.label3640>:
    1c72:	eb 00                	jmp    1c74 <.label3641>

0000000000001c74 <.label3641>:
    1c74:	eb 00                	jmp    1c76 <.label3642>

0000000000001c76 <.label3642>:
    1c76:	eb 00                	jmp    1c78 <.label3643>

0000000000001c78 <.label3643>:
    1c78:	eb 00                	jmp    1c7a <.label3644>

0000000000001c7a <.label3644>:
    1c7a:	eb 00                	jmp    1c7c <.label3645>

0000000000001c7c <.label3645>:
    1c7c:	eb 00                	jmp    1c7e <.label3646>

0000000000001c7e <.label3646>:
    1c7e:	eb 00                	jmp    1c80 <.label3647>

0000000000001c80 <.label3647>:
    1c80:	eb 00                	jmp    1c82 <.label3648>

0000000000001c82 <.label3648>:
    1c82:	eb 00                	jmp    1c84 <.label3649>

0000000000001c84 <.label3649>:
    1c84:	eb 00                	jmp    1c86 <.label3650>

0000000000001c86 <.label3650>:
    1c86:	eb 00                	jmp    1c88 <.label3651>

0000000000001c88 <.label3651>:
    1c88:	eb 00                	jmp    1c8a <.label3652>

0000000000001c8a <.label3652>:
    1c8a:	eb 00                	jmp    1c8c <.label3653>

0000000000001c8c <.label3653>:
    1c8c:	eb 00                	jmp    1c8e <.label3654>

0000000000001c8e <.label3654>:
    1c8e:	eb 00                	jmp    1c90 <.label3655>

0000000000001c90 <.label3655>:
    1c90:	eb 00                	jmp    1c92 <.label3656>

0000000000001c92 <.label3656>:
    1c92:	eb 00                	jmp    1c94 <.label3657>

0000000000001c94 <.label3657>:
    1c94:	eb 00                	jmp    1c96 <.label3658>

0000000000001c96 <.label3658>:
    1c96:	eb 00                	jmp    1c98 <.label3659>

0000000000001c98 <.label3659>:
    1c98:	eb 00                	jmp    1c9a <.label3660>

0000000000001c9a <.label3660>:
    1c9a:	eb 00                	jmp    1c9c <.label3661>

0000000000001c9c <.label3661>:
    1c9c:	eb 00                	jmp    1c9e <.label3662>

0000000000001c9e <.label3662>:
    1c9e:	eb 00                	jmp    1ca0 <.label3663>

0000000000001ca0 <.label3663>:
    1ca0:	eb 00                	jmp    1ca2 <.label3664>

0000000000001ca2 <.label3664>:
    1ca2:	eb 00                	jmp    1ca4 <.label3665>

0000000000001ca4 <.label3665>:
    1ca4:	eb 00                	jmp    1ca6 <.label3666>

0000000000001ca6 <.label3666>:
    1ca6:	eb 00                	jmp    1ca8 <.label3667>

0000000000001ca8 <.label3667>:
    1ca8:	eb 00                	jmp    1caa <.label3668>

0000000000001caa <.label3668>:
    1caa:	eb 00                	jmp    1cac <.label3669>

0000000000001cac <.label3669>:
    1cac:	eb 00                	jmp    1cae <.label3670>

0000000000001cae <.label3670>:
    1cae:	eb 00                	jmp    1cb0 <.label3671>

0000000000001cb0 <.label3671>:
    1cb0:	eb 00                	jmp    1cb2 <.label3672>

0000000000001cb2 <.label3672>:
    1cb2:	eb 00                	jmp    1cb4 <.label3673>

0000000000001cb4 <.label3673>:
    1cb4:	eb 00                	jmp    1cb6 <.label3674>

0000000000001cb6 <.label3674>:
    1cb6:	eb 00                	jmp    1cb8 <.label3675>

0000000000001cb8 <.label3675>:
    1cb8:	eb 00                	jmp    1cba <.label3676>

0000000000001cba <.label3676>:
    1cba:	eb 00                	jmp    1cbc <.label3677>

0000000000001cbc <.label3677>:
    1cbc:	eb 00                	jmp    1cbe <.label3678>

0000000000001cbe <.label3678>:
    1cbe:	eb 00                	jmp    1cc0 <.label3679>

0000000000001cc0 <.label3679>:
    1cc0:	eb 00                	jmp    1cc2 <.label3680>

0000000000001cc2 <.label3680>:
    1cc2:	eb 00                	jmp    1cc4 <.label3681>

0000000000001cc4 <.label3681>:
    1cc4:	eb 00                	jmp    1cc6 <.label3682>

0000000000001cc6 <.label3682>:
    1cc6:	eb 00                	jmp    1cc8 <.label3683>

0000000000001cc8 <.label3683>:
    1cc8:	eb 00                	jmp    1cca <.label3684>

0000000000001cca <.label3684>:
    1cca:	eb 00                	jmp    1ccc <.label3685>

0000000000001ccc <.label3685>:
    1ccc:	eb 00                	jmp    1cce <.label3686>

0000000000001cce <.label3686>:
    1cce:	eb 00                	jmp    1cd0 <.label3687>

0000000000001cd0 <.label3687>:
    1cd0:	eb 00                	jmp    1cd2 <.label3688>

0000000000001cd2 <.label3688>:
    1cd2:	eb 00                	jmp    1cd4 <.label3689>

0000000000001cd4 <.label3689>:
    1cd4:	eb 00                	jmp    1cd6 <.label3690>

0000000000001cd6 <.label3690>:
    1cd6:	eb 00                	jmp    1cd8 <.label3691>

0000000000001cd8 <.label3691>:
    1cd8:	eb 00                	jmp    1cda <.label3692>

0000000000001cda <.label3692>:
    1cda:	eb 00                	jmp    1cdc <.label3693>

0000000000001cdc <.label3693>:
    1cdc:	eb 00                	jmp    1cde <.label3694>

0000000000001cde <.label3694>:
    1cde:	eb 00                	jmp    1ce0 <.label3695>

0000000000001ce0 <.label3695>:
    1ce0:	eb 00                	jmp    1ce2 <.label3696>

0000000000001ce2 <.label3696>:
    1ce2:	eb 00                	jmp    1ce4 <.label3697>

0000000000001ce4 <.label3697>:
    1ce4:	eb 00                	jmp    1ce6 <.label3698>

0000000000001ce6 <.label3698>:
    1ce6:	eb 00                	jmp    1ce8 <.label3699>

0000000000001ce8 <.label3699>:
    1ce8:	eb 00                	jmp    1cea <.label3700>

0000000000001cea <.label3700>:
    1cea:	eb 00                	jmp    1cec <.label3701>

0000000000001cec <.label3701>:
    1cec:	eb 00                	jmp    1cee <.label3702>

0000000000001cee <.label3702>:
    1cee:	eb 00                	jmp    1cf0 <.label3703>

0000000000001cf0 <.label3703>:
    1cf0:	eb 00                	jmp    1cf2 <.label3704>

0000000000001cf2 <.label3704>:
    1cf2:	eb 00                	jmp    1cf4 <.label3705>

0000000000001cf4 <.label3705>:
    1cf4:	eb 00                	jmp    1cf6 <.label3706>

0000000000001cf6 <.label3706>:
    1cf6:	eb 00                	jmp    1cf8 <.label3707>

0000000000001cf8 <.label3707>:
    1cf8:	eb 00                	jmp    1cfa <.label3708>

0000000000001cfa <.label3708>:
    1cfa:	eb 00                	jmp    1cfc <.label3709>

0000000000001cfc <.label3709>:
    1cfc:	eb 00                	jmp    1cfe <.label3710>

0000000000001cfe <.label3710>:
    1cfe:	eb 00                	jmp    1d00 <.label3711>

0000000000001d00 <.label3711>:
    1d00:	eb 00                	jmp    1d02 <.label3712>

0000000000001d02 <.label3712>:
    1d02:	eb 00                	jmp    1d04 <.label3713>

0000000000001d04 <.label3713>:
    1d04:	eb 00                	jmp    1d06 <.label3714>

0000000000001d06 <.label3714>:
    1d06:	eb 00                	jmp    1d08 <.label3715>

0000000000001d08 <.label3715>:
    1d08:	eb 00                	jmp    1d0a <.label3716>

0000000000001d0a <.label3716>:
    1d0a:	eb 00                	jmp    1d0c <.label3717>

0000000000001d0c <.label3717>:
    1d0c:	eb 00                	jmp    1d0e <.label3718>

0000000000001d0e <.label3718>:
    1d0e:	eb 00                	jmp    1d10 <.label3719>

0000000000001d10 <.label3719>:
    1d10:	eb 00                	jmp    1d12 <.label3720>

0000000000001d12 <.label3720>:
    1d12:	eb 00                	jmp    1d14 <.label3721>

0000000000001d14 <.label3721>:
    1d14:	eb 00                	jmp    1d16 <.label3722>

0000000000001d16 <.label3722>:
    1d16:	eb 00                	jmp    1d18 <.label3723>

0000000000001d18 <.label3723>:
    1d18:	eb 00                	jmp    1d1a <.label3724>

0000000000001d1a <.label3724>:
    1d1a:	eb 00                	jmp    1d1c <.label3725>

0000000000001d1c <.label3725>:
    1d1c:	eb 00                	jmp    1d1e <.label3726>

0000000000001d1e <.label3726>:
    1d1e:	eb 00                	jmp    1d20 <.label3727>

0000000000001d20 <.label3727>:
    1d20:	eb 00                	jmp    1d22 <.label3728>

0000000000001d22 <.label3728>:
    1d22:	eb 00                	jmp    1d24 <.label3729>

0000000000001d24 <.label3729>:
    1d24:	eb 00                	jmp    1d26 <.label3730>

0000000000001d26 <.label3730>:
    1d26:	eb 00                	jmp    1d28 <.label3731>

0000000000001d28 <.label3731>:
    1d28:	eb 00                	jmp    1d2a <.label3732>

0000000000001d2a <.label3732>:
    1d2a:	eb 00                	jmp    1d2c <.label3733>

0000000000001d2c <.label3733>:
    1d2c:	eb 00                	jmp    1d2e <.label3734>

0000000000001d2e <.label3734>:
    1d2e:	eb 00                	jmp    1d30 <.label3735>

0000000000001d30 <.label3735>:
    1d30:	eb 00                	jmp    1d32 <.label3736>

0000000000001d32 <.label3736>:
    1d32:	eb 00                	jmp    1d34 <.label3737>

0000000000001d34 <.label3737>:
    1d34:	eb 00                	jmp    1d36 <.label3738>

0000000000001d36 <.label3738>:
    1d36:	eb 00                	jmp    1d38 <.label3739>

0000000000001d38 <.label3739>:
    1d38:	eb 00                	jmp    1d3a <.label3740>

0000000000001d3a <.label3740>:
    1d3a:	eb 00                	jmp    1d3c <.label3741>

0000000000001d3c <.label3741>:
    1d3c:	eb 00                	jmp    1d3e <.label3742>

0000000000001d3e <.label3742>:
    1d3e:	eb 00                	jmp    1d40 <.label3743>

0000000000001d40 <.label3743>:
    1d40:	eb 00                	jmp    1d42 <.label3744>

0000000000001d42 <.label3744>:
    1d42:	eb 00                	jmp    1d44 <.label3745>

0000000000001d44 <.label3745>:
    1d44:	eb 00                	jmp    1d46 <.label3746>

0000000000001d46 <.label3746>:
    1d46:	eb 00                	jmp    1d48 <.label3747>

0000000000001d48 <.label3747>:
    1d48:	eb 00                	jmp    1d4a <.label3748>

0000000000001d4a <.label3748>:
    1d4a:	eb 00                	jmp    1d4c <.label3749>

0000000000001d4c <.label3749>:
    1d4c:	eb 00                	jmp    1d4e <.label3750>

0000000000001d4e <.label3750>:
    1d4e:	eb 00                	jmp    1d50 <.label3751>

0000000000001d50 <.label3751>:
    1d50:	eb 00                	jmp    1d52 <.label3752>

0000000000001d52 <.label3752>:
    1d52:	eb 00                	jmp    1d54 <.label3753>

0000000000001d54 <.label3753>:
    1d54:	eb 00                	jmp    1d56 <.label3754>

0000000000001d56 <.label3754>:
    1d56:	eb 00                	jmp    1d58 <.label3755>

0000000000001d58 <.label3755>:
    1d58:	eb 00                	jmp    1d5a <.label3756>

0000000000001d5a <.label3756>:
    1d5a:	eb 00                	jmp    1d5c <.label3757>

0000000000001d5c <.label3757>:
    1d5c:	eb 00                	jmp    1d5e <.label3758>

0000000000001d5e <.label3758>:
    1d5e:	eb 00                	jmp    1d60 <.label3759>

0000000000001d60 <.label3759>:
    1d60:	eb 00                	jmp    1d62 <.label3760>

0000000000001d62 <.label3760>:
    1d62:	eb 00                	jmp    1d64 <.label3761>

0000000000001d64 <.label3761>:
    1d64:	eb 00                	jmp    1d66 <.label3762>

0000000000001d66 <.label3762>:
    1d66:	eb 00                	jmp    1d68 <.label3763>

0000000000001d68 <.label3763>:
    1d68:	eb 00                	jmp    1d6a <.label3764>

0000000000001d6a <.label3764>:
    1d6a:	eb 00                	jmp    1d6c <.label3765>

0000000000001d6c <.label3765>:
    1d6c:	eb 00                	jmp    1d6e <.label3766>

0000000000001d6e <.label3766>:
    1d6e:	eb 00                	jmp    1d70 <.label3767>

0000000000001d70 <.label3767>:
    1d70:	eb 00                	jmp    1d72 <.label3768>

0000000000001d72 <.label3768>:
    1d72:	eb 00                	jmp    1d74 <.label3769>

0000000000001d74 <.label3769>:
    1d74:	eb 00                	jmp    1d76 <.label3770>

0000000000001d76 <.label3770>:
    1d76:	eb 00                	jmp    1d78 <.label3771>

0000000000001d78 <.label3771>:
    1d78:	eb 00                	jmp    1d7a <.label3772>

0000000000001d7a <.label3772>:
    1d7a:	eb 00                	jmp    1d7c <.label3773>

0000000000001d7c <.label3773>:
    1d7c:	eb 00                	jmp    1d7e <.label3774>

0000000000001d7e <.label3774>:
    1d7e:	eb 00                	jmp    1d80 <.label3775>

0000000000001d80 <.label3775>:
    1d80:	eb 00                	jmp    1d82 <.label3776>

0000000000001d82 <.label3776>:
    1d82:	eb 00                	jmp    1d84 <.label3777>

0000000000001d84 <.label3777>:
    1d84:	eb 00                	jmp    1d86 <.label3778>

0000000000001d86 <.label3778>:
    1d86:	eb 00                	jmp    1d88 <.label3779>

0000000000001d88 <.label3779>:
    1d88:	eb 00                	jmp    1d8a <.label3780>

0000000000001d8a <.label3780>:
    1d8a:	eb 00                	jmp    1d8c <.label3781>

0000000000001d8c <.label3781>:
    1d8c:	eb 00                	jmp    1d8e <.label3782>

0000000000001d8e <.label3782>:
    1d8e:	eb 00                	jmp    1d90 <.label3783>

0000000000001d90 <.label3783>:
    1d90:	eb 00                	jmp    1d92 <.label3784>

0000000000001d92 <.label3784>:
    1d92:	eb 00                	jmp    1d94 <.label3785>

0000000000001d94 <.label3785>:
    1d94:	eb 00                	jmp    1d96 <.label3786>

0000000000001d96 <.label3786>:
    1d96:	eb 00                	jmp    1d98 <.label3787>

0000000000001d98 <.label3787>:
    1d98:	eb 00                	jmp    1d9a <.label3788>

0000000000001d9a <.label3788>:
    1d9a:	eb 00                	jmp    1d9c <.label3789>

0000000000001d9c <.label3789>:
    1d9c:	eb 00                	jmp    1d9e <.label3790>

0000000000001d9e <.label3790>:
    1d9e:	eb 00                	jmp    1da0 <.label3791>

0000000000001da0 <.label3791>:
    1da0:	eb 00                	jmp    1da2 <.label3792>

0000000000001da2 <.label3792>:
    1da2:	eb 00                	jmp    1da4 <.label3793>

0000000000001da4 <.label3793>:
    1da4:	eb 00                	jmp    1da6 <.label3794>

0000000000001da6 <.label3794>:
    1da6:	eb 00                	jmp    1da8 <.label3795>

0000000000001da8 <.label3795>:
    1da8:	eb 00                	jmp    1daa <.label3796>

0000000000001daa <.label3796>:
    1daa:	eb 00                	jmp    1dac <.label3797>

0000000000001dac <.label3797>:
    1dac:	eb 00                	jmp    1dae <.label3798>

0000000000001dae <.label3798>:
    1dae:	eb 00                	jmp    1db0 <.label3799>

0000000000001db0 <.label3799>:
    1db0:	eb 00                	jmp    1db2 <.label3800>

0000000000001db2 <.label3800>:
    1db2:	eb 00                	jmp    1db4 <.label3801>

0000000000001db4 <.label3801>:
    1db4:	eb 00                	jmp    1db6 <.label3802>

0000000000001db6 <.label3802>:
    1db6:	eb 00                	jmp    1db8 <.label3803>

0000000000001db8 <.label3803>:
    1db8:	eb 00                	jmp    1dba <.label3804>

0000000000001dba <.label3804>:
    1dba:	eb 00                	jmp    1dbc <.label3805>

0000000000001dbc <.label3805>:
    1dbc:	eb 00                	jmp    1dbe <.label3806>

0000000000001dbe <.label3806>:
    1dbe:	eb 00                	jmp    1dc0 <.label3807>

0000000000001dc0 <.label3807>:
    1dc0:	eb 00                	jmp    1dc2 <.label3808>

0000000000001dc2 <.label3808>:
    1dc2:	eb 00                	jmp    1dc4 <.label3809>

0000000000001dc4 <.label3809>:
    1dc4:	eb 00                	jmp    1dc6 <.label3810>

0000000000001dc6 <.label3810>:
    1dc6:	eb 00                	jmp    1dc8 <.label3811>

0000000000001dc8 <.label3811>:
    1dc8:	eb 00                	jmp    1dca <.label3812>

0000000000001dca <.label3812>:
    1dca:	eb 00                	jmp    1dcc <.label3813>

0000000000001dcc <.label3813>:
    1dcc:	eb 00                	jmp    1dce <.label3814>

0000000000001dce <.label3814>:
    1dce:	eb 00                	jmp    1dd0 <.label3815>

0000000000001dd0 <.label3815>:
    1dd0:	eb 00                	jmp    1dd2 <.label3816>

0000000000001dd2 <.label3816>:
    1dd2:	eb 00                	jmp    1dd4 <.label3817>

0000000000001dd4 <.label3817>:
    1dd4:	eb 00                	jmp    1dd6 <.label3818>

0000000000001dd6 <.label3818>:
    1dd6:	eb 00                	jmp    1dd8 <.label3819>

0000000000001dd8 <.label3819>:
    1dd8:	eb 00                	jmp    1dda <.label3820>

0000000000001dda <.label3820>:
    1dda:	eb 00                	jmp    1ddc <.label3821>

0000000000001ddc <.label3821>:
    1ddc:	eb 00                	jmp    1dde <.label3822>

0000000000001dde <.label3822>:
    1dde:	eb 00                	jmp    1de0 <.label3823>

0000000000001de0 <.label3823>:
    1de0:	eb 00                	jmp    1de2 <.label3824>

0000000000001de2 <.label3824>:
    1de2:	eb 00                	jmp    1de4 <.label3825>

0000000000001de4 <.label3825>:
    1de4:	eb 00                	jmp    1de6 <.label3826>

0000000000001de6 <.label3826>:
    1de6:	eb 00                	jmp    1de8 <.label3827>

0000000000001de8 <.label3827>:
    1de8:	eb 00                	jmp    1dea <.label3828>

0000000000001dea <.label3828>:
    1dea:	eb 00                	jmp    1dec <.label3829>

0000000000001dec <.label3829>:
    1dec:	eb 00                	jmp    1dee <.label3830>

0000000000001dee <.label3830>:
    1dee:	eb 00                	jmp    1df0 <.label3831>

0000000000001df0 <.label3831>:
    1df0:	eb 00                	jmp    1df2 <.label3832>

0000000000001df2 <.label3832>:
    1df2:	eb 00                	jmp    1df4 <.label3833>

0000000000001df4 <.label3833>:
    1df4:	eb 00                	jmp    1df6 <.label3834>

0000000000001df6 <.label3834>:
    1df6:	eb 00                	jmp    1df8 <.label3835>

0000000000001df8 <.label3835>:
    1df8:	eb 00                	jmp    1dfa <.label3836>

0000000000001dfa <.label3836>:
    1dfa:	eb 00                	jmp    1dfc <.label3837>

0000000000001dfc <.label3837>:
    1dfc:	eb 00                	jmp    1dfe <.label3838>

0000000000001dfe <.label3838>:
    1dfe:	eb 00                	jmp    1e00 <.label3839>

0000000000001e00 <.label3839>:
    1e00:	eb 00                	jmp    1e02 <.label3840>

0000000000001e02 <.label3840>:
    1e02:	eb 00                	jmp    1e04 <.label3841>

0000000000001e04 <.label3841>:
    1e04:	eb 00                	jmp    1e06 <.label3842>

0000000000001e06 <.label3842>:
    1e06:	eb 00                	jmp    1e08 <.label3843>

0000000000001e08 <.label3843>:
    1e08:	eb 00                	jmp    1e0a <.label3844>

0000000000001e0a <.label3844>:
    1e0a:	eb 00                	jmp    1e0c <.label3845>

0000000000001e0c <.label3845>:
    1e0c:	eb 00                	jmp    1e0e <.label3846>

0000000000001e0e <.label3846>:
    1e0e:	eb 00                	jmp    1e10 <.label3847>

0000000000001e10 <.label3847>:
    1e10:	eb 00                	jmp    1e12 <.label3848>

0000000000001e12 <.label3848>:
    1e12:	eb 00                	jmp    1e14 <.label3849>

0000000000001e14 <.label3849>:
    1e14:	eb 00                	jmp    1e16 <.label3850>

0000000000001e16 <.label3850>:
    1e16:	eb 00                	jmp    1e18 <.label3851>

0000000000001e18 <.label3851>:
    1e18:	eb 00                	jmp    1e1a <.label3852>

0000000000001e1a <.label3852>:
    1e1a:	eb 00                	jmp    1e1c <.label3853>

0000000000001e1c <.label3853>:
    1e1c:	eb 00                	jmp    1e1e <.label3854>

0000000000001e1e <.label3854>:
    1e1e:	eb 00                	jmp    1e20 <.label3855>

0000000000001e20 <.label3855>:
    1e20:	eb 00                	jmp    1e22 <.label3856>

0000000000001e22 <.label3856>:
    1e22:	eb 00                	jmp    1e24 <.label3857>

0000000000001e24 <.label3857>:
    1e24:	eb 00                	jmp    1e26 <.label3858>

0000000000001e26 <.label3858>:
    1e26:	eb 00                	jmp    1e28 <.label3859>

0000000000001e28 <.label3859>:
    1e28:	eb 00                	jmp    1e2a <.label3860>

0000000000001e2a <.label3860>:
    1e2a:	eb 00                	jmp    1e2c <.label3861>

0000000000001e2c <.label3861>:
    1e2c:	eb 00                	jmp    1e2e <.label3862>

0000000000001e2e <.label3862>:
    1e2e:	eb 00                	jmp    1e30 <.label3863>

0000000000001e30 <.label3863>:
    1e30:	eb 00                	jmp    1e32 <.label3864>

0000000000001e32 <.label3864>:
    1e32:	eb 00                	jmp    1e34 <.label3865>

0000000000001e34 <.label3865>:
    1e34:	eb 00                	jmp    1e36 <.label3866>

0000000000001e36 <.label3866>:
    1e36:	eb 00                	jmp    1e38 <.label3867>

0000000000001e38 <.label3867>:
    1e38:	eb 00                	jmp    1e3a <.label3868>

0000000000001e3a <.label3868>:
    1e3a:	eb 00                	jmp    1e3c <.label3869>

0000000000001e3c <.label3869>:
    1e3c:	eb 00                	jmp    1e3e <.label3870>

0000000000001e3e <.label3870>:
    1e3e:	eb 00                	jmp    1e40 <.label3871>

0000000000001e40 <.label3871>:
    1e40:	eb 00                	jmp    1e42 <.label3872>

0000000000001e42 <.label3872>:
    1e42:	eb 00                	jmp    1e44 <.label3873>

0000000000001e44 <.label3873>:
    1e44:	eb 00                	jmp    1e46 <.label3874>

0000000000001e46 <.label3874>:
    1e46:	eb 00                	jmp    1e48 <.label3875>

0000000000001e48 <.label3875>:
    1e48:	eb 00                	jmp    1e4a <.label3876>

0000000000001e4a <.label3876>:
    1e4a:	eb 00                	jmp    1e4c <.label3877>

0000000000001e4c <.label3877>:
    1e4c:	eb 00                	jmp    1e4e <.label3878>

0000000000001e4e <.label3878>:
    1e4e:	eb 00                	jmp    1e50 <.label3879>

0000000000001e50 <.label3879>:
    1e50:	eb 00                	jmp    1e52 <.label3880>

0000000000001e52 <.label3880>:
    1e52:	eb 00                	jmp    1e54 <.label3881>

0000000000001e54 <.label3881>:
    1e54:	eb 00                	jmp    1e56 <.label3882>

0000000000001e56 <.label3882>:
    1e56:	eb 00                	jmp    1e58 <.label3883>

0000000000001e58 <.label3883>:
    1e58:	eb 00                	jmp    1e5a <.label3884>

0000000000001e5a <.label3884>:
    1e5a:	eb 00                	jmp    1e5c <.label3885>

0000000000001e5c <.label3885>:
    1e5c:	eb 00                	jmp    1e5e <.label3886>

0000000000001e5e <.label3886>:
    1e5e:	eb 00                	jmp    1e60 <.label3887>

0000000000001e60 <.label3887>:
    1e60:	eb 00                	jmp    1e62 <.label3888>

0000000000001e62 <.label3888>:
    1e62:	eb 00                	jmp    1e64 <.label3889>

0000000000001e64 <.label3889>:
    1e64:	eb 00                	jmp    1e66 <.label3890>

0000000000001e66 <.label3890>:
    1e66:	eb 00                	jmp    1e68 <.label3891>

0000000000001e68 <.label3891>:
    1e68:	eb 00                	jmp    1e6a <.label3892>

0000000000001e6a <.label3892>:
    1e6a:	eb 00                	jmp    1e6c <.label3893>

0000000000001e6c <.label3893>:
    1e6c:	eb 00                	jmp    1e6e <.label3894>

0000000000001e6e <.label3894>:
    1e6e:	eb 00                	jmp    1e70 <.label3895>

0000000000001e70 <.label3895>:
    1e70:	eb 00                	jmp    1e72 <.label3896>

0000000000001e72 <.label3896>:
    1e72:	eb 00                	jmp    1e74 <.label3897>

0000000000001e74 <.label3897>:
    1e74:	eb 00                	jmp    1e76 <.label3898>

0000000000001e76 <.label3898>:
    1e76:	eb 00                	jmp    1e78 <.label3899>

0000000000001e78 <.label3899>:
    1e78:	eb 00                	jmp    1e7a <.label3900>

0000000000001e7a <.label3900>:
    1e7a:	eb 00                	jmp    1e7c <.label3901>

0000000000001e7c <.label3901>:
    1e7c:	eb 00                	jmp    1e7e <.label3902>

0000000000001e7e <.label3902>:
    1e7e:	eb 00                	jmp    1e80 <.label3903>

0000000000001e80 <.label3903>:
    1e80:	eb 00                	jmp    1e82 <.label3904>

0000000000001e82 <.label3904>:
    1e82:	eb 00                	jmp    1e84 <.label3905>

0000000000001e84 <.label3905>:
    1e84:	eb 00                	jmp    1e86 <.label3906>

0000000000001e86 <.label3906>:
    1e86:	eb 00                	jmp    1e88 <.label3907>

0000000000001e88 <.label3907>:
    1e88:	eb 00                	jmp    1e8a <.label3908>

0000000000001e8a <.label3908>:
    1e8a:	eb 00                	jmp    1e8c <.label3909>

0000000000001e8c <.label3909>:
    1e8c:	eb 00                	jmp    1e8e <.label3910>

0000000000001e8e <.label3910>:
    1e8e:	eb 00                	jmp    1e90 <.label3911>

0000000000001e90 <.label3911>:
    1e90:	eb 00                	jmp    1e92 <.label3912>

0000000000001e92 <.label3912>:
    1e92:	eb 00                	jmp    1e94 <.label3913>

0000000000001e94 <.label3913>:
    1e94:	eb 00                	jmp    1e96 <.label3914>

0000000000001e96 <.label3914>:
    1e96:	eb 00                	jmp    1e98 <.label3915>

0000000000001e98 <.label3915>:
    1e98:	eb 00                	jmp    1e9a <.label3916>

0000000000001e9a <.label3916>:
    1e9a:	eb 00                	jmp    1e9c <.label3917>

0000000000001e9c <.label3917>:
    1e9c:	eb 00                	jmp    1e9e <.label3918>

0000000000001e9e <.label3918>:
    1e9e:	eb 00                	jmp    1ea0 <.label3919>

0000000000001ea0 <.label3919>:
    1ea0:	eb 00                	jmp    1ea2 <.label3920>

0000000000001ea2 <.label3920>:
    1ea2:	eb 00                	jmp    1ea4 <.label3921>

0000000000001ea4 <.label3921>:
    1ea4:	eb 00                	jmp    1ea6 <.label3922>

0000000000001ea6 <.label3922>:
    1ea6:	eb 00                	jmp    1ea8 <.label3923>

0000000000001ea8 <.label3923>:
    1ea8:	eb 00                	jmp    1eaa <.label3924>

0000000000001eaa <.label3924>:
    1eaa:	eb 00                	jmp    1eac <.label3925>

0000000000001eac <.label3925>:
    1eac:	eb 00                	jmp    1eae <.label3926>

0000000000001eae <.label3926>:
    1eae:	eb 00                	jmp    1eb0 <.label3927>

0000000000001eb0 <.label3927>:
    1eb0:	eb 00                	jmp    1eb2 <.label3928>

0000000000001eb2 <.label3928>:
    1eb2:	eb 00                	jmp    1eb4 <.label3929>

0000000000001eb4 <.label3929>:
    1eb4:	eb 00                	jmp    1eb6 <.label3930>

0000000000001eb6 <.label3930>:
    1eb6:	eb 00                	jmp    1eb8 <.label3931>

0000000000001eb8 <.label3931>:
    1eb8:	eb 00                	jmp    1eba <.label3932>

0000000000001eba <.label3932>:
    1eba:	eb 00                	jmp    1ebc <.label3933>

0000000000001ebc <.label3933>:
    1ebc:	eb 00                	jmp    1ebe <.label3934>

0000000000001ebe <.label3934>:
    1ebe:	eb 00                	jmp    1ec0 <.label3935>

0000000000001ec0 <.label3935>:
    1ec0:	eb 00                	jmp    1ec2 <.label3936>

0000000000001ec2 <.label3936>:
    1ec2:	eb 00                	jmp    1ec4 <.label3937>

0000000000001ec4 <.label3937>:
    1ec4:	eb 00                	jmp    1ec6 <.label3938>

0000000000001ec6 <.label3938>:
    1ec6:	eb 00                	jmp    1ec8 <.label3939>

0000000000001ec8 <.label3939>:
    1ec8:	eb 00                	jmp    1eca <.label3940>

0000000000001eca <.label3940>:
    1eca:	eb 00                	jmp    1ecc <.label3941>

0000000000001ecc <.label3941>:
    1ecc:	eb 00                	jmp    1ece <.label3942>

0000000000001ece <.label3942>:
    1ece:	eb 00                	jmp    1ed0 <.label3943>

0000000000001ed0 <.label3943>:
    1ed0:	eb 00                	jmp    1ed2 <.label3944>

0000000000001ed2 <.label3944>:
    1ed2:	eb 00                	jmp    1ed4 <.label3945>

0000000000001ed4 <.label3945>:
    1ed4:	eb 00                	jmp    1ed6 <.label3946>

0000000000001ed6 <.label3946>:
    1ed6:	eb 00                	jmp    1ed8 <.label3947>

0000000000001ed8 <.label3947>:
    1ed8:	eb 00                	jmp    1eda <.label3948>

0000000000001eda <.label3948>:
    1eda:	eb 00                	jmp    1edc <.label3949>

0000000000001edc <.label3949>:
    1edc:	eb 00                	jmp    1ede <.label3950>

0000000000001ede <.label3950>:
    1ede:	eb 00                	jmp    1ee0 <.label3951>

0000000000001ee0 <.label3951>:
    1ee0:	eb 00                	jmp    1ee2 <.label3952>

0000000000001ee2 <.label3952>:
    1ee2:	eb 00                	jmp    1ee4 <.label3953>

0000000000001ee4 <.label3953>:
    1ee4:	eb 00                	jmp    1ee6 <.label3954>

0000000000001ee6 <.label3954>:
    1ee6:	eb 00                	jmp    1ee8 <.label3955>

0000000000001ee8 <.label3955>:
    1ee8:	eb 00                	jmp    1eea <.label3956>

0000000000001eea <.label3956>:
    1eea:	eb 00                	jmp    1eec <.label3957>

0000000000001eec <.label3957>:
    1eec:	eb 00                	jmp    1eee <.label3958>

0000000000001eee <.label3958>:
    1eee:	eb 00                	jmp    1ef0 <.label3959>

0000000000001ef0 <.label3959>:
    1ef0:	eb 00                	jmp    1ef2 <.label3960>

0000000000001ef2 <.label3960>:
    1ef2:	eb 00                	jmp    1ef4 <.label3961>

0000000000001ef4 <.label3961>:
    1ef4:	eb 00                	jmp    1ef6 <.label3962>

0000000000001ef6 <.label3962>:
    1ef6:	eb 00                	jmp    1ef8 <.label3963>

0000000000001ef8 <.label3963>:
    1ef8:	eb 00                	jmp    1efa <.label3964>

0000000000001efa <.label3964>:
    1efa:	eb 00                	jmp    1efc <.label3965>

0000000000001efc <.label3965>:
    1efc:	eb 00                	jmp    1efe <.label3966>

0000000000001efe <.label3966>:
    1efe:	eb 00                	jmp    1f00 <.label3967>

0000000000001f00 <.label3967>:
    1f00:	eb 00                	jmp    1f02 <.label3968>

0000000000001f02 <.label3968>:
    1f02:	eb 00                	jmp    1f04 <.label3969>

0000000000001f04 <.label3969>:
    1f04:	eb 00                	jmp    1f06 <.label3970>

0000000000001f06 <.label3970>:
    1f06:	eb 00                	jmp    1f08 <.label3971>

0000000000001f08 <.label3971>:
    1f08:	eb 00                	jmp    1f0a <.label3972>

0000000000001f0a <.label3972>:
    1f0a:	eb 00                	jmp    1f0c <.label3973>

0000000000001f0c <.label3973>:
    1f0c:	eb 00                	jmp    1f0e <.label3974>

0000000000001f0e <.label3974>:
    1f0e:	eb 00                	jmp    1f10 <.label3975>

0000000000001f10 <.label3975>:
    1f10:	eb 00                	jmp    1f12 <.label3976>

0000000000001f12 <.label3976>:
    1f12:	eb 00                	jmp    1f14 <.label3977>

0000000000001f14 <.label3977>:
    1f14:	eb 00                	jmp    1f16 <.label3978>

0000000000001f16 <.label3978>:
    1f16:	eb 00                	jmp    1f18 <.label3979>

0000000000001f18 <.label3979>:
    1f18:	eb 00                	jmp    1f1a <.label3980>

0000000000001f1a <.label3980>:
    1f1a:	eb 00                	jmp    1f1c <.label3981>

0000000000001f1c <.label3981>:
    1f1c:	eb 00                	jmp    1f1e <.label3982>

0000000000001f1e <.label3982>:
    1f1e:	eb 00                	jmp    1f20 <.label3983>

0000000000001f20 <.label3983>:
    1f20:	eb 00                	jmp    1f22 <.label3984>

0000000000001f22 <.label3984>:
    1f22:	eb 00                	jmp    1f24 <.label3985>

0000000000001f24 <.label3985>:
    1f24:	eb 00                	jmp    1f26 <.label3986>

0000000000001f26 <.label3986>:
    1f26:	eb 00                	jmp    1f28 <.label3987>

0000000000001f28 <.label3987>:
    1f28:	eb 00                	jmp    1f2a <.label3988>

0000000000001f2a <.label3988>:
    1f2a:	eb 00                	jmp    1f2c <.label3989>

0000000000001f2c <.label3989>:
    1f2c:	eb 00                	jmp    1f2e <.label3990>

0000000000001f2e <.label3990>:
    1f2e:	eb 00                	jmp    1f30 <.label3991>

0000000000001f30 <.label3991>:
    1f30:	eb 00                	jmp    1f32 <.label3992>

0000000000001f32 <.label3992>:
    1f32:	eb 00                	jmp    1f34 <.label3993>

0000000000001f34 <.label3993>:
    1f34:	eb 00                	jmp    1f36 <.label3994>

0000000000001f36 <.label3994>:
    1f36:	eb 00                	jmp    1f38 <.label3995>

0000000000001f38 <.label3995>:
    1f38:	eb 00                	jmp    1f3a <.label3996>

0000000000001f3a <.label3996>:
    1f3a:	eb 00                	jmp    1f3c <.label3997>

0000000000001f3c <.label3997>:
    1f3c:	eb 00                	jmp    1f3e <.label3998>

0000000000001f3e <.label3998>:
    1f3e:	eb 00                	jmp    1f40 <.label3999>

0000000000001f40 <.label3999>:
    1f40:	eb 00                	jmp    1f42 <.label4000>

0000000000001f42 <.label4000>:
    1f42:	eb 00                	jmp    1f44 <.label4001>

0000000000001f44 <.label4001>:
    1f44:	eb 00                	jmp    1f46 <.label4002>

0000000000001f46 <.label4002>:
    1f46:	eb 00                	jmp    1f48 <.label4003>

0000000000001f48 <.label4003>:
    1f48:	eb 00                	jmp    1f4a <.label4004>

0000000000001f4a <.label4004>:
    1f4a:	eb 00                	jmp    1f4c <.label4005>

0000000000001f4c <.label4005>:
    1f4c:	eb 00                	jmp    1f4e <.label4006>

0000000000001f4e <.label4006>:
    1f4e:	eb 00                	jmp    1f50 <.label4007>

0000000000001f50 <.label4007>:
    1f50:	eb 00                	jmp    1f52 <.label4008>

0000000000001f52 <.label4008>:
    1f52:	eb 00                	jmp    1f54 <.label4009>

0000000000001f54 <.label4009>:
    1f54:	eb 00                	jmp    1f56 <.label4010>

0000000000001f56 <.label4010>:
    1f56:	eb 00                	jmp    1f58 <.label4011>

0000000000001f58 <.label4011>:
    1f58:	eb 00                	jmp    1f5a <.label4012>

0000000000001f5a <.label4012>:
    1f5a:	eb 00                	jmp    1f5c <.label4013>

0000000000001f5c <.label4013>:
    1f5c:	eb 00                	jmp    1f5e <.label4014>

0000000000001f5e <.label4014>:
    1f5e:	eb 00                	jmp    1f60 <.label4015>

0000000000001f60 <.label4015>:
    1f60:	eb 00                	jmp    1f62 <.label4016>

0000000000001f62 <.label4016>:
    1f62:	eb 00                	jmp    1f64 <.label4017>

0000000000001f64 <.label4017>:
    1f64:	eb 00                	jmp    1f66 <.label4018>

0000000000001f66 <.label4018>:
    1f66:	eb 00                	jmp    1f68 <.label4019>

0000000000001f68 <.label4019>:
    1f68:	eb 00                	jmp    1f6a <.label4020>

0000000000001f6a <.label4020>:
    1f6a:	eb 00                	jmp    1f6c <.label4021>

0000000000001f6c <.label4021>:
    1f6c:	eb 00                	jmp    1f6e <.label4022>

0000000000001f6e <.label4022>:
    1f6e:	eb 00                	jmp    1f70 <.label4023>

0000000000001f70 <.label4023>:
    1f70:	eb 00                	jmp    1f72 <.label4024>

0000000000001f72 <.label4024>:
    1f72:	eb 00                	jmp    1f74 <.label4025>

0000000000001f74 <.label4025>:
    1f74:	eb 00                	jmp    1f76 <.label4026>

0000000000001f76 <.label4026>:
    1f76:	eb 00                	jmp    1f78 <.label4027>

0000000000001f78 <.label4027>:
    1f78:	eb 00                	jmp    1f7a <.label4028>

0000000000001f7a <.label4028>:
    1f7a:	eb 00                	jmp    1f7c <.label4029>

0000000000001f7c <.label4029>:
    1f7c:	eb 00                	jmp    1f7e <.label4030>

0000000000001f7e <.label4030>:
    1f7e:	eb 00                	jmp    1f80 <.label4031>

0000000000001f80 <.label4031>:
    1f80:	eb 00                	jmp    1f82 <.label4032>

0000000000001f82 <.label4032>:
    1f82:	eb 00                	jmp    1f84 <.label4033>

0000000000001f84 <.label4033>:
    1f84:	eb 00                	jmp    1f86 <.label4034>

0000000000001f86 <.label4034>:
    1f86:	eb 00                	jmp    1f88 <.label4035>

0000000000001f88 <.label4035>:
    1f88:	eb 00                	jmp    1f8a <.label4036>

0000000000001f8a <.label4036>:
    1f8a:	eb 00                	jmp    1f8c <.label4037>

0000000000001f8c <.label4037>:
    1f8c:	eb 00                	jmp    1f8e <.label4038>

0000000000001f8e <.label4038>:
    1f8e:	eb 00                	jmp    1f90 <.label4039>

0000000000001f90 <.label4039>:
    1f90:	eb 00                	jmp    1f92 <.label4040>

0000000000001f92 <.label4040>:
    1f92:	eb 00                	jmp    1f94 <.label4041>

0000000000001f94 <.label4041>:
    1f94:	eb 00                	jmp    1f96 <.label4042>

0000000000001f96 <.label4042>:
    1f96:	eb 00                	jmp    1f98 <.label4043>

0000000000001f98 <.label4043>:
    1f98:	eb 00                	jmp    1f9a <.label4044>

0000000000001f9a <.label4044>:
    1f9a:	eb 00                	jmp    1f9c <.label4045>

0000000000001f9c <.label4045>:
    1f9c:	eb 00                	jmp    1f9e <.label4046>

0000000000001f9e <.label4046>:
    1f9e:	eb 00                	jmp    1fa0 <.label4047>

0000000000001fa0 <.label4047>:
    1fa0:	eb 00                	jmp    1fa2 <.label4048>

0000000000001fa2 <.label4048>:
    1fa2:	eb 00                	jmp    1fa4 <.label4049>

0000000000001fa4 <.label4049>:
    1fa4:	eb 00                	jmp    1fa6 <.label4050>

0000000000001fa6 <.label4050>:
    1fa6:	eb 00                	jmp    1fa8 <.label4051>

0000000000001fa8 <.label4051>:
    1fa8:	eb 00                	jmp    1faa <.label4052>

0000000000001faa <.label4052>:
    1faa:	eb 00                	jmp    1fac <.label4053>

0000000000001fac <.label4053>:
    1fac:	eb 00                	jmp    1fae <.label4054>

0000000000001fae <.label4054>:
    1fae:	eb 00                	jmp    1fb0 <.label4055>

0000000000001fb0 <.label4055>:
    1fb0:	eb 00                	jmp    1fb2 <.label4056>

0000000000001fb2 <.label4056>:
    1fb2:	eb 00                	jmp    1fb4 <.label4057>

0000000000001fb4 <.label4057>:
    1fb4:	eb 00                	jmp    1fb6 <.label4058>

0000000000001fb6 <.label4058>:
    1fb6:	eb 00                	jmp    1fb8 <.label4059>

0000000000001fb8 <.label4059>:
    1fb8:	eb 00                	jmp    1fba <.label4060>

0000000000001fba <.label4060>:
    1fba:	eb 00                	jmp    1fbc <.label4061>

0000000000001fbc <.label4061>:
    1fbc:	eb 00                	jmp    1fbe <.label4062>

0000000000001fbe <.label4062>:
    1fbe:	eb 00                	jmp    1fc0 <.label4063>

0000000000001fc0 <.label4063>:
    1fc0:	eb 00                	jmp    1fc2 <.label4064>

0000000000001fc2 <.label4064>:
    1fc2:	eb 00                	jmp    1fc4 <.label4065>

0000000000001fc4 <.label4065>:
    1fc4:	eb 00                	jmp    1fc6 <.label4066>

0000000000001fc6 <.label4066>:
    1fc6:	eb 00                	jmp    1fc8 <.label4067>

0000000000001fc8 <.label4067>:
    1fc8:	eb 00                	jmp    1fca <.label4068>

0000000000001fca <.label4068>:
    1fca:	eb 00                	jmp    1fcc <.label4069>

0000000000001fcc <.label4069>:
    1fcc:	eb 00                	jmp    1fce <.label4070>

0000000000001fce <.label4070>:
    1fce:	eb 00                	jmp    1fd0 <.label4071>

0000000000001fd0 <.label4071>:
    1fd0:	eb 00                	jmp    1fd2 <.label4072>

0000000000001fd2 <.label4072>:
    1fd2:	eb 00                	jmp    1fd4 <.label4073>

0000000000001fd4 <.label4073>:
    1fd4:	eb 00                	jmp    1fd6 <.label4074>

0000000000001fd6 <.label4074>:
    1fd6:	eb 00                	jmp    1fd8 <.label4075>

0000000000001fd8 <.label4075>:
    1fd8:	eb 00                	jmp    1fda <.label4076>

0000000000001fda <.label4076>:
    1fda:	eb 00                	jmp    1fdc <.label4077>

0000000000001fdc <.label4077>:
    1fdc:	eb 00                	jmp    1fde <.label4078>

0000000000001fde <.label4078>:
    1fde:	eb 00                	jmp    1fe0 <.label4079>

0000000000001fe0 <.label4079>:
    1fe0:	eb 00                	jmp    1fe2 <.label4080>

0000000000001fe2 <.label4080>:
    1fe2:	eb 00                	jmp    1fe4 <.label4081>

0000000000001fe4 <.label4081>:
    1fe4:	eb 00                	jmp    1fe6 <.label4082>

0000000000001fe6 <.label4082>:
    1fe6:	eb 00                	jmp    1fe8 <.label4083>

0000000000001fe8 <.label4083>:
    1fe8:	eb 00                	jmp    1fea <.label4084>

0000000000001fea <.label4084>:
    1fea:	eb 00                	jmp    1fec <.label4085>

0000000000001fec <.label4085>:
    1fec:	eb 00                	jmp    1fee <.label4086>

0000000000001fee <.label4086>:
    1fee:	eb 00                	jmp    1ff0 <.label4087>

0000000000001ff0 <.label4087>:
    1ff0:	eb 00                	jmp    1ff2 <.label4088>

0000000000001ff2 <.label4088>:
    1ff2:	eb 00                	jmp    1ff4 <.label4089>

0000000000001ff4 <.label4089>:
    1ff4:	eb 00                	jmp    1ff6 <.label4090>

0000000000001ff6 <.label4090>:
    1ff6:	eb 00                	jmp    1ff8 <.label4091>

0000000000001ff8 <.label4091>:
    1ff8:	eb 00                	jmp    1ffa <.label4092>

0000000000001ffa <.label4092>:
    1ffa:	eb 00                	jmp    1ffc <.label4093>

0000000000001ffc <.label4093>:
    1ffc:	eb 00                	jmp    1ffe <.label4094>

0000000000001ffe <.label4094>:
    1ffe:	eb 00                	jmp    2000 <.label4095>

0000000000002000 <.label4095>:
    2000:	eb 00                	jmp    2002 <.label4096>

0000000000002002 <.label4096>:
    2002:	eb 00                	jmp    2004 <.label4097>

0000000000002004 <.label4097>:
    2004:	eb 00                	jmp    2006 <.label4098>

0000000000002006 <.label4098>:
    2006:	eb 00                	jmp    2008 <.label4099>

0000000000002008 <.label4099>:
    2008:	eb 00                	jmp    200a <.label4100>

000000000000200a <.label4100>:
    200a:	eb 00                	jmp    200c <.label4101>

000000000000200c <.label4101>:
    200c:	eb 00                	jmp    200e <.label4102>

000000000000200e <.label4102>:
    200e:	eb 00                	jmp    2010 <.label4103>

0000000000002010 <.label4103>:
    2010:	eb 00                	jmp    2012 <.label4104>

0000000000002012 <.label4104>:
    2012:	eb 00                	jmp    2014 <.label4105>

0000000000002014 <.label4105>:
    2014:	eb 00                	jmp    2016 <.label4106>

0000000000002016 <.label4106>:
    2016:	eb 00                	jmp    2018 <.label4107>

0000000000002018 <.label4107>:
    2018:	eb 00                	jmp    201a <.label4108>

000000000000201a <.label4108>:
    201a:	eb 00                	jmp    201c <.label4109>

000000000000201c <.label4109>:
    201c:	eb 00                	jmp    201e <.label4110>

000000000000201e <.label4110>:
    201e:	eb 00                	jmp    2020 <.label4111>

0000000000002020 <.label4111>:
    2020:	eb 00                	jmp    2022 <.label4112>

0000000000002022 <.label4112>:
    2022:	eb 00                	jmp    2024 <.label4113>

0000000000002024 <.label4113>:
    2024:	eb 00                	jmp    2026 <.label4114>

0000000000002026 <.label4114>:
    2026:	eb 00                	jmp    2028 <.label4115>

0000000000002028 <.label4115>:
    2028:	eb 00                	jmp    202a <.label4116>

000000000000202a <.label4116>:
    202a:	eb 00                	jmp    202c <.label4117>

000000000000202c <.label4117>:
    202c:	eb 00                	jmp    202e <.label4118>

000000000000202e <.label4118>:
    202e:	eb 00                	jmp    2030 <.label4119>

0000000000002030 <.label4119>:
    2030:	eb 00                	jmp    2032 <.label4120>

0000000000002032 <.label4120>:
    2032:	eb 00                	jmp    2034 <.label4121>

0000000000002034 <.label4121>:
    2034:	eb 00                	jmp    2036 <.label4122>

0000000000002036 <.label4122>:
    2036:	eb 00                	jmp    2038 <.label4123>

0000000000002038 <.label4123>:
    2038:	eb 00                	jmp    203a <.label4124>

000000000000203a <.label4124>:
    203a:	eb 00                	jmp    203c <.label4125>

000000000000203c <.label4125>:
    203c:	eb 00                	jmp    203e <.label4126>

000000000000203e <.label4126>:
    203e:	eb 00                	jmp    2040 <.label4127>

0000000000002040 <.label4127>:
    2040:	eb 00                	jmp    2042 <.label4128>

0000000000002042 <.label4128>:
    2042:	eb 00                	jmp    2044 <.label4129>

0000000000002044 <.label4129>:
    2044:	eb 00                	jmp    2046 <.label4130>

0000000000002046 <.label4130>:
    2046:	eb 00                	jmp    2048 <.label4131>

0000000000002048 <.label4131>:
    2048:	eb 00                	jmp    204a <.label4132>

000000000000204a <.label4132>:
    204a:	eb 00                	jmp    204c <.label4133>

000000000000204c <.label4133>:
    204c:	eb 00                	jmp    204e <.label4134>

000000000000204e <.label4134>:
    204e:	eb 00                	jmp    2050 <.label4135>

0000000000002050 <.label4135>:
    2050:	eb 00                	jmp    2052 <.label4136>

0000000000002052 <.label4136>:
    2052:	eb 00                	jmp    2054 <.label4137>

0000000000002054 <.label4137>:
    2054:	eb 00                	jmp    2056 <.label4138>

0000000000002056 <.label4138>:
    2056:	eb 00                	jmp    2058 <.label4139>

0000000000002058 <.label4139>:
    2058:	eb 00                	jmp    205a <.label4140>

000000000000205a <.label4140>:
    205a:	eb 00                	jmp    205c <.label4141>

000000000000205c <.label4141>:
    205c:	eb 00                	jmp    205e <.label4142>

000000000000205e <.label4142>:
    205e:	eb 00                	jmp    2060 <.label4143>

0000000000002060 <.label4143>:
    2060:	eb 00                	jmp    2062 <.label4144>

0000000000002062 <.label4144>:
    2062:	eb 00                	jmp    2064 <.label4145>

0000000000002064 <.label4145>:
    2064:	eb 00                	jmp    2066 <.label4146>

0000000000002066 <.label4146>:
    2066:	eb 00                	jmp    2068 <.label4147>

0000000000002068 <.label4147>:
    2068:	eb 00                	jmp    206a <.label4148>

000000000000206a <.label4148>:
    206a:	eb 00                	jmp    206c <.label4149>

000000000000206c <.label4149>:
    206c:	eb 00                	jmp    206e <.label4150>

000000000000206e <.label4150>:
    206e:	eb 00                	jmp    2070 <.label4151>

0000000000002070 <.label4151>:
    2070:	eb 00                	jmp    2072 <.label4152>

0000000000002072 <.label4152>:
    2072:	eb 00                	jmp    2074 <.label4153>

0000000000002074 <.label4153>:
    2074:	eb 00                	jmp    2076 <.label4154>

0000000000002076 <.label4154>:
    2076:	eb 00                	jmp    2078 <.label4155>

0000000000002078 <.label4155>:
    2078:	eb 00                	jmp    207a <.label4156>

000000000000207a <.label4156>:
    207a:	eb 00                	jmp    207c <.label4157>

000000000000207c <.label4157>:
    207c:	eb 00                	jmp    207e <.label4158>

000000000000207e <.label4158>:
    207e:	eb 00                	jmp    2080 <.label4159>

0000000000002080 <.label4159>:
    2080:	eb 00                	jmp    2082 <.label4160>

0000000000002082 <.label4160>:
    2082:	eb 00                	jmp    2084 <.label4161>

0000000000002084 <.label4161>:
    2084:	eb 00                	jmp    2086 <.label4162>

0000000000002086 <.label4162>:
    2086:	eb 00                	jmp    2088 <.label4163>

0000000000002088 <.label4163>:
    2088:	eb 00                	jmp    208a <.label4164>

000000000000208a <.label4164>:
    208a:	eb 00                	jmp    208c <.label4165>

000000000000208c <.label4165>:
    208c:	eb 00                	jmp    208e <.label4166>

000000000000208e <.label4166>:
    208e:	eb 00                	jmp    2090 <.label4167>

0000000000002090 <.label4167>:
    2090:	eb 00                	jmp    2092 <.label4168>

0000000000002092 <.label4168>:
    2092:	eb 00                	jmp    2094 <.label4169>

0000000000002094 <.label4169>:
    2094:	eb 00                	jmp    2096 <.label4170>

0000000000002096 <.label4170>:
    2096:	eb 00                	jmp    2098 <.label4171>

0000000000002098 <.label4171>:
    2098:	eb 00                	jmp    209a <.label4172>

000000000000209a <.label4172>:
    209a:	eb 00                	jmp    209c <.label4173>

000000000000209c <.label4173>:
    209c:	eb 00                	jmp    209e <.label4174>

000000000000209e <.label4174>:
    209e:	eb 00                	jmp    20a0 <.label4175>

00000000000020a0 <.label4175>:
    20a0:	eb 00                	jmp    20a2 <.label4176>

00000000000020a2 <.label4176>:
    20a2:	eb 00                	jmp    20a4 <.label4177>

00000000000020a4 <.label4177>:
    20a4:	eb 00                	jmp    20a6 <.label4178>

00000000000020a6 <.label4178>:
    20a6:	eb 00                	jmp    20a8 <.label4179>

00000000000020a8 <.label4179>:
    20a8:	eb 00                	jmp    20aa <.label4180>

00000000000020aa <.label4180>:
    20aa:	eb 00                	jmp    20ac <.label4181>

00000000000020ac <.label4181>:
    20ac:	eb 00                	jmp    20ae <.label4182>

00000000000020ae <.label4182>:
    20ae:	eb 00                	jmp    20b0 <.label4183>

00000000000020b0 <.label4183>:
    20b0:	eb 00                	jmp    20b2 <.label4184>

00000000000020b2 <.label4184>:
    20b2:	eb 00                	jmp    20b4 <.label4185>

00000000000020b4 <.label4185>:
    20b4:	eb 00                	jmp    20b6 <.label4186>

00000000000020b6 <.label4186>:
    20b6:	eb 00                	jmp    20b8 <.label4187>

00000000000020b8 <.label4187>:
    20b8:	eb 00                	jmp    20ba <.label4188>

00000000000020ba <.label4188>:
    20ba:	eb 00                	jmp    20bc <.label4189>

00000000000020bc <.label4189>:
    20bc:	eb 00                	jmp    20be <.label4190>

00000000000020be <.label4190>:
    20be:	eb 00                	jmp    20c0 <.label4191>

00000000000020c0 <.label4191>:
    20c0:	eb 00                	jmp    20c2 <.label4192>

00000000000020c2 <.label4192>:
    20c2:	eb 00                	jmp    20c4 <.label4193>

00000000000020c4 <.label4193>:
    20c4:	eb 00                	jmp    20c6 <.label4194>

00000000000020c6 <.label4194>:
    20c6:	eb 00                	jmp    20c8 <.label4195>

00000000000020c8 <.label4195>:
    20c8:	eb 00                	jmp    20ca <.label4196>

00000000000020ca <.label4196>:
    20ca:	eb 00                	jmp    20cc <.label4197>

00000000000020cc <.label4197>:
    20cc:	eb 00                	jmp    20ce <.label4198>

00000000000020ce <.label4198>:
    20ce:	eb 00                	jmp    20d0 <.label4199>

00000000000020d0 <.label4199>:
    20d0:	eb 00                	jmp    20d2 <.label4200>

00000000000020d2 <.label4200>:
    20d2:	eb 00                	jmp    20d4 <.label4201>

00000000000020d4 <.label4201>:
    20d4:	eb 00                	jmp    20d6 <.label4202>

00000000000020d6 <.label4202>:
    20d6:	eb 00                	jmp    20d8 <.label4203>

00000000000020d8 <.label4203>:
    20d8:	eb 00                	jmp    20da <.label4204>

00000000000020da <.label4204>:
    20da:	eb 00                	jmp    20dc <.label4205>

00000000000020dc <.label4205>:
    20dc:	eb 00                	jmp    20de <.label4206>

00000000000020de <.label4206>:
    20de:	eb 00                	jmp    20e0 <.label4207>

00000000000020e0 <.label4207>:
    20e0:	eb 00                	jmp    20e2 <.label4208>

00000000000020e2 <.label4208>:
    20e2:	eb 00                	jmp    20e4 <.label4209>

00000000000020e4 <.label4209>:
    20e4:	eb 00                	jmp    20e6 <.label4210>

00000000000020e6 <.label4210>:
    20e6:	eb 00                	jmp    20e8 <.label4211>

00000000000020e8 <.label4211>:
    20e8:	eb 00                	jmp    20ea <.label4212>

00000000000020ea <.label4212>:
    20ea:	eb 00                	jmp    20ec <.label4213>

00000000000020ec <.label4213>:
    20ec:	eb 00                	jmp    20ee <.label4214>

00000000000020ee <.label4214>:
    20ee:	eb 00                	jmp    20f0 <.label4215>

00000000000020f0 <.label4215>:
    20f0:	eb 00                	jmp    20f2 <.label4216>

00000000000020f2 <.label4216>:
    20f2:	eb 00                	jmp    20f4 <.label4217>

00000000000020f4 <.label4217>:
    20f4:	eb 00                	jmp    20f6 <.label4218>

00000000000020f6 <.label4218>:
    20f6:	eb 00                	jmp    20f8 <.label4219>

00000000000020f8 <.label4219>:
    20f8:	eb 00                	jmp    20fa <.label4220>

00000000000020fa <.label4220>:
    20fa:	eb 00                	jmp    20fc <.label4221>

00000000000020fc <.label4221>:
    20fc:	eb 00                	jmp    20fe <.label4222>

00000000000020fe <.label4222>:
    20fe:	eb 00                	jmp    2100 <.label4223>

0000000000002100 <.label4223>:
    2100:	eb 00                	jmp    2102 <.label4224>

0000000000002102 <.label4224>:
    2102:	eb 00                	jmp    2104 <.label4225>

0000000000002104 <.label4225>:
    2104:	eb 00                	jmp    2106 <.label4226>

0000000000002106 <.label4226>:
    2106:	eb 00                	jmp    2108 <.label4227>

0000000000002108 <.label4227>:
    2108:	eb 00                	jmp    210a <.label4228>

000000000000210a <.label4228>:
    210a:	eb 00                	jmp    210c <.label4229>

000000000000210c <.label4229>:
    210c:	eb 00                	jmp    210e <.label4230>

000000000000210e <.label4230>:
    210e:	eb 00                	jmp    2110 <.label4231>

0000000000002110 <.label4231>:
    2110:	eb 00                	jmp    2112 <.label4232>

0000000000002112 <.label4232>:
    2112:	eb 00                	jmp    2114 <.label4233>

0000000000002114 <.label4233>:
    2114:	eb 00                	jmp    2116 <.label4234>

0000000000002116 <.label4234>:
    2116:	eb 00                	jmp    2118 <.label4235>

0000000000002118 <.label4235>:
    2118:	eb 00                	jmp    211a <.label4236>

000000000000211a <.label4236>:
    211a:	eb 00                	jmp    211c <.label4237>

000000000000211c <.label4237>:
    211c:	eb 00                	jmp    211e <.label4238>

000000000000211e <.label4238>:
    211e:	eb 00                	jmp    2120 <.label4239>

0000000000002120 <.label4239>:
    2120:	eb 00                	jmp    2122 <.label4240>

0000000000002122 <.label4240>:
    2122:	eb 00                	jmp    2124 <.label4241>

0000000000002124 <.label4241>:
    2124:	eb 00                	jmp    2126 <.label4242>

0000000000002126 <.label4242>:
    2126:	eb 00                	jmp    2128 <.label4243>

0000000000002128 <.label4243>:
    2128:	eb 00                	jmp    212a <.label4244>

000000000000212a <.label4244>:
    212a:	eb 00                	jmp    212c <.label4245>

000000000000212c <.label4245>:
    212c:	eb 00                	jmp    212e <.label4246>

000000000000212e <.label4246>:
    212e:	eb 00                	jmp    2130 <.label4247>

0000000000002130 <.label4247>:
    2130:	eb 00                	jmp    2132 <.label4248>

0000000000002132 <.label4248>:
    2132:	eb 00                	jmp    2134 <.label4249>

0000000000002134 <.label4249>:
    2134:	eb 00                	jmp    2136 <.label4250>

0000000000002136 <.label4250>:
    2136:	eb 00                	jmp    2138 <.label4251>

0000000000002138 <.label4251>:
    2138:	eb 00                	jmp    213a <.label4252>

000000000000213a <.label4252>:
    213a:	eb 00                	jmp    213c <.label4253>

000000000000213c <.label4253>:
    213c:	eb 00                	jmp    213e <.label4254>

000000000000213e <.label4254>:
    213e:	eb 00                	jmp    2140 <.label4255>

0000000000002140 <.label4255>:
    2140:	eb 00                	jmp    2142 <.label4256>

0000000000002142 <.label4256>:
    2142:	eb 00                	jmp    2144 <.label4257>

0000000000002144 <.label4257>:
    2144:	eb 00                	jmp    2146 <.label4258>

0000000000002146 <.label4258>:
    2146:	eb 00                	jmp    2148 <.label4259>

0000000000002148 <.label4259>:
    2148:	eb 00                	jmp    214a <.label4260>

000000000000214a <.label4260>:
    214a:	eb 00                	jmp    214c <.label4261>

000000000000214c <.label4261>:
    214c:	eb 00                	jmp    214e <.label4262>

000000000000214e <.label4262>:
    214e:	eb 00                	jmp    2150 <.label4263>

0000000000002150 <.label4263>:
    2150:	eb 00                	jmp    2152 <.label4264>

0000000000002152 <.label4264>:
    2152:	eb 00                	jmp    2154 <.label4265>

0000000000002154 <.label4265>:
    2154:	eb 00                	jmp    2156 <.label4266>

0000000000002156 <.label4266>:
    2156:	eb 00                	jmp    2158 <.label4267>

0000000000002158 <.label4267>:
    2158:	eb 00                	jmp    215a <.label4268>

000000000000215a <.label4268>:
    215a:	eb 00                	jmp    215c <.label4269>

000000000000215c <.label4269>:
    215c:	eb 00                	jmp    215e <.label4270>

000000000000215e <.label4270>:
    215e:	eb 00                	jmp    2160 <.label4271>

0000000000002160 <.label4271>:
    2160:	eb 00                	jmp    2162 <.label4272>

0000000000002162 <.label4272>:
    2162:	eb 00                	jmp    2164 <.label4273>

0000000000002164 <.label4273>:
    2164:	eb 00                	jmp    2166 <.label4274>

0000000000002166 <.label4274>:
    2166:	eb 00                	jmp    2168 <.label4275>

0000000000002168 <.label4275>:
    2168:	eb 00                	jmp    216a <.label4276>

000000000000216a <.label4276>:
    216a:	eb 00                	jmp    216c <.label4277>

000000000000216c <.label4277>:
    216c:	eb 00                	jmp    216e <.label4278>

000000000000216e <.label4278>:
    216e:	eb 00                	jmp    2170 <.label4279>

0000000000002170 <.label4279>:
    2170:	eb 00                	jmp    2172 <.label4280>

0000000000002172 <.label4280>:
    2172:	eb 00                	jmp    2174 <.label4281>

0000000000002174 <.label4281>:
    2174:	eb 00                	jmp    2176 <.label4282>

0000000000002176 <.label4282>:
    2176:	eb 00                	jmp    2178 <.label4283>

0000000000002178 <.label4283>:
    2178:	eb 00                	jmp    217a <.label4284>

000000000000217a <.label4284>:
    217a:	eb 00                	jmp    217c <.label4285>

000000000000217c <.label4285>:
    217c:	eb 00                	jmp    217e <.label4286>

000000000000217e <.label4286>:
    217e:	eb 00                	jmp    2180 <.label4287>

0000000000002180 <.label4287>:
    2180:	eb 00                	jmp    2182 <.label4288>

0000000000002182 <.label4288>:
    2182:	eb 00                	jmp    2184 <.label4289>

0000000000002184 <.label4289>:
    2184:	eb 00                	jmp    2186 <.label4290>

0000000000002186 <.label4290>:
    2186:	eb 00                	jmp    2188 <.label4291>

0000000000002188 <.label4291>:
    2188:	eb 00                	jmp    218a <.label4292>

000000000000218a <.label4292>:
    218a:	eb 00                	jmp    218c <.label4293>

000000000000218c <.label4293>:
    218c:	eb 00                	jmp    218e <.label4294>

000000000000218e <.label4294>:
    218e:	eb 00                	jmp    2190 <.label4295>

0000000000002190 <.label4295>:
    2190:	eb 00                	jmp    2192 <.label4296>

0000000000002192 <.label4296>:
    2192:	eb 00                	jmp    2194 <.label4297>

0000000000002194 <.label4297>:
    2194:	eb 00                	jmp    2196 <.label4298>

0000000000002196 <.label4298>:
    2196:	eb 00                	jmp    2198 <.label4299>

0000000000002198 <.label4299>:
    2198:	eb 00                	jmp    219a <.label4300>

000000000000219a <.label4300>:
    219a:	eb 00                	jmp    219c <.label4301>

000000000000219c <.label4301>:
    219c:	eb 00                	jmp    219e <.label4302>

000000000000219e <.label4302>:
    219e:	eb 00                	jmp    21a0 <.label4303>

00000000000021a0 <.label4303>:
    21a0:	eb 00                	jmp    21a2 <.label4304>

00000000000021a2 <.label4304>:
    21a2:	eb 00                	jmp    21a4 <.label4305>

00000000000021a4 <.label4305>:
    21a4:	eb 00                	jmp    21a6 <.label4306>

00000000000021a6 <.label4306>:
    21a6:	eb 00                	jmp    21a8 <.label4307>

00000000000021a8 <.label4307>:
    21a8:	eb 00                	jmp    21aa <.label4308>

00000000000021aa <.label4308>:
    21aa:	eb 00                	jmp    21ac <.label4309>

00000000000021ac <.label4309>:
    21ac:	eb 00                	jmp    21ae <.label4310>

00000000000021ae <.label4310>:
    21ae:	eb 00                	jmp    21b0 <.label4311>

00000000000021b0 <.label4311>:
    21b0:	eb 00                	jmp    21b2 <.label4312>

00000000000021b2 <.label4312>:
    21b2:	eb 00                	jmp    21b4 <.label4313>

00000000000021b4 <.label4313>:
    21b4:	eb 00                	jmp    21b6 <.label4314>

00000000000021b6 <.label4314>:
    21b6:	eb 00                	jmp    21b8 <.label4315>

00000000000021b8 <.label4315>:
    21b8:	eb 00                	jmp    21ba <.label4316>

00000000000021ba <.label4316>:
    21ba:	eb 00                	jmp    21bc <.label4317>

00000000000021bc <.label4317>:
    21bc:	eb 00                	jmp    21be <.label4318>

00000000000021be <.label4318>:
    21be:	eb 00                	jmp    21c0 <.label4319>

00000000000021c0 <.label4319>:
    21c0:	eb 00                	jmp    21c2 <.label4320>

00000000000021c2 <.label4320>:
    21c2:	eb 00                	jmp    21c4 <.label4321>

00000000000021c4 <.label4321>:
    21c4:	eb 00                	jmp    21c6 <.label4322>

00000000000021c6 <.label4322>:
    21c6:	eb 00                	jmp    21c8 <.label4323>

00000000000021c8 <.label4323>:
    21c8:	eb 00                	jmp    21ca <.label4324>

00000000000021ca <.label4324>:
    21ca:	eb 00                	jmp    21cc <.label4325>

00000000000021cc <.label4325>:
    21cc:	eb 00                	jmp    21ce <.label4326>

00000000000021ce <.label4326>:
    21ce:	eb 00                	jmp    21d0 <.label4327>

00000000000021d0 <.label4327>:
    21d0:	eb 00                	jmp    21d2 <.label4328>

00000000000021d2 <.label4328>:
    21d2:	eb 00                	jmp    21d4 <.label4329>

00000000000021d4 <.label4329>:
    21d4:	eb 00                	jmp    21d6 <.label4330>

00000000000021d6 <.label4330>:
    21d6:	eb 00                	jmp    21d8 <.label4331>

00000000000021d8 <.label4331>:
    21d8:	eb 00                	jmp    21da <.label4332>

00000000000021da <.label4332>:
    21da:	eb 00                	jmp    21dc <.label4333>

00000000000021dc <.label4333>:
    21dc:	eb 00                	jmp    21de <.label4334>

00000000000021de <.label4334>:
    21de:	eb 00                	jmp    21e0 <.label4335>

00000000000021e0 <.label4335>:
    21e0:	eb 00                	jmp    21e2 <.label4336>

00000000000021e2 <.label4336>:
    21e2:	eb 00                	jmp    21e4 <.label4337>

00000000000021e4 <.label4337>:
    21e4:	eb 00                	jmp    21e6 <.label4338>

00000000000021e6 <.label4338>:
    21e6:	eb 00                	jmp    21e8 <.label4339>

00000000000021e8 <.label4339>:
    21e8:	eb 00                	jmp    21ea <.label4340>

00000000000021ea <.label4340>:
    21ea:	eb 00                	jmp    21ec <.label4341>

00000000000021ec <.label4341>:
    21ec:	eb 00                	jmp    21ee <.label4342>

00000000000021ee <.label4342>:
    21ee:	eb 00                	jmp    21f0 <.label4343>

00000000000021f0 <.label4343>:
    21f0:	eb 00                	jmp    21f2 <.label4344>

00000000000021f2 <.label4344>:
    21f2:	eb 00                	jmp    21f4 <.label4345>

00000000000021f4 <.label4345>:
    21f4:	eb 00                	jmp    21f6 <.label4346>

00000000000021f6 <.label4346>:
    21f6:	eb 00                	jmp    21f8 <.label4347>

00000000000021f8 <.label4347>:
    21f8:	eb 00                	jmp    21fa <.label4348>

00000000000021fa <.label4348>:
    21fa:	eb 00                	jmp    21fc <.label4349>

00000000000021fc <.label4349>:
    21fc:	eb 00                	jmp    21fe <.label4350>

00000000000021fe <.label4350>:
    21fe:	eb 00                	jmp    2200 <.label4351>

0000000000002200 <.label4351>:
    2200:	eb 00                	jmp    2202 <.label4352>

0000000000002202 <.label4352>:
    2202:	eb 00                	jmp    2204 <.label4353>

0000000000002204 <.label4353>:
    2204:	eb 00                	jmp    2206 <.label4354>

0000000000002206 <.label4354>:
    2206:	eb 00                	jmp    2208 <.label4355>

0000000000002208 <.label4355>:
    2208:	eb 00                	jmp    220a <.label4356>

000000000000220a <.label4356>:
    220a:	eb 00                	jmp    220c <.label4357>

000000000000220c <.label4357>:
    220c:	eb 00                	jmp    220e <.label4358>

000000000000220e <.label4358>:
    220e:	eb 00                	jmp    2210 <.label4359>

0000000000002210 <.label4359>:
    2210:	eb 00                	jmp    2212 <.label4360>

0000000000002212 <.label4360>:
    2212:	eb 00                	jmp    2214 <.label4361>

0000000000002214 <.label4361>:
    2214:	eb 00                	jmp    2216 <.label4362>

0000000000002216 <.label4362>:
    2216:	eb 00                	jmp    2218 <.label4363>

0000000000002218 <.label4363>:
    2218:	eb 00                	jmp    221a <.label4364>

000000000000221a <.label4364>:
    221a:	eb 00                	jmp    221c <.label4365>

000000000000221c <.label4365>:
    221c:	eb 00                	jmp    221e <.label4366>

000000000000221e <.label4366>:
    221e:	eb 00                	jmp    2220 <.label4367>

0000000000002220 <.label4367>:
    2220:	eb 00                	jmp    2222 <.label4368>

0000000000002222 <.label4368>:
    2222:	eb 00                	jmp    2224 <.label4369>

0000000000002224 <.label4369>:
    2224:	eb 00                	jmp    2226 <.label4370>

0000000000002226 <.label4370>:
    2226:	eb 00                	jmp    2228 <.label4371>

0000000000002228 <.label4371>:
    2228:	eb 00                	jmp    222a <.label4372>

000000000000222a <.label4372>:
    222a:	eb 00                	jmp    222c <.label4373>

000000000000222c <.label4373>:
    222c:	eb 00                	jmp    222e <.label4374>

000000000000222e <.label4374>:
    222e:	eb 00                	jmp    2230 <.label4375>

0000000000002230 <.label4375>:
    2230:	eb 00                	jmp    2232 <.label4376>

0000000000002232 <.label4376>:
    2232:	eb 00                	jmp    2234 <.label4377>

0000000000002234 <.label4377>:
    2234:	eb 00                	jmp    2236 <.label4378>

0000000000002236 <.label4378>:
    2236:	eb 00                	jmp    2238 <.label4379>

0000000000002238 <.label4379>:
    2238:	eb 00                	jmp    223a <.label4380>

000000000000223a <.label4380>:
    223a:	eb 00                	jmp    223c <.label4381>

000000000000223c <.label4381>:
    223c:	eb 00                	jmp    223e <.label4382>

000000000000223e <.label4382>:
    223e:	eb 00                	jmp    2240 <.label4383>

0000000000002240 <.label4383>:
    2240:	eb 00                	jmp    2242 <.label4384>

0000000000002242 <.label4384>:
    2242:	eb 00                	jmp    2244 <.label4385>

0000000000002244 <.label4385>:
    2244:	eb 00                	jmp    2246 <.label4386>

0000000000002246 <.label4386>:
    2246:	eb 00                	jmp    2248 <.label4387>

0000000000002248 <.label4387>:
    2248:	eb 00                	jmp    224a <.label4388>

000000000000224a <.label4388>:
    224a:	eb 00                	jmp    224c <.label4389>

000000000000224c <.label4389>:
    224c:	eb 00                	jmp    224e <.label4390>

000000000000224e <.label4390>:
    224e:	eb 00                	jmp    2250 <.label4391>

0000000000002250 <.label4391>:
    2250:	eb 00                	jmp    2252 <.label4392>

0000000000002252 <.label4392>:
    2252:	eb 00                	jmp    2254 <.label4393>

0000000000002254 <.label4393>:
    2254:	eb 00                	jmp    2256 <.label4394>

0000000000002256 <.label4394>:
    2256:	eb 00                	jmp    2258 <.label4395>

0000000000002258 <.label4395>:
    2258:	eb 00                	jmp    225a <.label4396>

000000000000225a <.label4396>:
    225a:	eb 00                	jmp    225c <.label4397>

000000000000225c <.label4397>:
    225c:	eb 00                	jmp    225e <.label4398>

000000000000225e <.label4398>:
    225e:	eb 00                	jmp    2260 <.label4399>

0000000000002260 <.label4399>:
    2260:	eb 00                	jmp    2262 <.label4400>

0000000000002262 <.label4400>:
    2262:	eb 00                	jmp    2264 <.label4401>

0000000000002264 <.label4401>:
    2264:	eb 00                	jmp    2266 <.label4402>

0000000000002266 <.label4402>:
    2266:	eb 00                	jmp    2268 <.label4403>

0000000000002268 <.label4403>:
    2268:	eb 00                	jmp    226a <.label4404>

000000000000226a <.label4404>:
    226a:	eb 00                	jmp    226c <.label4405>

000000000000226c <.label4405>:
    226c:	eb 00                	jmp    226e <.label4406>

000000000000226e <.label4406>:
    226e:	eb 00                	jmp    2270 <.label4407>

0000000000002270 <.label4407>:
    2270:	eb 00                	jmp    2272 <.label4408>

0000000000002272 <.label4408>:
    2272:	eb 00                	jmp    2274 <.label4409>

0000000000002274 <.label4409>:
    2274:	eb 00                	jmp    2276 <.label4410>

0000000000002276 <.label4410>:
    2276:	eb 00                	jmp    2278 <.label4411>

0000000000002278 <.label4411>:
    2278:	eb 00                	jmp    227a <.label4412>

000000000000227a <.label4412>:
    227a:	eb 00                	jmp    227c <.label4413>

000000000000227c <.label4413>:
    227c:	eb 00                	jmp    227e <.label4414>

000000000000227e <.label4414>:
    227e:	eb 00                	jmp    2280 <.label4415>

0000000000002280 <.label4415>:
    2280:	eb 00                	jmp    2282 <.label4416>

0000000000002282 <.label4416>:
    2282:	eb 00                	jmp    2284 <.label4417>

0000000000002284 <.label4417>:
    2284:	eb 00                	jmp    2286 <.label4418>

0000000000002286 <.label4418>:
    2286:	eb 00                	jmp    2288 <.label4419>

0000000000002288 <.label4419>:
    2288:	eb 00                	jmp    228a <.label4420>

000000000000228a <.label4420>:
    228a:	eb 00                	jmp    228c <.label4421>

000000000000228c <.label4421>:
    228c:	eb 00                	jmp    228e <.label4422>

000000000000228e <.label4422>:
    228e:	eb 00                	jmp    2290 <.label4423>

0000000000002290 <.label4423>:
    2290:	eb 00                	jmp    2292 <.label4424>

0000000000002292 <.label4424>:
    2292:	eb 00                	jmp    2294 <.label4425>

0000000000002294 <.label4425>:
    2294:	eb 00                	jmp    2296 <.label4426>

0000000000002296 <.label4426>:
    2296:	eb 00                	jmp    2298 <.label4427>

0000000000002298 <.label4427>:
    2298:	eb 00                	jmp    229a <.label4428>

000000000000229a <.label4428>:
    229a:	eb 00                	jmp    229c <.label4429>

000000000000229c <.label4429>:
    229c:	eb 00                	jmp    229e <.label4430>

000000000000229e <.label4430>:
    229e:	eb 00                	jmp    22a0 <.label4431>

00000000000022a0 <.label4431>:
    22a0:	eb 00                	jmp    22a2 <.label4432>

00000000000022a2 <.label4432>:
    22a2:	eb 00                	jmp    22a4 <.label4433>

00000000000022a4 <.label4433>:
    22a4:	eb 00                	jmp    22a6 <.label4434>

00000000000022a6 <.label4434>:
    22a6:	eb 00                	jmp    22a8 <.label4435>

00000000000022a8 <.label4435>:
    22a8:	eb 00                	jmp    22aa <.label4436>

00000000000022aa <.label4436>:
    22aa:	eb 00                	jmp    22ac <.label4437>

00000000000022ac <.label4437>:
    22ac:	eb 00                	jmp    22ae <.label4438>

00000000000022ae <.label4438>:
    22ae:	eb 00                	jmp    22b0 <.label4439>

00000000000022b0 <.label4439>:
    22b0:	eb 00                	jmp    22b2 <.label4440>

00000000000022b2 <.label4440>:
    22b2:	eb 00                	jmp    22b4 <.label4441>

00000000000022b4 <.label4441>:
    22b4:	eb 00                	jmp    22b6 <.label4442>

00000000000022b6 <.label4442>:
    22b6:	eb 00                	jmp    22b8 <.label4443>

00000000000022b8 <.label4443>:
    22b8:	eb 00                	jmp    22ba <.label4444>

00000000000022ba <.label4444>:
    22ba:	eb 00                	jmp    22bc <.label4445>

00000000000022bc <.label4445>:
    22bc:	eb 00                	jmp    22be <.label4446>

00000000000022be <.label4446>:
    22be:	eb 00                	jmp    22c0 <.label4447>

00000000000022c0 <.label4447>:
    22c0:	eb 00                	jmp    22c2 <.label4448>

00000000000022c2 <.label4448>:
    22c2:	eb 00                	jmp    22c4 <.label4449>

00000000000022c4 <.label4449>:
    22c4:	eb 00                	jmp    22c6 <.label4450>

00000000000022c6 <.label4450>:
    22c6:	eb 00                	jmp    22c8 <.label4451>

00000000000022c8 <.label4451>:
    22c8:	eb 00                	jmp    22ca <.label4452>

00000000000022ca <.label4452>:
    22ca:	eb 00                	jmp    22cc <.label4453>

00000000000022cc <.label4453>:
    22cc:	eb 00                	jmp    22ce <.label4454>

00000000000022ce <.label4454>:
    22ce:	eb 00                	jmp    22d0 <.label4455>

00000000000022d0 <.label4455>:
    22d0:	eb 00                	jmp    22d2 <.label4456>

00000000000022d2 <.label4456>:
    22d2:	eb 00                	jmp    22d4 <.label4457>

00000000000022d4 <.label4457>:
    22d4:	eb 00                	jmp    22d6 <.label4458>

00000000000022d6 <.label4458>:
    22d6:	eb 00                	jmp    22d8 <.label4459>

00000000000022d8 <.label4459>:
    22d8:	eb 00                	jmp    22da <.label4460>

00000000000022da <.label4460>:
    22da:	eb 00                	jmp    22dc <.label4461>

00000000000022dc <.label4461>:
    22dc:	eb 00                	jmp    22de <.label4462>

00000000000022de <.label4462>:
    22de:	eb 00                	jmp    22e0 <.label4463>

00000000000022e0 <.label4463>:
    22e0:	eb 00                	jmp    22e2 <.label4464>

00000000000022e2 <.label4464>:
    22e2:	eb 00                	jmp    22e4 <.label4465>

00000000000022e4 <.label4465>:
    22e4:	eb 00                	jmp    22e6 <.label4466>

00000000000022e6 <.label4466>:
    22e6:	eb 00                	jmp    22e8 <.label4467>

00000000000022e8 <.label4467>:
    22e8:	eb 00                	jmp    22ea <.label4468>

00000000000022ea <.label4468>:
    22ea:	eb 00                	jmp    22ec <.label4469>

00000000000022ec <.label4469>:
    22ec:	eb 00                	jmp    22ee <.label4470>

00000000000022ee <.label4470>:
    22ee:	eb 00                	jmp    22f0 <.label4471>

00000000000022f0 <.label4471>:
    22f0:	eb 00                	jmp    22f2 <.label4472>

00000000000022f2 <.label4472>:
    22f2:	eb 00                	jmp    22f4 <.label4473>

00000000000022f4 <.label4473>:
    22f4:	eb 00                	jmp    22f6 <.label4474>

00000000000022f6 <.label4474>:
    22f6:	eb 00                	jmp    22f8 <.label4475>

00000000000022f8 <.label4475>:
    22f8:	eb 00                	jmp    22fa <.label4476>

00000000000022fa <.label4476>:
    22fa:	eb 00                	jmp    22fc <.label4477>

00000000000022fc <.label4477>:
    22fc:	eb 00                	jmp    22fe <.label4478>

00000000000022fe <.label4478>:
    22fe:	eb 00                	jmp    2300 <.label4479>

0000000000002300 <.label4479>:
    2300:	eb 00                	jmp    2302 <.label4480>

0000000000002302 <.label4480>:
    2302:	eb 00                	jmp    2304 <.label4481>

0000000000002304 <.label4481>:
    2304:	eb 00                	jmp    2306 <.label4482>

0000000000002306 <.label4482>:
    2306:	eb 00                	jmp    2308 <.label4483>

0000000000002308 <.label4483>:
    2308:	eb 00                	jmp    230a <.label4484>

000000000000230a <.label4484>:
    230a:	eb 00                	jmp    230c <.label4485>

000000000000230c <.label4485>:
    230c:	eb 00                	jmp    230e <.label4486>

000000000000230e <.label4486>:
    230e:	eb 00                	jmp    2310 <.label4487>

0000000000002310 <.label4487>:
    2310:	eb 00                	jmp    2312 <.label4488>

0000000000002312 <.label4488>:
    2312:	eb 00                	jmp    2314 <.label4489>

0000000000002314 <.label4489>:
    2314:	eb 00                	jmp    2316 <.label4490>

0000000000002316 <.label4490>:
    2316:	eb 00                	jmp    2318 <.label4491>

0000000000002318 <.label4491>:
    2318:	eb 00                	jmp    231a <.label4492>

000000000000231a <.label4492>:
    231a:	eb 00                	jmp    231c <.label4493>

000000000000231c <.label4493>:
    231c:	eb 00                	jmp    231e <.label4494>

000000000000231e <.label4494>:
    231e:	eb 00                	jmp    2320 <.label4495>

0000000000002320 <.label4495>:
    2320:	eb 00                	jmp    2322 <.label4496>

0000000000002322 <.label4496>:
    2322:	eb 00                	jmp    2324 <.label4497>

0000000000002324 <.label4497>:
    2324:	eb 00                	jmp    2326 <.label4498>

0000000000002326 <.label4498>:
    2326:	eb 00                	jmp    2328 <.label4499>

0000000000002328 <.label4499>:
    2328:	eb 00                	jmp    232a <.label4500>

000000000000232a <.label4500>:
    232a:	eb 00                	jmp    232c <.label4501>

000000000000232c <.label4501>:
    232c:	eb 00                	jmp    232e <.label4502>

000000000000232e <.label4502>:
    232e:	eb 00                	jmp    2330 <.label4503>

0000000000002330 <.label4503>:
    2330:	eb 00                	jmp    2332 <.label4504>

0000000000002332 <.label4504>:
    2332:	eb 00                	jmp    2334 <.label4505>

0000000000002334 <.label4505>:
    2334:	eb 00                	jmp    2336 <.label4506>

0000000000002336 <.label4506>:
    2336:	eb 00                	jmp    2338 <.label4507>

0000000000002338 <.label4507>:
    2338:	eb 00                	jmp    233a <.label4508>

000000000000233a <.label4508>:
    233a:	eb 00                	jmp    233c <.label4509>

000000000000233c <.label4509>:
    233c:	eb 00                	jmp    233e <.label4510>

000000000000233e <.label4510>:
    233e:	eb 00                	jmp    2340 <.label4511>

0000000000002340 <.label4511>:
    2340:	eb 00                	jmp    2342 <.label4512>

0000000000002342 <.label4512>:
    2342:	eb 00                	jmp    2344 <.label4513>

0000000000002344 <.label4513>:
    2344:	eb 00                	jmp    2346 <.label4514>

0000000000002346 <.label4514>:
    2346:	eb 00                	jmp    2348 <.label4515>

0000000000002348 <.label4515>:
    2348:	eb 00                	jmp    234a <.label4516>

000000000000234a <.label4516>:
    234a:	eb 00                	jmp    234c <.label4517>

000000000000234c <.label4517>:
    234c:	eb 00                	jmp    234e <.label4518>

000000000000234e <.label4518>:
    234e:	eb 00                	jmp    2350 <.label4519>

0000000000002350 <.label4519>:
    2350:	eb 00                	jmp    2352 <.label4520>

0000000000002352 <.label4520>:
    2352:	eb 00                	jmp    2354 <.label4521>

0000000000002354 <.label4521>:
    2354:	eb 00                	jmp    2356 <.label4522>

0000000000002356 <.label4522>:
    2356:	eb 00                	jmp    2358 <.label4523>

0000000000002358 <.label4523>:
    2358:	eb 00                	jmp    235a <.label4524>

000000000000235a <.label4524>:
    235a:	eb 00                	jmp    235c <.label4525>

000000000000235c <.label4525>:
    235c:	eb 00                	jmp    235e <.label4526>

000000000000235e <.label4526>:
    235e:	eb 00                	jmp    2360 <.label4527>

0000000000002360 <.label4527>:
    2360:	eb 00                	jmp    2362 <.label4528>

0000000000002362 <.label4528>:
    2362:	eb 00                	jmp    2364 <.label4529>

0000000000002364 <.label4529>:
    2364:	eb 00                	jmp    2366 <.label4530>

0000000000002366 <.label4530>:
    2366:	eb 00                	jmp    2368 <.label4531>

0000000000002368 <.label4531>:
    2368:	eb 00                	jmp    236a <.label4532>

000000000000236a <.label4532>:
    236a:	eb 00                	jmp    236c <.label4533>

000000000000236c <.label4533>:
    236c:	eb 00                	jmp    236e <.label4534>

000000000000236e <.label4534>:
    236e:	eb 00                	jmp    2370 <.label4535>

0000000000002370 <.label4535>:
    2370:	eb 00                	jmp    2372 <.label4536>

0000000000002372 <.label4536>:
    2372:	eb 00                	jmp    2374 <.label4537>

0000000000002374 <.label4537>:
    2374:	eb 00                	jmp    2376 <.label4538>

0000000000002376 <.label4538>:
    2376:	eb 00                	jmp    2378 <.label4539>

0000000000002378 <.label4539>:
    2378:	eb 00                	jmp    237a <.label4540>

000000000000237a <.label4540>:
    237a:	eb 00                	jmp    237c <.label4541>

000000000000237c <.label4541>:
    237c:	eb 00                	jmp    237e <.label4542>

000000000000237e <.label4542>:
    237e:	eb 00                	jmp    2380 <.label4543>

0000000000002380 <.label4543>:
    2380:	eb 00                	jmp    2382 <.label4544>

0000000000002382 <.label4544>:
    2382:	eb 00                	jmp    2384 <.label4545>

0000000000002384 <.label4545>:
    2384:	eb 00                	jmp    2386 <.label4546>

0000000000002386 <.label4546>:
    2386:	eb 00                	jmp    2388 <.label4547>

0000000000002388 <.label4547>:
    2388:	eb 00                	jmp    238a <.label4548>

000000000000238a <.label4548>:
    238a:	eb 00                	jmp    238c <.label4549>

000000000000238c <.label4549>:
    238c:	eb 00                	jmp    238e <.label4550>

000000000000238e <.label4550>:
    238e:	eb 00                	jmp    2390 <.label4551>

0000000000002390 <.label4551>:
    2390:	eb 00                	jmp    2392 <.label4552>

0000000000002392 <.label4552>:
    2392:	eb 00                	jmp    2394 <.label4553>

0000000000002394 <.label4553>:
    2394:	eb 00                	jmp    2396 <.label4554>

0000000000002396 <.label4554>:
    2396:	eb 00                	jmp    2398 <.label4555>

0000000000002398 <.label4555>:
    2398:	eb 00                	jmp    239a <.label4556>

000000000000239a <.label4556>:
    239a:	eb 00                	jmp    239c <.label4557>

000000000000239c <.label4557>:
    239c:	eb 00                	jmp    239e <.label4558>

000000000000239e <.label4558>:
    239e:	eb 00                	jmp    23a0 <.label4559>

00000000000023a0 <.label4559>:
    23a0:	eb 00                	jmp    23a2 <.label4560>

00000000000023a2 <.label4560>:
    23a2:	eb 00                	jmp    23a4 <.label4561>

00000000000023a4 <.label4561>:
    23a4:	eb 00                	jmp    23a6 <.label4562>

00000000000023a6 <.label4562>:
    23a6:	eb 00                	jmp    23a8 <.label4563>

00000000000023a8 <.label4563>:
    23a8:	eb 00                	jmp    23aa <.label4564>

00000000000023aa <.label4564>:
    23aa:	eb 00                	jmp    23ac <.label4565>

00000000000023ac <.label4565>:
    23ac:	eb 00                	jmp    23ae <.label4566>

00000000000023ae <.label4566>:
    23ae:	eb 00                	jmp    23b0 <.label4567>

00000000000023b0 <.label4567>:
    23b0:	eb 00                	jmp    23b2 <.label4568>

00000000000023b2 <.label4568>:
    23b2:	eb 00                	jmp    23b4 <.label4569>

00000000000023b4 <.label4569>:
    23b4:	eb 00                	jmp    23b6 <.label4570>

00000000000023b6 <.label4570>:
    23b6:	eb 00                	jmp    23b8 <.label4571>

00000000000023b8 <.label4571>:
    23b8:	eb 00                	jmp    23ba <.label4572>

00000000000023ba <.label4572>:
    23ba:	eb 00                	jmp    23bc <.label4573>

00000000000023bc <.label4573>:
    23bc:	eb 00                	jmp    23be <.label4574>

00000000000023be <.label4574>:
    23be:	eb 00                	jmp    23c0 <.label4575>

00000000000023c0 <.label4575>:
    23c0:	eb 00                	jmp    23c2 <.label4576>

00000000000023c2 <.label4576>:
    23c2:	eb 00                	jmp    23c4 <.label4577>

00000000000023c4 <.label4577>:
    23c4:	eb 00                	jmp    23c6 <.label4578>

00000000000023c6 <.label4578>:
    23c6:	eb 00                	jmp    23c8 <.label4579>

00000000000023c8 <.label4579>:
    23c8:	eb 00                	jmp    23ca <.label4580>

00000000000023ca <.label4580>:
    23ca:	eb 00                	jmp    23cc <.label4581>

00000000000023cc <.label4581>:
    23cc:	eb 00                	jmp    23ce <.label4582>

00000000000023ce <.label4582>:
    23ce:	eb 00                	jmp    23d0 <.label4583>

00000000000023d0 <.label4583>:
    23d0:	eb 00                	jmp    23d2 <.label4584>

00000000000023d2 <.label4584>:
    23d2:	eb 00                	jmp    23d4 <.label4585>

00000000000023d4 <.label4585>:
    23d4:	eb 00                	jmp    23d6 <.label4586>

00000000000023d6 <.label4586>:
    23d6:	eb 00                	jmp    23d8 <.label4587>

00000000000023d8 <.label4587>:
    23d8:	eb 00                	jmp    23da <.label4588>

00000000000023da <.label4588>:
    23da:	eb 00                	jmp    23dc <.label4589>

00000000000023dc <.label4589>:
    23dc:	eb 00                	jmp    23de <.label4590>

00000000000023de <.label4590>:
    23de:	eb 00                	jmp    23e0 <.label4591>

00000000000023e0 <.label4591>:
    23e0:	eb 00                	jmp    23e2 <.label4592>

00000000000023e2 <.label4592>:
    23e2:	eb 00                	jmp    23e4 <.label4593>

00000000000023e4 <.label4593>:
    23e4:	eb 00                	jmp    23e6 <.label4594>

00000000000023e6 <.label4594>:
    23e6:	eb 00                	jmp    23e8 <.label4595>

00000000000023e8 <.label4595>:
    23e8:	eb 00                	jmp    23ea <.label4596>

00000000000023ea <.label4596>:
    23ea:	eb 00                	jmp    23ec <.label4597>

00000000000023ec <.label4597>:
    23ec:	eb 00                	jmp    23ee <.label4598>

00000000000023ee <.label4598>:
    23ee:	eb 00                	jmp    23f0 <.label4599>

00000000000023f0 <.label4599>:
    23f0:	eb 00                	jmp    23f2 <.label4600>

00000000000023f2 <.label4600>:
    23f2:	eb 00                	jmp    23f4 <.label4601>

00000000000023f4 <.label4601>:
    23f4:	eb 00                	jmp    23f6 <.label4602>

00000000000023f6 <.label4602>:
    23f6:	eb 00                	jmp    23f8 <.label4603>

00000000000023f8 <.label4603>:
    23f8:	eb 00                	jmp    23fa <.label4604>

00000000000023fa <.label4604>:
    23fa:	eb 00                	jmp    23fc <.label4605>

00000000000023fc <.label4605>:
    23fc:	eb 00                	jmp    23fe <.label4606>

00000000000023fe <.label4606>:
    23fe:	eb 00                	jmp    2400 <.label4607>

0000000000002400 <.label4607>:
    2400:	eb 00                	jmp    2402 <.label4608>

0000000000002402 <.label4608>:
    2402:	eb 00                	jmp    2404 <.label4609>

0000000000002404 <.label4609>:
    2404:	eb 00                	jmp    2406 <.label4610>

0000000000002406 <.label4610>:
    2406:	eb 00                	jmp    2408 <.label4611>

0000000000002408 <.label4611>:
    2408:	eb 00                	jmp    240a <.label4612>

000000000000240a <.label4612>:
    240a:	eb 00                	jmp    240c <.label4613>

000000000000240c <.label4613>:
    240c:	eb 00                	jmp    240e <.label4614>

000000000000240e <.label4614>:
    240e:	eb 00                	jmp    2410 <.label4615>

0000000000002410 <.label4615>:
    2410:	eb 00                	jmp    2412 <.label4616>

0000000000002412 <.label4616>:
    2412:	eb 00                	jmp    2414 <.label4617>

0000000000002414 <.label4617>:
    2414:	eb 00                	jmp    2416 <.label4618>

0000000000002416 <.label4618>:
    2416:	eb 00                	jmp    2418 <.label4619>

0000000000002418 <.label4619>:
    2418:	eb 00                	jmp    241a <.label4620>

000000000000241a <.label4620>:
    241a:	eb 00                	jmp    241c <.label4621>

000000000000241c <.label4621>:
    241c:	eb 00                	jmp    241e <.label4622>

000000000000241e <.label4622>:
    241e:	eb 00                	jmp    2420 <.label4623>

0000000000002420 <.label4623>:
    2420:	eb 00                	jmp    2422 <.label4624>

0000000000002422 <.label4624>:
    2422:	eb 00                	jmp    2424 <.label4625>

0000000000002424 <.label4625>:
    2424:	eb 00                	jmp    2426 <.label4626>

0000000000002426 <.label4626>:
    2426:	eb 00                	jmp    2428 <.label4627>

0000000000002428 <.label4627>:
    2428:	eb 00                	jmp    242a <.label4628>

000000000000242a <.label4628>:
    242a:	eb 00                	jmp    242c <.label4629>

000000000000242c <.label4629>:
    242c:	eb 00                	jmp    242e <.label4630>

000000000000242e <.label4630>:
    242e:	eb 00                	jmp    2430 <.label4631>

0000000000002430 <.label4631>:
    2430:	eb 00                	jmp    2432 <.label4632>

0000000000002432 <.label4632>:
    2432:	eb 00                	jmp    2434 <.label4633>

0000000000002434 <.label4633>:
    2434:	eb 00                	jmp    2436 <.label4634>

0000000000002436 <.label4634>:
    2436:	eb 00                	jmp    2438 <.label4635>

0000000000002438 <.label4635>:
    2438:	eb 00                	jmp    243a <.label4636>

000000000000243a <.label4636>:
    243a:	eb 00                	jmp    243c <.label4637>

000000000000243c <.label4637>:
    243c:	eb 00                	jmp    243e <.label4638>

000000000000243e <.label4638>:
    243e:	eb 00                	jmp    2440 <.label4639>

0000000000002440 <.label4639>:
    2440:	eb 00                	jmp    2442 <.label4640>

0000000000002442 <.label4640>:
    2442:	eb 00                	jmp    2444 <.label4641>

0000000000002444 <.label4641>:
    2444:	eb 00                	jmp    2446 <.label4642>

0000000000002446 <.label4642>:
    2446:	eb 00                	jmp    2448 <.label4643>

0000000000002448 <.label4643>:
    2448:	eb 00                	jmp    244a <.label4644>

000000000000244a <.label4644>:
    244a:	eb 00                	jmp    244c <.label4645>

000000000000244c <.label4645>:
    244c:	eb 00                	jmp    244e <.label4646>

000000000000244e <.label4646>:
    244e:	eb 00                	jmp    2450 <.label4647>

0000000000002450 <.label4647>:
    2450:	eb 00                	jmp    2452 <.label4648>

0000000000002452 <.label4648>:
    2452:	eb 00                	jmp    2454 <.label4649>

0000000000002454 <.label4649>:
    2454:	eb 00                	jmp    2456 <.label4650>

0000000000002456 <.label4650>:
    2456:	eb 00                	jmp    2458 <.label4651>

0000000000002458 <.label4651>:
    2458:	eb 00                	jmp    245a <.label4652>

000000000000245a <.label4652>:
    245a:	eb 00                	jmp    245c <.label4653>

000000000000245c <.label4653>:
    245c:	eb 00                	jmp    245e <.label4654>

000000000000245e <.label4654>:
    245e:	eb 00                	jmp    2460 <.label4655>

0000000000002460 <.label4655>:
    2460:	eb 00                	jmp    2462 <.label4656>

0000000000002462 <.label4656>:
    2462:	eb 00                	jmp    2464 <.label4657>

0000000000002464 <.label4657>:
    2464:	eb 00                	jmp    2466 <.label4658>

0000000000002466 <.label4658>:
    2466:	eb 00                	jmp    2468 <.label4659>

0000000000002468 <.label4659>:
    2468:	eb 00                	jmp    246a <.label4660>

000000000000246a <.label4660>:
    246a:	eb 00                	jmp    246c <.label4661>

000000000000246c <.label4661>:
    246c:	eb 00                	jmp    246e <.label4662>

000000000000246e <.label4662>:
    246e:	eb 00                	jmp    2470 <.label4663>

0000000000002470 <.label4663>:
    2470:	eb 00                	jmp    2472 <.label4664>

0000000000002472 <.label4664>:
    2472:	eb 00                	jmp    2474 <.label4665>

0000000000002474 <.label4665>:
    2474:	eb 00                	jmp    2476 <.label4666>

0000000000002476 <.label4666>:
    2476:	eb 00                	jmp    2478 <.label4667>

0000000000002478 <.label4667>:
    2478:	eb 00                	jmp    247a <.label4668>

000000000000247a <.label4668>:
    247a:	eb 00                	jmp    247c <.label4669>

000000000000247c <.label4669>:
    247c:	eb 00                	jmp    247e <.label4670>

000000000000247e <.label4670>:
    247e:	eb 00                	jmp    2480 <.label4671>

0000000000002480 <.label4671>:
    2480:	eb 00                	jmp    2482 <.label4672>

0000000000002482 <.label4672>:
    2482:	eb 00                	jmp    2484 <.label4673>

0000000000002484 <.label4673>:
    2484:	eb 00                	jmp    2486 <.label4674>

0000000000002486 <.label4674>:
    2486:	eb 00                	jmp    2488 <.label4675>

0000000000002488 <.label4675>:
    2488:	eb 00                	jmp    248a <.label4676>

000000000000248a <.label4676>:
    248a:	eb 00                	jmp    248c <.label4677>

000000000000248c <.label4677>:
    248c:	eb 00                	jmp    248e <.label4678>

000000000000248e <.label4678>:
    248e:	eb 00                	jmp    2490 <.label4679>

0000000000002490 <.label4679>:
    2490:	eb 00                	jmp    2492 <.label4680>

0000000000002492 <.label4680>:
    2492:	eb 00                	jmp    2494 <.label4681>

0000000000002494 <.label4681>:
    2494:	eb 00                	jmp    2496 <.label4682>

0000000000002496 <.label4682>:
    2496:	eb 00                	jmp    2498 <.label4683>

0000000000002498 <.label4683>:
    2498:	eb 00                	jmp    249a <.label4684>

000000000000249a <.label4684>:
    249a:	eb 00                	jmp    249c <.label4685>

000000000000249c <.label4685>:
    249c:	eb 00                	jmp    249e <.label4686>

000000000000249e <.label4686>:
    249e:	eb 00                	jmp    24a0 <.label4687>

00000000000024a0 <.label4687>:
    24a0:	eb 00                	jmp    24a2 <.label4688>

00000000000024a2 <.label4688>:
    24a2:	eb 00                	jmp    24a4 <.label4689>

00000000000024a4 <.label4689>:
    24a4:	eb 00                	jmp    24a6 <.label4690>

00000000000024a6 <.label4690>:
    24a6:	eb 00                	jmp    24a8 <.label4691>

00000000000024a8 <.label4691>:
    24a8:	eb 00                	jmp    24aa <.label4692>

00000000000024aa <.label4692>:
    24aa:	eb 00                	jmp    24ac <.label4693>

00000000000024ac <.label4693>:
    24ac:	eb 00                	jmp    24ae <.label4694>

00000000000024ae <.label4694>:
    24ae:	eb 00                	jmp    24b0 <.label4695>

00000000000024b0 <.label4695>:
    24b0:	eb 00                	jmp    24b2 <.label4696>

00000000000024b2 <.label4696>:
    24b2:	eb 00                	jmp    24b4 <.label4697>

00000000000024b4 <.label4697>:
    24b4:	eb 00                	jmp    24b6 <.label4698>

00000000000024b6 <.label4698>:
    24b6:	eb 00                	jmp    24b8 <.label4699>

00000000000024b8 <.label4699>:
    24b8:	eb 00                	jmp    24ba <.label4700>

00000000000024ba <.label4700>:
    24ba:	eb 00                	jmp    24bc <.label4701>

00000000000024bc <.label4701>:
    24bc:	eb 00                	jmp    24be <.label4702>

00000000000024be <.label4702>:
    24be:	eb 00                	jmp    24c0 <.label4703>

00000000000024c0 <.label4703>:
    24c0:	eb 00                	jmp    24c2 <.label4704>

00000000000024c2 <.label4704>:
    24c2:	eb 00                	jmp    24c4 <.label4705>

00000000000024c4 <.label4705>:
    24c4:	eb 00                	jmp    24c6 <.label4706>

00000000000024c6 <.label4706>:
    24c6:	eb 00                	jmp    24c8 <.label4707>

00000000000024c8 <.label4707>:
    24c8:	eb 00                	jmp    24ca <.label4708>

00000000000024ca <.label4708>:
    24ca:	eb 00                	jmp    24cc <.label4709>

00000000000024cc <.label4709>:
    24cc:	eb 00                	jmp    24ce <.label4710>

00000000000024ce <.label4710>:
    24ce:	eb 00                	jmp    24d0 <.label4711>

00000000000024d0 <.label4711>:
    24d0:	eb 00                	jmp    24d2 <.label4712>

00000000000024d2 <.label4712>:
    24d2:	eb 00                	jmp    24d4 <.label4713>

00000000000024d4 <.label4713>:
    24d4:	eb 00                	jmp    24d6 <.label4714>

00000000000024d6 <.label4714>:
    24d6:	eb 00                	jmp    24d8 <.label4715>

00000000000024d8 <.label4715>:
    24d8:	eb 00                	jmp    24da <.label4716>

00000000000024da <.label4716>:
    24da:	eb 00                	jmp    24dc <.label4717>

00000000000024dc <.label4717>:
    24dc:	eb 00                	jmp    24de <.label4718>

00000000000024de <.label4718>:
    24de:	eb 00                	jmp    24e0 <.label4719>

00000000000024e0 <.label4719>:
    24e0:	eb 00                	jmp    24e2 <.label4720>

00000000000024e2 <.label4720>:
    24e2:	eb 00                	jmp    24e4 <.label4721>

00000000000024e4 <.label4721>:
    24e4:	eb 00                	jmp    24e6 <.label4722>

00000000000024e6 <.label4722>:
    24e6:	eb 00                	jmp    24e8 <.label4723>

00000000000024e8 <.label4723>:
    24e8:	eb 00                	jmp    24ea <.label4724>

00000000000024ea <.label4724>:
    24ea:	eb 00                	jmp    24ec <.label4725>

00000000000024ec <.label4725>:
    24ec:	eb 00                	jmp    24ee <.label4726>

00000000000024ee <.label4726>:
    24ee:	eb 00                	jmp    24f0 <.label4727>

00000000000024f0 <.label4727>:
    24f0:	eb 00                	jmp    24f2 <.label4728>

00000000000024f2 <.label4728>:
    24f2:	eb 00                	jmp    24f4 <.label4729>

00000000000024f4 <.label4729>:
    24f4:	eb 00                	jmp    24f6 <.label4730>

00000000000024f6 <.label4730>:
    24f6:	eb 00                	jmp    24f8 <.label4731>

00000000000024f8 <.label4731>:
    24f8:	eb 00                	jmp    24fa <.label4732>

00000000000024fa <.label4732>:
    24fa:	eb 00                	jmp    24fc <.label4733>

00000000000024fc <.label4733>:
    24fc:	eb 00                	jmp    24fe <.label4734>

00000000000024fe <.label4734>:
    24fe:	eb 00                	jmp    2500 <.label4735>

0000000000002500 <.label4735>:
    2500:	eb 00                	jmp    2502 <.label4736>

0000000000002502 <.label4736>:
    2502:	eb 00                	jmp    2504 <.label4737>

0000000000002504 <.label4737>:
    2504:	eb 00                	jmp    2506 <.label4738>

0000000000002506 <.label4738>:
    2506:	eb 00                	jmp    2508 <.label4739>

0000000000002508 <.label4739>:
    2508:	eb 00                	jmp    250a <.label4740>

000000000000250a <.label4740>:
    250a:	eb 00                	jmp    250c <.label4741>

000000000000250c <.label4741>:
    250c:	eb 00                	jmp    250e <.label4742>

000000000000250e <.label4742>:
    250e:	eb 00                	jmp    2510 <.label4743>

0000000000002510 <.label4743>:
    2510:	eb 00                	jmp    2512 <.label4744>

0000000000002512 <.label4744>:
    2512:	eb 00                	jmp    2514 <.label4745>

0000000000002514 <.label4745>:
    2514:	eb 00                	jmp    2516 <.label4746>

0000000000002516 <.label4746>:
    2516:	eb 00                	jmp    2518 <.label4747>

0000000000002518 <.label4747>:
    2518:	eb 00                	jmp    251a <.label4748>

000000000000251a <.label4748>:
    251a:	eb 00                	jmp    251c <.label4749>

000000000000251c <.label4749>:
    251c:	eb 00                	jmp    251e <.label4750>

000000000000251e <.label4750>:
    251e:	eb 00                	jmp    2520 <.label4751>

0000000000002520 <.label4751>:
    2520:	eb 00                	jmp    2522 <.label4752>

0000000000002522 <.label4752>:
    2522:	eb 00                	jmp    2524 <.label4753>

0000000000002524 <.label4753>:
    2524:	eb 00                	jmp    2526 <.label4754>

0000000000002526 <.label4754>:
    2526:	eb 00                	jmp    2528 <.label4755>

0000000000002528 <.label4755>:
    2528:	eb 00                	jmp    252a <.label4756>

000000000000252a <.label4756>:
    252a:	eb 00                	jmp    252c <.label4757>

000000000000252c <.label4757>:
    252c:	eb 00                	jmp    252e <.label4758>

000000000000252e <.label4758>:
    252e:	eb 00                	jmp    2530 <.label4759>

0000000000002530 <.label4759>:
    2530:	eb 00                	jmp    2532 <.label4760>

0000000000002532 <.label4760>:
    2532:	eb 00                	jmp    2534 <.label4761>

0000000000002534 <.label4761>:
    2534:	eb 00                	jmp    2536 <.label4762>

0000000000002536 <.label4762>:
    2536:	eb 00                	jmp    2538 <.label4763>

0000000000002538 <.label4763>:
    2538:	eb 00                	jmp    253a <.label4764>

000000000000253a <.label4764>:
    253a:	eb 00                	jmp    253c <.label4765>

000000000000253c <.label4765>:
    253c:	eb 00                	jmp    253e <.label4766>

000000000000253e <.label4766>:
    253e:	eb 00                	jmp    2540 <.label4767>

0000000000002540 <.label4767>:
    2540:	eb 00                	jmp    2542 <.label4768>

0000000000002542 <.label4768>:
    2542:	eb 00                	jmp    2544 <.label4769>

0000000000002544 <.label4769>:
    2544:	eb 00                	jmp    2546 <.label4770>

0000000000002546 <.label4770>:
    2546:	eb 00                	jmp    2548 <.label4771>

0000000000002548 <.label4771>:
    2548:	eb 00                	jmp    254a <.label4772>

000000000000254a <.label4772>:
    254a:	eb 00                	jmp    254c <.label4773>

000000000000254c <.label4773>:
    254c:	eb 00                	jmp    254e <.label4774>

000000000000254e <.label4774>:
    254e:	eb 00                	jmp    2550 <.label4775>

0000000000002550 <.label4775>:
    2550:	eb 00                	jmp    2552 <.label4776>

0000000000002552 <.label4776>:
    2552:	eb 00                	jmp    2554 <.label4777>

0000000000002554 <.label4777>:
    2554:	eb 00                	jmp    2556 <.label4778>

0000000000002556 <.label4778>:
    2556:	eb 00                	jmp    2558 <.label4779>

0000000000002558 <.label4779>:
    2558:	eb 00                	jmp    255a <.label4780>

000000000000255a <.label4780>:
    255a:	eb 00                	jmp    255c <.label4781>

000000000000255c <.label4781>:
    255c:	eb 00                	jmp    255e <.label4782>

000000000000255e <.label4782>:
    255e:	eb 00                	jmp    2560 <.label4783>

0000000000002560 <.label4783>:
    2560:	eb 00                	jmp    2562 <.label4784>

0000000000002562 <.label4784>:
    2562:	eb 00                	jmp    2564 <.label4785>

0000000000002564 <.label4785>:
    2564:	eb 00                	jmp    2566 <.label4786>

0000000000002566 <.label4786>:
    2566:	eb 00                	jmp    2568 <.label4787>

0000000000002568 <.label4787>:
    2568:	eb 00                	jmp    256a <.label4788>

000000000000256a <.label4788>:
    256a:	eb 00                	jmp    256c <.label4789>

000000000000256c <.label4789>:
    256c:	eb 00                	jmp    256e <.label4790>

000000000000256e <.label4790>:
    256e:	eb 00                	jmp    2570 <.label4791>

0000000000002570 <.label4791>:
    2570:	eb 00                	jmp    2572 <.label4792>

0000000000002572 <.label4792>:
    2572:	eb 00                	jmp    2574 <.label4793>

0000000000002574 <.label4793>:
    2574:	eb 00                	jmp    2576 <.label4794>

0000000000002576 <.label4794>:
    2576:	eb 00                	jmp    2578 <.label4795>

0000000000002578 <.label4795>:
    2578:	eb 00                	jmp    257a <.label4796>

000000000000257a <.label4796>:
    257a:	eb 00                	jmp    257c <.label4797>

000000000000257c <.label4797>:
    257c:	eb 00                	jmp    257e <.label4798>

000000000000257e <.label4798>:
    257e:	eb 00                	jmp    2580 <.label4799>

0000000000002580 <.label4799>:
    2580:	eb 00                	jmp    2582 <.label4800>

0000000000002582 <.label4800>:
    2582:	eb 00                	jmp    2584 <.label4801>

0000000000002584 <.label4801>:
    2584:	eb 00                	jmp    2586 <.label4802>

0000000000002586 <.label4802>:
    2586:	eb 00                	jmp    2588 <.label4803>

0000000000002588 <.label4803>:
    2588:	eb 00                	jmp    258a <.label4804>

000000000000258a <.label4804>:
    258a:	eb 00                	jmp    258c <.label4805>

000000000000258c <.label4805>:
    258c:	eb 00                	jmp    258e <.label4806>

000000000000258e <.label4806>:
    258e:	eb 00                	jmp    2590 <.label4807>

0000000000002590 <.label4807>:
    2590:	eb 00                	jmp    2592 <.label4808>

0000000000002592 <.label4808>:
    2592:	eb 00                	jmp    2594 <.label4809>

0000000000002594 <.label4809>:
    2594:	eb 00                	jmp    2596 <.label4810>

0000000000002596 <.label4810>:
    2596:	eb 00                	jmp    2598 <.label4811>

0000000000002598 <.label4811>:
    2598:	eb 00                	jmp    259a <.label4812>

000000000000259a <.label4812>:
    259a:	eb 00                	jmp    259c <.label4813>

000000000000259c <.label4813>:
    259c:	eb 00                	jmp    259e <.label4814>

000000000000259e <.label4814>:
    259e:	eb 00                	jmp    25a0 <.label4815>

00000000000025a0 <.label4815>:
    25a0:	eb 00                	jmp    25a2 <.label4816>

00000000000025a2 <.label4816>:
    25a2:	eb 00                	jmp    25a4 <.label4817>

00000000000025a4 <.label4817>:
    25a4:	eb 00                	jmp    25a6 <.label4818>

00000000000025a6 <.label4818>:
    25a6:	eb 00                	jmp    25a8 <.label4819>

00000000000025a8 <.label4819>:
    25a8:	eb 00                	jmp    25aa <.label4820>

00000000000025aa <.label4820>:
    25aa:	eb 00                	jmp    25ac <.label4821>

00000000000025ac <.label4821>:
    25ac:	eb 00                	jmp    25ae <.label4822>

00000000000025ae <.label4822>:
    25ae:	eb 00                	jmp    25b0 <.label4823>

00000000000025b0 <.label4823>:
    25b0:	eb 00                	jmp    25b2 <.label4824>

00000000000025b2 <.label4824>:
    25b2:	eb 00                	jmp    25b4 <.label4825>

00000000000025b4 <.label4825>:
    25b4:	eb 00                	jmp    25b6 <.label4826>

00000000000025b6 <.label4826>:
    25b6:	eb 00                	jmp    25b8 <.label4827>

00000000000025b8 <.label4827>:
    25b8:	eb 00                	jmp    25ba <.label4828>

00000000000025ba <.label4828>:
    25ba:	eb 00                	jmp    25bc <.label4829>

00000000000025bc <.label4829>:
    25bc:	eb 00                	jmp    25be <.label4830>

00000000000025be <.label4830>:
    25be:	eb 00                	jmp    25c0 <.label4831>

00000000000025c0 <.label4831>:
    25c0:	eb 00                	jmp    25c2 <.label4832>

00000000000025c2 <.label4832>:
    25c2:	eb 00                	jmp    25c4 <.label4833>

00000000000025c4 <.label4833>:
    25c4:	eb 00                	jmp    25c6 <.label4834>

00000000000025c6 <.label4834>:
    25c6:	eb 00                	jmp    25c8 <.label4835>

00000000000025c8 <.label4835>:
    25c8:	eb 00                	jmp    25ca <.label4836>

00000000000025ca <.label4836>:
    25ca:	eb 00                	jmp    25cc <.label4837>

00000000000025cc <.label4837>:
    25cc:	eb 00                	jmp    25ce <.label4838>

00000000000025ce <.label4838>:
    25ce:	eb 00                	jmp    25d0 <.label4839>

00000000000025d0 <.label4839>:
    25d0:	eb 00                	jmp    25d2 <.label4840>

00000000000025d2 <.label4840>:
    25d2:	eb 00                	jmp    25d4 <.label4841>

00000000000025d4 <.label4841>:
    25d4:	eb 00                	jmp    25d6 <.label4842>

00000000000025d6 <.label4842>:
    25d6:	eb 00                	jmp    25d8 <.label4843>

00000000000025d8 <.label4843>:
    25d8:	eb 00                	jmp    25da <.label4844>

00000000000025da <.label4844>:
    25da:	eb 00                	jmp    25dc <.label4845>

00000000000025dc <.label4845>:
    25dc:	eb 00                	jmp    25de <.label4846>

00000000000025de <.label4846>:
    25de:	eb 00                	jmp    25e0 <.label4847>

00000000000025e0 <.label4847>:
    25e0:	eb 00                	jmp    25e2 <.label4848>

00000000000025e2 <.label4848>:
    25e2:	eb 00                	jmp    25e4 <.label4849>

00000000000025e4 <.label4849>:
    25e4:	eb 00                	jmp    25e6 <.label4850>

00000000000025e6 <.label4850>:
    25e6:	eb 00                	jmp    25e8 <.label4851>

00000000000025e8 <.label4851>:
    25e8:	eb 00                	jmp    25ea <.label4852>

00000000000025ea <.label4852>:
    25ea:	eb 00                	jmp    25ec <.label4853>

00000000000025ec <.label4853>:
    25ec:	eb 00                	jmp    25ee <.label4854>

00000000000025ee <.label4854>:
    25ee:	eb 00                	jmp    25f0 <.label4855>

00000000000025f0 <.label4855>:
    25f0:	eb 00                	jmp    25f2 <.label4856>

00000000000025f2 <.label4856>:
    25f2:	eb 00                	jmp    25f4 <.label4857>

00000000000025f4 <.label4857>:
    25f4:	eb 00                	jmp    25f6 <.label4858>

00000000000025f6 <.label4858>:
    25f6:	eb 00                	jmp    25f8 <.label4859>

00000000000025f8 <.label4859>:
    25f8:	eb 00                	jmp    25fa <.label4860>

00000000000025fa <.label4860>:
    25fa:	eb 00                	jmp    25fc <.label4861>

00000000000025fc <.label4861>:
    25fc:	eb 00                	jmp    25fe <.label4862>

00000000000025fe <.label4862>:
    25fe:	eb 00                	jmp    2600 <.label4863>

0000000000002600 <.label4863>:
    2600:	eb 00                	jmp    2602 <.label4864>

0000000000002602 <.label4864>:
    2602:	eb 00                	jmp    2604 <.label4865>

0000000000002604 <.label4865>:
    2604:	eb 00                	jmp    2606 <.label4866>

0000000000002606 <.label4866>:
    2606:	eb 00                	jmp    2608 <.label4867>

0000000000002608 <.label4867>:
    2608:	eb 00                	jmp    260a <.label4868>

000000000000260a <.label4868>:
    260a:	eb 00                	jmp    260c <.label4869>

000000000000260c <.label4869>:
    260c:	eb 00                	jmp    260e <.label4870>

000000000000260e <.label4870>:
    260e:	eb 00                	jmp    2610 <.label4871>

0000000000002610 <.label4871>:
    2610:	eb 00                	jmp    2612 <.label4872>

0000000000002612 <.label4872>:
    2612:	eb 00                	jmp    2614 <.label4873>

0000000000002614 <.label4873>:
    2614:	eb 00                	jmp    2616 <.label4874>

0000000000002616 <.label4874>:
    2616:	eb 00                	jmp    2618 <.label4875>

0000000000002618 <.label4875>:
    2618:	eb 00                	jmp    261a <.label4876>

000000000000261a <.label4876>:
    261a:	eb 00                	jmp    261c <.label4877>

000000000000261c <.label4877>:
    261c:	eb 00                	jmp    261e <.label4878>

000000000000261e <.label4878>:
    261e:	eb 00                	jmp    2620 <.label4879>

0000000000002620 <.label4879>:
    2620:	eb 00                	jmp    2622 <.label4880>

0000000000002622 <.label4880>:
    2622:	eb 00                	jmp    2624 <.label4881>

0000000000002624 <.label4881>:
    2624:	eb 00                	jmp    2626 <.label4882>

0000000000002626 <.label4882>:
    2626:	eb 00                	jmp    2628 <.label4883>

0000000000002628 <.label4883>:
    2628:	eb 00                	jmp    262a <.label4884>

000000000000262a <.label4884>:
    262a:	eb 00                	jmp    262c <.label4885>

000000000000262c <.label4885>:
    262c:	eb 00                	jmp    262e <.label4886>

000000000000262e <.label4886>:
    262e:	eb 00                	jmp    2630 <.label4887>

0000000000002630 <.label4887>:
    2630:	eb 00                	jmp    2632 <.label4888>

0000000000002632 <.label4888>:
    2632:	eb 00                	jmp    2634 <.label4889>

0000000000002634 <.label4889>:
    2634:	eb 00                	jmp    2636 <.label4890>

0000000000002636 <.label4890>:
    2636:	eb 00                	jmp    2638 <.label4891>

0000000000002638 <.label4891>:
    2638:	eb 00                	jmp    263a <.label4892>

000000000000263a <.label4892>:
    263a:	eb 00                	jmp    263c <.label4893>

000000000000263c <.label4893>:
    263c:	eb 00                	jmp    263e <.label4894>

000000000000263e <.label4894>:
    263e:	eb 00                	jmp    2640 <.label4895>

0000000000002640 <.label4895>:
    2640:	eb 00                	jmp    2642 <.label4896>

0000000000002642 <.label4896>:
    2642:	eb 00                	jmp    2644 <.label4897>

0000000000002644 <.label4897>:
    2644:	eb 00                	jmp    2646 <.label4898>

0000000000002646 <.label4898>:
    2646:	eb 00                	jmp    2648 <.label4899>

0000000000002648 <.label4899>:
    2648:	eb 00                	jmp    264a <.label4900>

000000000000264a <.label4900>:
    264a:	eb 00                	jmp    264c <.label4901>

000000000000264c <.label4901>:
    264c:	eb 00                	jmp    264e <.label4902>

000000000000264e <.label4902>:
    264e:	eb 00                	jmp    2650 <.label4903>

0000000000002650 <.label4903>:
    2650:	eb 00                	jmp    2652 <.label4904>

0000000000002652 <.label4904>:
    2652:	eb 00                	jmp    2654 <.label4905>

0000000000002654 <.label4905>:
    2654:	eb 00                	jmp    2656 <.label4906>

0000000000002656 <.label4906>:
    2656:	eb 00                	jmp    2658 <.label4907>

0000000000002658 <.label4907>:
    2658:	eb 00                	jmp    265a <.label4908>

000000000000265a <.label4908>:
    265a:	eb 00                	jmp    265c <.label4909>

000000000000265c <.label4909>:
    265c:	eb 00                	jmp    265e <.label4910>

000000000000265e <.label4910>:
    265e:	eb 00                	jmp    2660 <.label4911>

0000000000002660 <.label4911>:
    2660:	eb 00                	jmp    2662 <.label4912>

0000000000002662 <.label4912>:
    2662:	eb 00                	jmp    2664 <.label4913>

0000000000002664 <.label4913>:
    2664:	eb 00                	jmp    2666 <.label4914>

0000000000002666 <.label4914>:
    2666:	eb 00                	jmp    2668 <.label4915>

0000000000002668 <.label4915>:
    2668:	eb 00                	jmp    266a <.label4916>

000000000000266a <.label4916>:
    266a:	eb 00                	jmp    266c <.label4917>

000000000000266c <.label4917>:
    266c:	eb 00                	jmp    266e <.label4918>

000000000000266e <.label4918>:
    266e:	eb 00                	jmp    2670 <.label4919>

0000000000002670 <.label4919>:
    2670:	eb 00                	jmp    2672 <.label4920>

0000000000002672 <.label4920>:
    2672:	eb 00                	jmp    2674 <.label4921>

0000000000002674 <.label4921>:
    2674:	eb 00                	jmp    2676 <.label4922>

0000000000002676 <.label4922>:
    2676:	eb 00                	jmp    2678 <.label4923>

0000000000002678 <.label4923>:
    2678:	eb 00                	jmp    267a <.label4924>

000000000000267a <.label4924>:
    267a:	eb 00                	jmp    267c <.label4925>

000000000000267c <.label4925>:
    267c:	eb 00                	jmp    267e <.label4926>

000000000000267e <.label4926>:
    267e:	eb 00                	jmp    2680 <.label4927>

0000000000002680 <.label4927>:
    2680:	eb 00                	jmp    2682 <.label4928>

0000000000002682 <.label4928>:
    2682:	eb 00                	jmp    2684 <.label4929>

0000000000002684 <.label4929>:
    2684:	eb 00                	jmp    2686 <.label4930>

0000000000002686 <.label4930>:
    2686:	eb 00                	jmp    2688 <.label4931>

0000000000002688 <.label4931>:
    2688:	eb 00                	jmp    268a <.label4932>

000000000000268a <.label4932>:
    268a:	eb 00                	jmp    268c <.label4933>

000000000000268c <.label4933>:
    268c:	eb 00                	jmp    268e <.label4934>

000000000000268e <.label4934>:
    268e:	eb 00                	jmp    2690 <.label4935>

0000000000002690 <.label4935>:
    2690:	eb 00                	jmp    2692 <.label4936>

0000000000002692 <.label4936>:
    2692:	eb 00                	jmp    2694 <.label4937>

0000000000002694 <.label4937>:
    2694:	eb 00                	jmp    2696 <.label4938>

0000000000002696 <.label4938>:
    2696:	eb 00                	jmp    2698 <.label4939>

0000000000002698 <.label4939>:
    2698:	eb 00                	jmp    269a <.label4940>

000000000000269a <.label4940>:
    269a:	eb 00                	jmp    269c <.label4941>

000000000000269c <.label4941>:
    269c:	eb 00                	jmp    269e <.label4942>

000000000000269e <.label4942>:
    269e:	eb 00                	jmp    26a0 <.label4943>

00000000000026a0 <.label4943>:
    26a0:	eb 00                	jmp    26a2 <.label4944>

00000000000026a2 <.label4944>:
    26a2:	eb 00                	jmp    26a4 <.label4945>

00000000000026a4 <.label4945>:
    26a4:	eb 00                	jmp    26a6 <.label4946>

00000000000026a6 <.label4946>:
    26a6:	eb 00                	jmp    26a8 <.label4947>

00000000000026a8 <.label4947>:
    26a8:	eb 00                	jmp    26aa <.label4948>

00000000000026aa <.label4948>:
    26aa:	eb 00                	jmp    26ac <.label4949>

00000000000026ac <.label4949>:
    26ac:	eb 00                	jmp    26ae <.label4950>

00000000000026ae <.label4950>:
    26ae:	eb 00                	jmp    26b0 <.label4951>

00000000000026b0 <.label4951>:
    26b0:	eb 00                	jmp    26b2 <.label4952>

00000000000026b2 <.label4952>:
    26b2:	eb 00                	jmp    26b4 <.label4953>

00000000000026b4 <.label4953>:
    26b4:	eb 00                	jmp    26b6 <.label4954>

00000000000026b6 <.label4954>:
    26b6:	eb 00                	jmp    26b8 <.label4955>

00000000000026b8 <.label4955>:
    26b8:	eb 00                	jmp    26ba <.label4956>

00000000000026ba <.label4956>:
    26ba:	eb 00                	jmp    26bc <.label4957>

00000000000026bc <.label4957>:
    26bc:	eb 00                	jmp    26be <.label4958>

00000000000026be <.label4958>:
    26be:	eb 00                	jmp    26c0 <.label4959>

00000000000026c0 <.label4959>:
    26c0:	eb 00                	jmp    26c2 <.label4960>

00000000000026c2 <.label4960>:
    26c2:	eb 00                	jmp    26c4 <.label4961>

00000000000026c4 <.label4961>:
    26c4:	eb 00                	jmp    26c6 <.label4962>

00000000000026c6 <.label4962>:
    26c6:	eb 00                	jmp    26c8 <.label4963>

00000000000026c8 <.label4963>:
    26c8:	eb 00                	jmp    26ca <.label4964>

00000000000026ca <.label4964>:
    26ca:	eb 00                	jmp    26cc <.label4965>

00000000000026cc <.label4965>:
    26cc:	eb 00                	jmp    26ce <.label4966>

00000000000026ce <.label4966>:
    26ce:	eb 00                	jmp    26d0 <.label4967>

00000000000026d0 <.label4967>:
    26d0:	eb 00                	jmp    26d2 <.label4968>

00000000000026d2 <.label4968>:
    26d2:	eb 00                	jmp    26d4 <.label4969>

00000000000026d4 <.label4969>:
    26d4:	eb 00                	jmp    26d6 <.label4970>

00000000000026d6 <.label4970>:
    26d6:	eb 00                	jmp    26d8 <.label4971>

00000000000026d8 <.label4971>:
    26d8:	eb 00                	jmp    26da <.label4972>

00000000000026da <.label4972>:
    26da:	eb 00                	jmp    26dc <.label4973>

00000000000026dc <.label4973>:
    26dc:	eb 00                	jmp    26de <.label4974>

00000000000026de <.label4974>:
    26de:	eb 00                	jmp    26e0 <.label4975>

00000000000026e0 <.label4975>:
    26e0:	eb 00                	jmp    26e2 <.label4976>

00000000000026e2 <.label4976>:
    26e2:	eb 00                	jmp    26e4 <.label4977>

00000000000026e4 <.label4977>:
    26e4:	eb 00                	jmp    26e6 <.label4978>

00000000000026e6 <.label4978>:
    26e6:	eb 00                	jmp    26e8 <.label4979>

00000000000026e8 <.label4979>:
    26e8:	eb 00                	jmp    26ea <.label4980>

00000000000026ea <.label4980>:
    26ea:	eb 00                	jmp    26ec <.label4981>

00000000000026ec <.label4981>:
    26ec:	eb 00                	jmp    26ee <.label4982>

00000000000026ee <.label4982>:
    26ee:	eb 00                	jmp    26f0 <.label4983>

00000000000026f0 <.label4983>:
    26f0:	eb 00                	jmp    26f2 <.label4984>

00000000000026f2 <.label4984>:
    26f2:	eb 00                	jmp    26f4 <.label4985>

00000000000026f4 <.label4985>:
    26f4:	eb 00                	jmp    26f6 <.label4986>

00000000000026f6 <.label4986>:
    26f6:	eb 00                	jmp    26f8 <.label4987>

00000000000026f8 <.label4987>:
    26f8:	eb 00                	jmp    26fa <.label4988>

00000000000026fa <.label4988>:
    26fa:	eb 00                	jmp    26fc <.label4989>

00000000000026fc <.label4989>:
    26fc:	eb 00                	jmp    26fe <.label4990>

00000000000026fe <.label4990>:
    26fe:	eb 00                	jmp    2700 <.label4991>

0000000000002700 <.label4991>:
    2700:	eb 00                	jmp    2702 <.label4992>

0000000000002702 <.label4992>:
    2702:	eb 00                	jmp    2704 <.label4993>

0000000000002704 <.label4993>:
    2704:	eb 00                	jmp    2706 <.label4994>

0000000000002706 <.label4994>:
    2706:	eb 00                	jmp    2708 <.label4995>

0000000000002708 <.label4995>:
    2708:	eb 00                	jmp    270a <.label4996>

000000000000270a <.label4996>:
    270a:	eb 00                	jmp    270c <.label4997>

000000000000270c <.label4997>:
    270c:	eb 00                	jmp    270e <.label4998>

000000000000270e <.label4998>:
    270e:	eb 00                	jmp    2710 <.label4999>

0000000000002710 <.label4999>:
    2710:	eb 00                	jmp    2712 <.label5000>

0000000000002712 <.label5000>:
    2712:	eb 00                	jmp    2714 <.label5001>

0000000000002714 <.label5001>:
    2714:	eb 00                	jmp    2716 <.label5002>

0000000000002716 <.label5002>:
    2716:	eb 00                	jmp    2718 <.label5003>

0000000000002718 <.label5003>:
    2718:	eb 00                	jmp    271a <.label5004>

000000000000271a <.label5004>:
    271a:	eb 00                	jmp    271c <.label5005>

000000000000271c <.label5005>:
    271c:	eb 00                	jmp    271e <.label5006>

000000000000271e <.label5006>:
    271e:	eb 00                	jmp    2720 <.label5007>

0000000000002720 <.label5007>:
    2720:	eb 00                	jmp    2722 <.label5008>

0000000000002722 <.label5008>:
    2722:	eb 00                	jmp    2724 <.label5009>

0000000000002724 <.label5009>:
    2724:	eb 00                	jmp    2726 <.label5010>

0000000000002726 <.label5010>:
    2726:	eb 00                	jmp    2728 <.label5011>

0000000000002728 <.label5011>:
    2728:	eb 00                	jmp    272a <.label5012>

000000000000272a <.label5012>:
    272a:	eb 00                	jmp    272c <.label5013>

000000000000272c <.label5013>:
    272c:	eb 00                	jmp    272e <.label5014>

000000000000272e <.label5014>:
    272e:	eb 00                	jmp    2730 <.label5015>

0000000000002730 <.label5015>:
    2730:	eb 00                	jmp    2732 <.label5016>

0000000000002732 <.label5016>:
    2732:	eb 00                	jmp    2734 <.label5017>

0000000000002734 <.label5017>:
    2734:	eb 00                	jmp    2736 <.label5018>

0000000000002736 <.label5018>:
    2736:	eb 00                	jmp    2738 <.label5019>

0000000000002738 <.label5019>:
    2738:	eb 00                	jmp    273a <.label5020>

000000000000273a <.label5020>:
    273a:	eb 00                	jmp    273c <.label5021>

000000000000273c <.label5021>:
    273c:	eb 00                	jmp    273e <.label5022>

000000000000273e <.label5022>:
    273e:	eb 00                	jmp    2740 <.label5023>

0000000000002740 <.label5023>:
    2740:	eb 00                	jmp    2742 <.label5024>

0000000000002742 <.label5024>:
    2742:	eb 00                	jmp    2744 <.label5025>

0000000000002744 <.label5025>:
    2744:	eb 00                	jmp    2746 <.label5026>

0000000000002746 <.label5026>:
    2746:	eb 00                	jmp    2748 <.label5027>

0000000000002748 <.label5027>:
    2748:	eb 00                	jmp    274a <.label5028>

000000000000274a <.label5028>:
    274a:	eb 00                	jmp    274c <.label5029>

000000000000274c <.label5029>:
    274c:	eb 00                	jmp    274e <.label5030>

000000000000274e <.label5030>:
    274e:	eb 00                	jmp    2750 <.label5031>

0000000000002750 <.label5031>:
    2750:	eb 00                	jmp    2752 <.label5032>

0000000000002752 <.label5032>:
    2752:	eb 00                	jmp    2754 <.label5033>

0000000000002754 <.label5033>:
    2754:	eb 00                	jmp    2756 <.label5034>

0000000000002756 <.label5034>:
    2756:	eb 00                	jmp    2758 <.label5035>

0000000000002758 <.label5035>:
    2758:	eb 00                	jmp    275a <.label5036>

000000000000275a <.label5036>:
    275a:	eb 00                	jmp    275c <.label5037>

000000000000275c <.label5037>:
    275c:	eb 00                	jmp    275e <.label5038>

000000000000275e <.label5038>:
    275e:	eb 00                	jmp    2760 <.label5039>

0000000000002760 <.label5039>:
    2760:	eb 00                	jmp    2762 <.label5040>

0000000000002762 <.label5040>:
    2762:	eb 00                	jmp    2764 <.label5041>

0000000000002764 <.label5041>:
    2764:	eb 00                	jmp    2766 <.label5042>

0000000000002766 <.label5042>:
    2766:	eb 00                	jmp    2768 <.label5043>

0000000000002768 <.label5043>:
    2768:	eb 00                	jmp    276a <.label5044>

000000000000276a <.label5044>:
    276a:	eb 00                	jmp    276c <.label5045>

000000000000276c <.label5045>:
    276c:	eb 00                	jmp    276e <.label5046>

000000000000276e <.label5046>:
    276e:	eb 00                	jmp    2770 <.label5047>

0000000000002770 <.label5047>:
    2770:	eb 00                	jmp    2772 <.label5048>

0000000000002772 <.label5048>:
    2772:	eb 00                	jmp    2774 <.label5049>

0000000000002774 <.label5049>:
    2774:	eb 00                	jmp    2776 <.label5050>

0000000000002776 <.label5050>:
    2776:	eb 00                	jmp    2778 <.label5051>

0000000000002778 <.label5051>:
    2778:	eb 00                	jmp    277a <.label5052>

000000000000277a <.label5052>:
    277a:	eb 00                	jmp    277c <.label5053>

000000000000277c <.label5053>:
    277c:	eb 00                	jmp    277e <.label5054>

000000000000277e <.label5054>:
    277e:	eb 00                	jmp    2780 <.label5055>

0000000000002780 <.label5055>:
    2780:	eb 00                	jmp    2782 <.label5056>

0000000000002782 <.label5056>:
    2782:	eb 00                	jmp    2784 <.label5057>

0000000000002784 <.label5057>:
    2784:	eb 00                	jmp    2786 <.label5058>

0000000000002786 <.label5058>:
    2786:	eb 00                	jmp    2788 <.label5059>

0000000000002788 <.label5059>:
    2788:	eb 00                	jmp    278a <.label5060>

000000000000278a <.label5060>:
    278a:	eb 00                	jmp    278c <.label5061>

000000000000278c <.label5061>:
    278c:	eb 00                	jmp    278e <.label5062>

000000000000278e <.label5062>:
    278e:	eb 00                	jmp    2790 <.label5063>

0000000000002790 <.label5063>:
    2790:	eb 00                	jmp    2792 <.label5064>

0000000000002792 <.label5064>:
    2792:	eb 00                	jmp    2794 <.label5065>

0000000000002794 <.label5065>:
    2794:	eb 00                	jmp    2796 <.label5066>

0000000000002796 <.label5066>:
    2796:	eb 00                	jmp    2798 <.label5067>

0000000000002798 <.label5067>:
    2798:	eb 00                	jmp    279a <.label5068>

000000000000279a <.label5068>:
    279a:	eb 00                	jmp    279c <.label5069>

000000000000279c <.label5069>:
    279c:	eb 00                	jmp    279e <.label5070>

000000000000279e <.label5070>:
    279e:	eb 00                	jmp    27a0 <.label5071>

00000000000027a0 <.label5071>:
    27a0:	eb 00                	jmp    27a2 <.label5072>

00000000000027a2 <.label5072>:
    27a2:	eb 00                	jmp    27a4 <.label5073>

00000000000027a4 <.label5073>:
    27a4:	eb 00                	jmp    27a6 <.label5074>

00000000000027a6 <.label5074>:
    27a6:	eb 00                	jmp    27a8 <.label5075>

00000000000027a8 <.label5075>:
    27a8:	eb 00                	jmp    27aa <.label5076>

00000000000027aa <.label5076>:
    27aa:	eb 00                	jmp    27ac <.label5077>

00000000000027ac <.label5077>:
    27ac:	eb 00                	jmp    27ae <.label5078>

00000000000027ae <.label5078>:
    27ae:	eb 00                	jmp    27b0 <.label5079>

00000000000027b0 <.label5079>:
    27b0:	eb 00                	jmp    27b2 <.label5080>

00000000000027b2 <.label5080>:
    27b2:	eb 00                	jmp    27b4 <.label5081>

00000000000027b4 <.label5081>:
    27b4:	eb 00                	jmp    27b6 <.label5082>

00000000000027b6 <.label5082>:
    27b6:	eb 00                	jmp    27b8 <.label5083>

00000000000027b8 <.label5083>:
    27b8:	eb 00                	jmp    27ba <.label5084>

00000000000027ba <.label5084>:
    27ba:	eb 00                	jmp    27bc <.label5085>

00000000000027bc <.label5085>:
    27bc:	eb 00                	jmp    27be <.label5086>

00000000000027be <.label5086>:
    27be:	eb 00                	jmp    27c0 <.label5087>

00000000000027c0 <.label5087>:
    27c0:	eb 00                	jmp    27c2 <.label5088>

00000000000027c2 <.label5088>:
    27c2:	eb 00                	jmp    27c4 <.label5089>

00000000000027c4 <.label5089>:
    27c4:	eb 00                	jmp    27c6 <.label5090>

00000000000027c6 <.label5090>:
    27c6:	eb 00                	jmp    27c8 <.label5091>

00000000000027c8 <.label5091>:
    27c8:	eb 00                	jmp    27ca <.label5092>

00000000000027ca <.label5092>:
    27ca:	eb 00                	jmp    27cc <.label5093>

00000000000027cc <.label5093>:
    27cc:	eb 00                	jmp    27ce <.label5094>

00000000000027ce <.label5094>:
    27ce:	eb 00                	jmp    27d0 <.label5095>

00000000000027d0 <.label5095>:
    27d0:	eb 00                	jmp    27d2 <.label5096>

00000000000027d2 <.label5096>:
    27d2:	eb 00                	jmp    27d4 <.label5097>

00000000000027d4 <.label5097>:
    27d4:	eb 00                	jmp    27d6 <.label5098>

00000000000027d6 <.label5098>:
    27d6:	eb 00                	jmp    27d8 <.label5099>

00000000000027d8 <.label5099>:
    27d8:	eb 00                	jmp    27da <.label5100>

00000000000027da <.label5100>:
    27da:	eb 00                	jmp    27dc <.label5101>

00000000000027dc <.label5101>:
    27dc:	eb 00                	jmp    27de <.label5102>

00000000000027de <.label5102>:
    27de:	eb 00                	jmp    27e0 <.label5103>

00000000000027e0 <.label5103>:
    27e0:	eb 00                	jmp    27e2 <.label5104>

00000000000027e2 <.label5104>:
    27e2:	eb 00                	jmp    27e4 <.label5105>

00000000000027e4 <.label5105>:
    27e4:	eb 00                	jmp    27e6 <.label5106>

00000000000027e6 <.label5106>:
    27e6:	eb 00                	jmp    27e8 <.label5107>

00000000000027e8 <.label5107>:
    27e8:	eb 00                	jmp    27ea <.label5108>

00000000000027ea <.label5108>:
    27ea:	eb 00                	jmp    27ec <.label5109>

00000000000027ec <.label5109>:
    27ec:	eb 00                	jmp    27ee <.label5110>

00000000000027ee <.label5110>:
    27ee:	eb 00                	jmp    27f0 <.label5111>

00000000000027f0 <.label5111>:
    27f0:	eb 00                	jmp    27f2 <.label5112>

00000000000027f2 <.label5112>:
    27f2:	eb 00                	jmp    27f4 <.label5113>

00000000000027f4 <.label5113>:
    27f4:	eb 00                	jmp    27f6 <.label5114>

00000000000027f6 <.label5114>:
    27f6:	eb 00                	jmp    27f8 <.label5115>

00000000000027f8 <.label5115>:
    27f8:	eb 00                	jmp    27fa <.label5116>

00000000000027fa <.label5116>:
    27fa:	eb 00                	jmp    27fc <.label5117>

00000000000027fc <.label5117>:
    27fc:	eb 00                	jmp    27fe <.label5118>

00000000000027fe <.label5118>:
    27fe:	eb 00                	jmp    2800 <.label5119>

0000000000002800 <.label5119>:
    2800:	eb 00                	jmp    2802 <.label5120>

0000000000002802 <.label5120>:
    2802:	eb 00                	jmp    2804 <.label5121>

0000000000002804 <.label5121>:
    2804:	eb 00                	jmp    2806 <.label5122>

0000000000002806 <.label5122>:
    2806:	eb 00                	jmp    2808 <.label5123>

0000000000002808 <.label5123>:
    2808:	eb 00                	jmp    280a <.label5124>

000000000000280a <.label5124>:
    280a:	eb 00                	jmp    280c <.label5125>

000000000000280c <.label5125>:
    280c:	eb 00                	jmp    280e <.label5126>

000000000000280e <.label5126>:
    280e:	eb 00                	jmp    2810 <.label5127>

0000000000002810 <.label5127>:
    2810:	eb 00                	jmp    2812 <.label5128>

0000000000002812 <.label5128>:
    2812:	eb 00                	jmp    2814 <.label5129>

0000000000002814 <.label5129>:
    2814:	eb 00                	jmp    2816 <.label5130>

0000000000002816 <.label5130>:
    2816:	eb 00                	jmp    2818 <.label5131>

0000000000002818 <.label5131>:
    2818:	eb 00                	jmp    281a <.label5132>

000000000000281a <.label5132>:
    281a:	eb 00                	jmp    281c <.label5133>

000000000000281c <.label5133>:
    281c:	eb 00                	jmp    281e <.label5134>

000000000000281e <.label5134>:
    281e:	eb 00                	jmp    2820 <.label5135>

0000000000002820 <.label5135>:
    2820:	eb 00                	jmp    2822 <.label5136>

0000000000002822 <.label5136>:
    2822:	eb 00                	jmp    2824 <.label5137>

0000000000002824 <.label5137>:
    2824:	eb 00                	jmp    2826 <.label5138>

0000000000002826 <.label5138>:
    2826:	eb 00                	jmp    2828 <.label5139>

0000000000002828 <.label5139>:
    2828:	eb 00                	jmp    282a <.label5140>

000000000000282a <.label5140>:
    282a:	eb 00                	jmp    282c <.label5141>

000000000000282c <.label5141>:
    282c:	eb 00                	jmp    282e <.label5142>

000000000000282e <.label5142>:
    282e:	eb 00                	jmp    2830 <.label5143>

0000000000002830 <.label5143>:
    2830:	eb 00                	jmp    2832 <.label5144>

0000000000002832 <.label5144>:
    2832:	eb 00                	jmp    2834 <.label5145>

0000000000002834 <.label5145>:
    2834:	eb 00                	jmp    2836 <.label5146>

0000000000002836 <.label5146>:
    2836:	eb 00                	jmp    2838 <.label5147>

0000000000002838 <.label5147>:
    2838:	eb 00                	jmp    283a <.label5148>

000000000000283a <.label5148>:
    283a:	eb 00                	jmp    283c <.label5149>

000000000000283c <.label5149>:
    283c:	eb 00                	jmp    283e <.label5150>

000000000000283e <.label5150>:
    283e:	eb 00                	jmp    2840 <.label5151>

0000000000002840 <.label5151>:
    2840:	eb 00                	jmp    2842 <.label5152>

0000000000002842 <.label5152>:
    2842:	eb 00                	jmp    2844 <.label5153>

0000000000002844 <.label5153>:
    2844:	eb 00                	jmp    2846 <.label5154>

0000000000002846 <.label5154>:
    2846:	eb 00                	jmp    2848 <.label5155>

0000000000002848 <.label5155>:
    2848:	eb 00                	jmp    284a <.label5156>

000000000000284a <.label5156>:
    284a:	eb 00                	jmp    284c <.label5157>

000000000000284c <.label5157>:
    284c:	eb 00                	jmp    284e <.label5158>

000000000000284e <.label5158>:
    284e:	eb 00                	jmp    2850 <.label5159>

0000000000002850 <.label5159>:
    2850:	eb 00                	jmp    2852 <.label5160>

0000000000002852 <.label5160>:
    2852:	eb 00                	jmp    2854 <.label5161>

0000000000002854 <.label5161>:
    2854:	eb 00                	jmp    2856 <.label5162>

0000000000002856 <.label5162>:
    2856:	eb 00                	jmp    2858 <.label5163>

0000000000002858 <.label5163>:
    2858:	eb 00                	jmp    285a <.label5164>

000000000000285a <.label5164>:
    285a:	eb 00                	jmp    285c <.label5165>

000000000000285c <.label5165>:
    285c:	eb 00                	jmp    285e <.label5166>

000000000000285e <.label5166>:
    285e:	eb 00                	jmp    2860 <.label5167>

0000000000002860 <.label5167>:
    2860:	eb 00                	jmp    2862 <.label5168>

0000000000002862 <.label5168>:
    2862:	eb 00                	jmp    2864 <.label5169>

0000000000002864 <.label5169>:
    2864:	eb 00                	jmp    2866 <.label5170>

0000000000002866 <.label5170>:
    2866:	eb 00                	jmp    2868 <.label5171>

0000000000002868 <.label5171>:
    2868:	eb 00                	jmp    286a <.label5172>

000000000000286a <.label5172>:
    286a:	eb 00                	jmp    286c <.label5173>

000000000000286c <.label5173>:
    286c:	eb 00                	jmp    286e <.label5174>

000000000000286e <.label5174>:
    286e:	eb 00                	jmp    2870 <.label5175>

0000000000002870 <.label5175>:
    2870:	eb 00                	jmp    2872 <.label5176>

0000000000002872 <.label5176>:
    2872:	eb 00                	jmp    2874 <.label5177>

0000000000002874 <.label5177>:
    2874:	eb 00                	jmp    2876 <.label5178>

0000000000002876 <.label5178>:
    2876:	eb 00                	jmp    2878 <.label5179>

0000000000002878 <.label5179>:
    2878:	eb 00                	jmp    287a <.label5180>

000000000000287a <.label5180>:
    287a:	eb 00                	jmp    287c <.label5181>

000000000000287c <.label5181>:
    287c:	eb 00                	jmp    287e <.label5182>

000000000000287e <.label5182>:
    287e:	eb 00                	jmp    2880 <.label5183>

0000000000002880 <.label5183>:
    2880:	eb 00                	jmp    2882 <.label5184>

0000000000002882 <.label5184>:
    2882:	eb 00                	jmp    2884 <.label5185>

0000000000002884 <.label5185>:
    2884:	eb 00                	jmp    2886 <.label5186>

0000000000002886 <.label5186>:
    2886:	eb 00                	jmp    2888 <.label5187>

0000000000002888 <.label5187>:
    2888:	eb 00                	jmp    288a <.label5188>

000000000000288a <.label5188>:
    288a:	eb 00                	jmp    288c <.label5189>

000000000000288c <.label5189>:
    288c:	eb 00                	jmp    288e <.label5190>

000000000000288e <.label5190>:
    288e:	eb 00                	jmp    2890 <.label5191>

0000000000002890 <.label5191>:
    2890:	eb 00                	jmp    2892 <.label5192>

0000000000002892 <.label5192>:
    2892:	eb 00                	jmp    2894 <.label5193>

0000000000002894 <.label5193>:
    2894:	eb 00                	jmp    2896 <.label5194>

0000000000002896 <.label5194>:
    2896:	eb 00                	jmp    2898 <.label5195>

0000000000002898 <.label5195>:
    2898:	eb 00                	jmp    289a <.label5196>

000000000000289a <.label5196>:
    289a:	eb 00                	jmp    289c <.label5197>

000000000000289c <.label5197>:
    289c:	eb 00                	jmp    289e <.label5198>

000000000000289e <.label5198>:
    289e:	eb 00                	jmp    28a0 <.label5199>

00000000000028a0 <.label5199>:
    28a0:	eb 00                	jmp    28a2 <.label5200>

00000000000028a2 <.label5200>:
    28a2:	eb 00                	jmp    28a4 <.label5201>

00000000000028a4 <.label5201>:
    28a4:	eb 00                	jmp    28a6 <.label5202>

00000000000028a6 <.label5202>:
    28a6:	eb 00                	jmp    28a8 <.label5203>

00000000000028a8 <.label5203>:
    28a8:	eb 00                	jmp    28aa <.label5204>

00000000000028aa <.label5204>:
    28aa:	eb 00                	jmp    28ac <.label5205>

00000000000028ac <.label5205>:
    28ac:	eb 00                	jmp    28ae <.label5206>

00000000000028ae <.label5206>:
    28ae:	eb 00                	jmp    28b0 <.label5207>

00000000000028b0 <.label5207>:
    28b0:	eb 00                	jmp    28b2 <.label5208>

00000000000028b2 <.label5208>:
    28b2:	eb 00                	jmp    28b4 <.label5209>

00000000000028b4 <.label5209>:
    28b4:	eb 00                	jmp    28b6 <.label5210>

00000000000028b6 <.label5210>:
    28b6:	eb 00                	jmp    28b8 <.label5211>

00000000000028b8 <.label5211>:
    28b8:	eb 00                	jmp    28ba <.label5212>

00000000000028ba <.label5212>:
    28ba:	eb 00                	jmp    28bc <.label5213>

00000000000028bc <.label5213>:
    28bc:	eb 00                	jmp    28be <.label5214>

00000000000028be <.label5214>:
    28be:	eb 00                	jmp    28c0 <.label5215>

00000000000028c0 <.label5215>:
    28c0:	eb 00                	jmp    28c2 <.label5216>

00000000000028c2 <.label5216>:
    28c2:	eb 00                	jmp    28c4 <.label5217>

00000000000028c4 <.label5217>:
    28c4:	eb 00                	jmp    28c6 <.label5218>

00000000000028c6 <.label5218>:
    28c6:	eb 00                	jmp    28c8 <.label5219>

00000000000028c8 <.label5219>:
    28c8:	eb 00                	jmp    28ca <.label5220>

00000000000028ca <.label5220>:
    28ca:	eb 00                	jmp    28cc <.label5221>

00000000000028cc <.label5221>:
    28cc:	eb 00                	jmp    28ce <.label5222>

00000000000028ce <.label5222>:
    28ce:	eb 00                	jmp    28d0 <.label5223>

00000000000028d0 <.label5223>:
    28d0:	eb 00                	jmp    28d2 <.label5224>

00000000000028d2 <.label5224>:
    28d2:	eb 00                	jmp    28d4 <.label5225>

00000000000028d4 <.label5225>:
    28d4:	eb 00                	jmp    28d6 <.label5226>

00000000000028d6 <.label5226>:
    28d6:	eb 00                	jmp    28d8 <.label5227>

00000000000028d8 <.label5227>:
    28d8:	eb 00                	jmp    28da <.label5228>

00000000000028da <.label5228>:
    28da:	eb 00                	jmp    28dc <.label5229>

00000000000028dc <.label5229>:
    28dc:	eb 00                	jmp    28de <.label5230>

00000000000028de <.label5230>:
    28de:	eb 00                	jmp    28e0 <.label5231>

00000000000028e0 <.label5231>:
    28e0:	eb 00                	jmp    28e2 <.label5232>

00000000000028e2 <.label5232>:
    28e2:	eb 00                	jmp    28e4 <.label5233>

00000000000028e4 <.label5233>:
    28e4:	eb 00                	jmp    28e6 <.label5234>

00000000000028e6 <.label5234>:
    28e6:	eb 00                	jmp    28e8 <.label5235>

00000000000028e8 <.label5235>:
    28e8:	eb 00                	jmp    28ea <.label5236>

00000000000028ea <.label5236>:
    28ea:	eb 00                	jmp    28ec <.label5237>

00000000000028ec <.label5237>:
    28ec:	eb 00                	jmp    28ee <.label5238>

00000000000028ee <.label5238>:
    28ee:	eb 00                	jmp    28f0 <.label5239>

00000000000028f0 <.label5239>:
    28f0:	eb 00                	jmp    28f2 <.label5240>

00000000000028f2 <.label5240>:
    28f2:	eb 00                	jmp    28f4 <.label5241>

00000000000028f4 <.label5241>:
    28f4:	eb 00                	jmp    28f6 <.label5242>

00000000000028f6 <.label5242>:
    28f6:	eb 00                	jmp    28f8 <.label5243>

00000000000028f8 <.label5243>:
    28f8:	eb 00                	jmp    28fa <.label5244>

00000000000028fa <.label5244>:
    28fa:	eb 00                	jmp    28fc <.label5245>

00000000000028fc <.label5245>:
    28fc:	eb 00                	jmp    28fe <.label5246>

00000000000028fe <.label5246>:
    28fe:	eb 00                	jmp    2900 <.label5247>

0000000000002900 <.label5247>:
    2900:	eb 00                	jmp    2902 <.label5248>

0000000000002902 <.label5248>:
    2902:	eb 00                	jmp    2904 <.label5249>

0000000000002904 <.label5249>:
    2904:	eb 00                	jmp    2906 <.label5250>

0000000000002906 <.label5250>:
    2906:	eb 00                	jmp    2908 <.label5251>

0000000000002908 <.label5251>:
    2908:	eb 00                	jmp    290a <.label5252>

000000000000290a <.label5252>:
    290a:	eb 00                	jmp    290c <.label5253>

000000000000290c <.label5253>:
    290c:	eb 00                	jmp    290e <.label5254>

000000000000290e <.label5254>:
    290e:	eb 00                	jmp    2910 <.label5255>

0000000000002910 <.label5255>:
    2910:	eb 00                	jmp    2912 <.label5256>

0000000000002912 <.label5256>:
    2912:	eb 00                	jmp    2914 <.label5257>

0000000000002914 <.label5257>:
    2914:	eb 00                	jmp    2916 <.label5258>

0000000000002916 <.label5258>:
    2916:	eb 00                	jmp    2918 <.label5259>

0000000000002918 <.label5259>:
    2918:	eb 00                	jmp    291a <.label5260>

000000000000291a <.label5260>:
    291a:	eb 00                	jmp    291c <.label5261>

000000000000291c <.label5261>:
    291c:	eb 00                	jmp    291e <.label5262>

000000000000291e <.label5262>:
    291e:	eb 00                	jmp    2920 <.label5263>

0000000000002920 <.label5263>:
    2920:	eb 00                	jmp    2922 <.label5264>

0000000000002922 <.label5264>:
    2922:	eb 00                	jmp    2924 <.label5265>

0000000000002924 <.label5265>:
    2924:	eb 00                	jmp    2926 <.label5266>

0000000000002926 <.label5266>:
    2926:	eb 00                	jmp    2928 <.label5267>

0000000000002928 <.label5267>:
    2928:	eb 00                	jmp    292a <.label5268>

000000000000292a <.label5268>:
    292a:	eb 00                	jmp    292c <.label5269>

000000000000292c <.label5269>:
    292c:	eb 00                	jmp    292e <.label5270>

000000000000292e <.label5270>:
    292e:	eb 00                	jmp    2930 <.label5271>

0000000000002930 <.label5271>:
    2930:	eb 00                	jmp    2932 <.label5272>

0000000000002932 <.label5272>:
    2932:	eb 00                	jmp    2934 <.label5273>

0000000000002934 <.label5273>:
    2934:	eb 00                	jmp    2936 <.label5274>

0000000000002936 <.label5274>:
    2936:	eb 00                	jmp    2938 <.label5275>

0000000000002938 <.label5275>:
    2938:	eb 00                	jmp    293a <.label5276>

000000000000293a <.label5276>:
    293a:	eb 00                	jmp    293c <.label5277>

000000000000293c <.label5277>:
    293c:	eb 00                	jmp    293e <.label5278>

000000000000293e <.label5278>:
    293e:	eb 00                	jmp    2940 <.label5279>

0000000000002940 <.label5279>:
    2940:	eb 00                	jmp    2942 <.label5280>

0000000000002942 <.label5280>:
    2942:	eb 00                	jmp    2944 <.label5281>

0000000000002944 <.label5281>:
    2944:	eb 00                	jmp    2946 <.label5282>

0000000000002946 <.label5282>:
    2946:	eb 00                	jmp    2948 <.label5283>

0000000000002948 <.label5283>:
    2948:	eb 00                	jmp    294a <.label5284>

000000000000294a <.label5284>:
    294a:	eb 00                	jmp    294c <.label5285>

000000000000294c <.label5285>:
    294c:	eb 00                	jmp    294e <.label5286>

000000000000294e <.label5286>:
    294e:	eb 00                	jmp    2950 <.label5287>

0000000000002950 <.label5287>:
    2950:	eb 00                	jmp    2952 <.label5288>

0000000000002952 <.label5288>:
    2952:	eb 00                	jmp    2954 <.label5289>

0000000000002954 <.label5289>:
    2954:	eb 00                	jmp    2956 <.label5290>

0000000000002956 <.label5290>:
    2956:	eb 00                	jmp    2958 <.label5291>

0000000000002958 <.label5291>:
    2958:	eb 00                	jmp    295a <.label5292>

000000000000295a <.label5292>:
    295a:	eb 00                	jmp    295c <.label5293>

000000000000295c <.label5293>:
    295c:	eb 00                	jmp    295e <.label5294>

000000000000295e <.label5294>:
    295e:	eb 00                	jmp    2960 <.label5295>

0000000000002960 <.label5295>:
    2960:	eb 00                	jmp    2962 <.label5296>

0000000000002962 <.label5296>:
    2962:	eb 00                	jmp    2964 <.label5297>

0000000000002964 <.label5297>:
    2964:	eb 00                	jmp    2966 <.label5298>

0000000000002966 <.label5298>:
    2966:	eb 00                	jmp    2968 <.label5299>

0000000000002968 <.label5299>:
    2968:	eb 00                	jmp    296a <.label5300>

000000000000296a <.label5300>:
    296a:	eb 00                	jmp    296c <.label5301>

000000000000296c <.label5301>:
    296c:	eb 00                	jmp    296e <.label5302>

000000000000296e <.label5302>:
    296e:	eb 00                	jmp    2970 <.label5303>

0000000000002970 <.label5303>:
    2970:	eb 00                	jmp    2972 <.label5304>

0000000000002972 <.label5304>:
    2972:	eb 00                	jmp    2974 <.label5305>

0000000000002974 <.label5305>:
    2974:	eb 00                	jmp    2976 <.label5306>

0000000000002976 <.label5306>:
    2976:	eb 00                	jmp    2978 <.label5307>

0000000000002978 <.label5307>:
    2978:	eb 00                	jmp    297a <.label5308>

000000000000297a <.label5308>:
    297a:	eb 00                	jmp    297c <.label5309>

000000000000297c <.label5309>:
    297c:	eb 00                	jmp    297e <.label5310>

000000000000297e <.label5310>:
    297e:	eb 00                	jmp    2980 <.label5311>

0000000000002980 <.label5311>:
    2980:	eb 00                	jmp    2982 <.label5312>

0000000000002982 <.label5312>:
    2982:	eb 00                	jmp    2984 <.label5313>

0000000000002984 <.label5313>:
    2984:	eb 00                	jmp    2986 <.label5314>

0000000000002986 <.label5314>:
    2986:	eb 00                	jmp    2988 <.label5315>

0000000000002988 <.label5315>:
    2988:	eb 00                	jmp    298a <.label5316>

000000000000298a <.label5316>:
    298a:	eb 00                	jmp    298c <.label5317>

000000000000298c <.label5317>:
    298c:	eb 00                	jmp    298e <.label5318>

000000000000298e <.label5318>:
    298e:	eb 00                	jmp    2990 <.label5319>

0000000000002990 <.label5319>:
    2990:	eb 00                	jmp    2992 <.label5320>

0000000000002992 <.label5320>:
    2992:	eb 00                	jmp    2994 <.label5321>

0000000000002994 <.label5321>:
    2994:	eb 00                	jmp    2996 <.label5322>

0000000000002996 <.label5322>:
    2996:	eb 00                	jmp    2998 <.label5323>

0000000000002998 <.label5323>:
    2998:	eb 00                	jmp    299a <.label5324>

000000000000299a <.label5324>:
    299a:	eb 00                	jmp    299c <.label5325>

000000000000299c <.label5325>:
    299c:	eb 00                	jmp    299e <.label5326>

000000000000299e <.label5326>:
    299e:	eb 00                	jmp    29a0 <.label5327>

00000000000029a0 <.label5327>:
    29a0:	eb 00                	jmp    29a2 <.label5328>

00000000000029a2 <.label5328>:
    29a2:	eb 00                	jmp    29a4 <.label5329>

00000000000029a4 <.label5329>:
    29a4:	eb 00                	jmp    29a6 <.label5330>

00000000000029a6 <.label5330>:
    29a6:	eb 00                	jmp    29a8 <.label5331>

00000000000029a8 <.label5331>:
    29a8:	eb 00                	jmp    29aa <.label5332>

00000000000029aa <.label5332>:
    29aa:	eb 00                	jmp    29ac <.label5333>

00000000000029ac <.label5333>:
    29ac:	eb 00                	jmp    29ae <.label5334>

00000000000029ae <.label5334>:
    29ae:	eb 00                	jmp    29b0 <.label5335>

00000000000029b0 <.label5335>:
    29b0:	eb 00                	jmp    29b2 <.label5336>

00000000000029b2 <.label5336>:
    29b2:	eb 00                	jmp    29b4 <.label5337>

00000000000029b4 <.label5337>:
    29b4:	eb 00                	jmp    29b6 <.label5338>

00000000000029b6 <.label5338>:
    29b6:	eb 00                	jmp    29b8 <.label5339>

00000000000029b8 <.label5339>:
    29b8:	eb 00                	jmp    29ba <.label5340>

00000000000029ba <.label5340>:
    29ba:	eb 00                	jmp    29bc <.label5341>

00000000000029bc <.label5341>:
    29bc:	eb 00                	jmp    29be <.label5342>

00000000000029be <.label5342>:
    29be:	eb 00                	jmp    29c0 <.label5343>

00000000000029c0 <.label5343>:
    29c0:	eb 00                	jmp    29c2 <.label5344>

00000000000029c2 <.label5344>:
    29c2:	eb 00                	jmp    29c4 <.label5345>

00000000000029c4 <.label5345>:
    29c4:	eb 00                	jmp    29c6 <.label5346>

00000000000029c6 <.label5346>:
    29c6:	eb 00                	jmp    29c8 <.label5347>

00000000000029c8 <.label5347>:
    29c8:	eb 00                	jmp    29ca <.label5348>

00000000000029ca <.label5348>:
    29ca:	eb 00                	jmp    29cc <.label5349>

00000000000029cc <.label5349>:
    29cc:	eb 00                	jmp    29ce <.label5350>

00000000000029ce <.label5350>:
    29ce:	eb 00                	jmp    29d0 <.label5351>

00000000000029d0 <.label5351>:
    29d0:	eb 00                	jmp    29d2 <.label5352>

00000000000029d2 <.label5352>:
    29d2:	eb 00                	jmp    29d4 <.label5353>

00000000000029d4 <.label5353>:
    29d4:	eb 00                	jmp    29d6 <.label5354>

00000000000029d6 <.label5354>:
    29d6:	eb 00                	jmp    29d8 <.label5355>

00000000000029d8 <.label5355>:
    29d8:	eb 00                	jmp    29da <.label5356>

00000000000029da <.label5356>:
    29da:	eb 00                	jmp    29dc <.label5357>

00000000000029dc <.label5357>:
    29dc:	eb 00                	jmp    29de <.label5358>

00000000000029de <.label5358>:
    29de:	eb 00                	jmp    29e0 <.label5359>

00000000000029e0 <.label5359>:
    29e0:	eb 00                	jmp    29e2 <.label5360>

00000000000029e2 <.label5360>:
    29e2:	eb 00                	jmp    29e4 <.label5361>

00000000000029e4 <.label5361>:
    29e4:	eb 00                	jmp    29e6 <.label5362>

00000000000029e6 <.label5362>:
    29e6:	eb 00                	jmp    29e8 <.label5363>

00000000000029e8 <.label5363>:
    29e8:	eb 00                	jmp    29ea <.label5364>

00000000000029ea <.label5364>:
    29ea:	eb 00                	jmp    29ec <.label5365>

00000000000029ec <.label5365>:
    29ec:	eb 00                	jmp    29ee <.label5366>

00000000000029ee <.label5366>:
    29ee:	eb 00                	jmp    29f0 <.label5367>

00000000000029f0 <.label5367>:
    29f0:	eb 00                	jmp    29f2 <.label5368>

00000000000029f2 <.label5368>:
    29f2:	eb 00                	jmp    29f4 <.label5369>

00000000000029f4 <.label5369>:
    29f4:	eb 00                	jmp    29f6 <.label5370>

00000000000029f6 <.label5370>:
    29f6:	eb 00                	jmp    29f8 <.label5371>

00000000000029f8 <.label5371>:
    29f8:	eb 00                	jmp    29fa <.label5372>

00000000000029fa <.label5372>:
    29fa:	eb 00                	jmp    29fc <.label5373>

00000000000029fc <.label5373>:
    29fc:	eb 00                	jmp    29fe <.label5374>

00000000000029fe <.label5374>:
    29fe:	eb 00                	jmp    2a00 <.label5375>

0000000000002a00 <.label5375>:
    2a00:	eb 00                	jmp    2a02 <.label5376>

0000000000002a02 <.label5376>:
    2a02:	eb 00                	jmp    2a04 <.label5377>

0000000000002a04 <.label5377>:
    2a04:	eb 00                	jmp    2a06 <.label5378>

0000000000002a06 <.label5378>:
    2a06:	eb 00                	jmp    2a08 <.label5379>

0000000000002a08 <.label5379>:
    2a08:	eb 00                	jmp    2a0a <.label5380>

0000000000002a0a <.label5380>:
    2a0a:	eb 00                	jmp    2a0c <.label5381>

0000000000002a0c <.label5381>:
    2a0c:	eb 00                	jmp    2a0e <.label5382>

0000000000002a0e <.label5382>:
    2a0e:	eb 00                	jmp    2a10 <.label5383>

0000000000002a10 <.label5383>:
    2a10:	eb 00                	jmp    2a12 <.label5384>

0000000000002a12 <.label5384>:
    2a12:	eb 00                	jmp    2a14 <.label5385>

0000000000002a14 <.label5385>:
    2a14:	eb 00                	jmp    2a16 <.label5386>

0000000000002a16 <.label5386>:
    2a16:	eb 00                	jmp    2a18 <.label5387>

0000000000002a18 <.label5387>:
    2a18:	eb 00                	jmp    2a1a <.label5388>

0000000000002a1a <.label5388>:
    2a1a:	eb 00                	jmp    2a1c <.label5389>

0000000000002a1c <.label5389>:
    2a1c:	eb 00                	jmp    2a1e <.label5390>

0000000000002a1e <.label5390>:
    2a1e:	eb 00                	jmp    2a20 <.label5391>

0000000000002a20 <.label5391>:
    2a20:	eb 00                	jmp    2a22 <.label5392>

0000000000002a22 <.label5392>:
    2a22:	eb 00                	jmp    2a24 <.label5393>

0000000000002a24 <.label5393>:
    2a24:	eb 00                	jmp    2a26 <.label5394>

0000000000002a26 <.label5394>:
    2a26:	eb 00                	jmp    2a28 <.label5395>

0000000000002a28 <.label5395>:
    2a28:	eb 00                	jmp    2a2a <.label5396>

0000000000002a2a <.label5396>:
    2a2a:	eb 00                	jmp    2a2c <.label5397>

0000000000002a2c <.label5397>:
    2a2c:	eb 00                	jmp    2a2e <.label5398>

0000000000002a2e <.label5398>:
    2a2e:	eb 00                	jmp    2a30 <.label5399>

0000000000002a30 <.label5399>:
    2a30:	eb 00                	jmp    2a32 <.label5400>

0000000000002a32 <.label5400>:
    2a32:	eb 00                	jmp    2a34 <.label5401>

0000000000002a34 <.label5401>:
    2a34:	eb 00                	jmp    2a36 <.label5402>

0000000000002a36 <.label5402>:
    2a36:	eb 00                	jmp    2a38 <.label5403>

0000000000002a38 <.label5403>:
    2a38:	eb 00                	jmp    2a3a <.label5404>

0000000000002a3a <.label5404>:
    2a3a:	eb 00                	jmp    2a3c <.label5405>

0000000000002a3c <.label5405>:
    2a3c:	eb 00                	jmp    2a3e <.label5406>

0000000000002a3e <.label5406>:
    2a3e:	eb 00                	jmp    2a40 <.label5407>

0000000000002a40 <.label5407>:
    2a40:	eb 00                	jmp    2a42 <.label5408>

0000000000002a42 <.label5408>:
    2a42:	eb 00                	jmp    2a44 <.label5409>

0000000000002a44 <.label5409>:
    2a44:	eb 00                	jmp    2a46 <.label5410>

0000000000002a46 <.label5410>:
    2a46:	eb 00                	jmp    2a48 <.label5411>

0000000000002a48 <.label5411>:
    2a48:	eb 00                	jmp    2a4a <.label5412>

0000000000002a4a <.label5412>:
    2a4a:	eb 00                	jmp    2a4c <.label5413>

0000000000002a4c <.label5413>:
    2a4c:	eb 00                	jmp    2a4e <.label5414>

0000000000002a4e <.label5414>:
    2a4e:	eb 00                	jmp    2a50 <.label5415>

0000000000002a50 <.label5415>:
    2a50:	eb 00                	jmp    2a52 <.label5416>

0000000000002a52 <.label5416>:
    2a52:	eb 00                	jmp    2a54 <.label5417>

0000000000002a54 <.label5417>:
    2a54:	eb 00                	jmp    2a56 <.label5418>

0000000000002a56 <.label5418>:
    2a56:	eb 00                	jmp    2a58 <.label5419>

0000000000002a58 <.label5419>:
    2a58:	eb 00                	jmp    2a5a <.label5420>

0000000000002a5a <.label5420>:
    2a5a:	eb 00                	jmp    2a5c <.label5421>

0000000000002a5c <.label5421>:
    2a5c:	eb 00                	jmp    2a5e <.label5422>

0000000000002a5e <.label5422>:
    2a5e:	eb 00                	jmp    2a60 <.label5423>

0000000000002a60 <.label5423>:
    2a60:	eb 00                	jmp    2a62 <.label5424>

0000000000002a62 <.label5424>:
    2a62:	eb 00                	jmp    2a64 <.label5425>

0000000000002a64 <.label5425>:
    2a64:	eb 00                	jmp    2a66 <.label5426>

0000000000002a66 <.label5426>:
    2a66:	eb 00                	jmp    2a68 <.label5427>

0000000000002a68 <.label5427>:
    2a68:	eb 00                	jmp    2a6a <.label5428>

0000000000002a6a <.label5428>:
    2a6a:	eb 00                	jmp    2a6c <.label5429>

0000000000002a6c <.label5429>:
    2a6c:	eb 00                	jmp    2a6e <.label5430>

0000000000002a6e <.label5430>:
    2a6e:	eb 00                	jmp    2a70 <.label5431>

0000000000002a70 <.label5431>:
    2a70:	eb 00                	jmp    2a72 <.label5432>

0000000000002a72 <.label5432>:
    2a72:	eb 00                	jmp    2a74 <.label5433>

0000000000002a74 <.label5433>:
    2a74:	eb 00                	jmp    2a76 <.label5434>

0000000000002a76 <.label5434>:
    2a76:	eb 00                	jmp    2a78 <.label5435>

0000000000002a78 <.label5435>:
    2a78:	eb 00                	jmp    2a7a <.label5436>

0000000000002a7a <.label5436>:
    2a7a:	eb 00                	jmp    2a7c <.label5437>

0000000000002a7c <.label5437>:
    2a7c:	eb 00                	jmp    2a7e <.label5438>

0000000000002a7e <.label5438>:
    2a7e:	eb 00                	jmp    2a80 <.label5439>

0000000000002a80 <.label5439>:
    2a80:	eb 00                	jmp    2a82 <.label5440>

0000000000002a82 <.label5440>:
    2a82:	eb 00                	jmp    2a84 <.label5441>

0000000000002a84 <.label5441>:
    2a84:	eb 00                	jmp    2a86 <.label5442>

0000000000002a86 <.label5442>:
    2a86:	eb 00                	jmp    2a88 <.label5443>

0000000000002a88 <.label5443>:
    2a88:	eb 00                	jmp    2a8a <.label5444>

0000000000002a8a <.label5444>:
    2a8a:	eb 00                	jmp    2a8c <.label5445>

0000000000002a8c <.label5445>:
    2a8c:	eb 00                	jmp    2a8e <.label5446>

0000000000002a8e <.label5446>:
    2a8e:	eb 00                	jmp    2a90 <.label5447>

0000000000002a90 <.label5447>:
    2a90:	eb 00                	jmp    2a92 <.label5448>

0000000000002a92 <.label5448>:
    2a92:	eb 00                	jmp    2a94 <.label5449>

0000000000002a94 <.label5449>:
    2a94:	eb 00                	jmp    2a96 <.label5450>

0000000000002a96 <.label5450>:
    2a96:	eb 00                	jmp    2a98 <.label5451>

0000000000002a98 <.label5451>:
    2a98:	eb 00                	jmp    2a9a <.label5452>

0000000000002a9a <.label5452>:
    2a9a:	eb 00                	jmp    2a9c <.label5453>

0000000000002a9c <.label5453>:
    2a9c:	eb 00                	jmp    2a9e <.label5454>

0000000000002a9e <.label5454>:
    2a9e:	eb 00                	jmp    2aa0 <.label5455>

0000000000002aa0 <.label5455>:
    2aa0:	eb 00                	jmp    2aa2 <.label5456>

0000000000002aa2 <.label5456>:
    2aa2:	eb 00                	jmp    2aa4 <.label5457>

0000000000002aa4 <.label5457>:
    2aa4:	eb 00                	jmp    2aa6 <.label5458>

0000000000002aa6 <.label5458>:
    2aa6:	eb 00                	jmp    2aa8 <.label5459>

0000000000002aa8 <.label5459>:
    2aa8:	eb 00                	jmp    2aaa <.label5460>

0000000000002aaa <.label5460>:
    2aaa:	eb 00                	jmp    2aac <.label5461>

0000000000002aac <.label5461>:
    2aac:	eb 00                	jmp    2aae <.label5462>

0000000000002aae <.label5462>:
    2aae:	eb 00                	jmp    2ab0 <.label5463>

0000000000002ab0 <.label5463>:
    2ab0:	eb 00                	jmp    2ab2 <.label5464>

0000000000002ab2 <.label5464>:
    2ab2:	eb 00                	jmp    2ab4 <.label5465>

0000000000002ab4 <.label5465>:
    2ab4:	eb 00                	jmp    2ab6 <.label5466>

0000000000002ab6 <.label5466>:
    2ab6:	eb 00                	jmp    2ab8 <.label5467>

0000000000002ab8 <.label5467>:
    2ab8:	eb 00                	jmp    2aba <.label5468>

0000000000002aba <.label5468>:
    2aba:	eb 00                	jmp    2abc <.label5469>

0000000000002abc <.label5469>:
    2abc:	eb 00                	jmp    2abe <.label5470>

0000000000002abe <.label5470>:
    2abe:	eb 00                	jmp    2ac0 <.label5471>

0000000000002ac0 <.label5471>:
    2ac0:	eb 00                	jmp    2ac2 <.label5472>

0000000000002ac2 <.label5472>:
    2ac2:	eb 00                	jmp    2ac4 <.label5473>

0000000000002ac4 <.label5473>:
    2ac4:	eb 00                	jmp    2ac6 <.label5474>

0000000000002ac6 <.label5474>:
    2ac6:	eb 00                	jmp    2ac8 <.label5475>

0000000000002ac8 <.label5475>:
    2ac8:	eb 00                	jmp    2aca <.label5476>

0000000000002aca <.label5476>:
    2aca:	eb 00                	jmp    2acc <.label5477>

0000000000002acc <.label5477>:
    2acc:	eb 00                	jmp    2ace <.label5478>

0000000000002ace <.label5478>:
    2ace:	eb 00                	jmp    2ad0 <.label5479>

0000000000002ad0 <.label5479>:
    2ad0:	eb 00                	jmp    2ad2 <.label5480>

0000000000002ad2 <.label5480>:
    2ad2:	eb 00                	jmp    2ad4 <.label5481>

0000000000002ad4 <.label5481>:
    2ad4:	eb 00                	jmp    2ad6 <.label5482>

0000000000002ad6 <.label5482>:
    2ad6:	eb 00                	jmp    2ad8 <.label5483>

0000000000002ad8 <.label5483>:
    2ad8:	eb 00                	jmp    2ada <.label5484>

0000000000002ada <.label5484>:
    2ada:	eb 00                	jmp    2adc <.label5485>

0000000000002adc <.label5485>:
    2adc:	eb 00                	jmp    2ade <.label5486>

0000000000002ade <.label5486>:
    2ade:	eb 00                	jmp    2ae0 <.label5487>

0000000000002ae0 <.label5487>:
    2ae0:	eb 00                	jmp    2ae2 <.label5488>

0000000000002ae2 <.label5488>:
    2ae2:	eb 00                	jmp    2ae4 <.label5489>

0000000000002ae4 <.label5489>:
    2ae4:	eb 00                	jmp    2ae6 <.label5490>

0000000000002ae6 <.label5490>:
    2ae6:	eb 00                	jmp    2ae8 <.label5491>

0000000000002ae8 <.label5491>:
    2ae8:	eb 00                	jmp    2aea <.label5492>

0000000000002aea <.label5492>:
    2aea:	eb 00                	jmp    2aec <.label5493>

0000000000002aec <.label5493>:
    2aec:	eb 00                	jmp    2aee <.label5494>

0000000000002aee <.label5494>:
    2aee:	eb 00                	jmp    2af0 <.label5495>

0000000000002af0 <.label5495>:
    2af0:	eb 00                	jmp    2af2 <.label5496>

0000000000002af2 <.label5496>:
    2af2:	eb 00                	jmp    2af4 <.label5497>

0000000000002af4 <.label5497>:
    2af4:	eb 00                	jmp    2af6 <.label5498>

0000000000002af6 <.label5498>:
    2af6:	eb 00                	jmp    2af8 <.label5499>

0000000000002af8 <.label5499>:
    2af8:	eb 00                	jmp    2afa <.label5500>

0000000000002afa <.label5500>:
    2afa:	eb 00                	jmp    2afc <.label5501>

0000000000002afc <.label5501>:
    2afc:	eb 00                	jmp    2afe <.label5502>

0000000000002afe <.label5502>:
    2afe:	eb 00                	jmp    2b00 <.label5503>

0000000000002b00 <.label5503>:
    2b00:	eb 00                	jmp    2b02 <.label5504>

0000000000002b02 <.label5504>:
    2b02:	eb 00                	jmp    2b04 <.label5505>

0000000000002b04 <.label5505>:
    2b04:	eb 00                	jmp    2b06 <.label5506>

0000000000002b06 <.label5506>:
    2b06:	eb 00                	jmp    2b08 <.label5507>

0000000000002b08 <.label5507>:
    2b08:	eb 00                	jmp    2b0a <.label5508>

0000000000002b0a <.label5508>:
    2b0a:	eb 00                	jmp    2b0c <.label5509>

0000000000002b0c <.label5509>:
    2b0c:	eb 00                	jmp    2b0e <.label5510>

0000000000002b0e <.label5510>:
    2b0e:	eb 00                	jmp    2b10 <.label5511>

0000000000002b10 <.label5511>:
    2b10:	eb 00                	jmp    2b12 <.label5512>

0000000000002b12 <.label5512>:
    2b12:	eb 00                	jmp    2b14 <.label5513>

0000000000002b14 <.label5513>:
    2b14:	eb 00                	jmp    2b16 <.label5514>

0000000000002b16 <.label5514>:
    2b16:	eb 00                	jmp    2b18 <.label5515>

0000000000002b18 <.label5515>:
    2b18:	eb 00                	jmp    2b1a <.label5516>

0000000000002b1a <.label5516>:
    2b1a:	eb 00                	jmp    2b1c <.label5517>

0000000000002b1c <.label5517>:
    2b1c:	eb 00                	jmp    2b1e <.label5518>

0000000000002b1e <.label5518>:
    2b1e:	eb 00                	jmp    2b20 <.label5519>

0000000000002b20 <.label5519>:
    2b20:	eb 00                	jmp    2b22 <.label5520>

0000000000002b22 <.label5520>:
    2b22:	eb 00                	jmp    2b24 <.label5521>

0000000000002b24 <.label5521>:
    2b24:	eb 00                	jmp    2b26 <.label5522>

0000000000002b26 <.label5522>:
    2b26:	eb 00                	jmp    2b28 <.label5523>

0000000000002b28 <.label5523>:
    2b28:	eb 00                	jmp    2b2a <.label5524>

0000000000002b2a <.label5524>:
    2b2a:	eb 00                	jmp    2b2c <.label5525>

0000000000002b2c <.label5525>:
    2b2c:	eb 00                	jmp    2b2e <.label5526>

0000000000002b2e <.label5526>:
    2b2e:	eb 00                	jmp    2b30 <.label5527>

0000000000002b30 <.label5527>:
    2b30:	eb 00                	jmp    2b32 <.label5528>

0000000000002b32 <.label5528>:
    2b32:	eb 00                	jmp    2b34 <.label5529>

0000000000002b34 <.label5529>:
    2b34:	eb 00                	jmp    2b36 <.label5530>

0000000000002b36 <.label5530>:
    2b36:	eb 00                	jmp    2b38 <.label5531>

0000000000002b38 <.label5531>:
    2b38:	eb 00                	jmp    2b3a <.label5532>

0000000000002b3a <.label5532>:
    2b3a:	eb 00                	jmp    2b3c <.label5533>

0000000000002b3c <.label5533>:
    2b3c:	eb 00                	jmp    2b3e <.label5534>

0000000000002b3e <.label5534>:
    2b3e:	eb 00                	jmp    2b40 <.label5535>

0000000000002b40 <.label5535>:
    2b40:	eb 00                	jmp    2b42 <.label5536>

0000000000002b42 <.label5536>:
    2b42:	eb 00                	jmp    2b44 <.label5537>

0000000000002b44 <.label5537>:
    2b44:	eb 00                	jmp    2b46 <.label5538>

0000000000002b46 <.label5538>:
    2b46:	eb 00                	jmp    2b48 <.label5539>

0000000000002b48 <.label5539>:
    2b48:	eb 00                	jmp    2b4a <.label5540>

0000000000002b4a <.label5540>:
    2b4a:	eb 00                	jmp    2b4c <.label5541>

0000000000002b4c <.label5541>:
    2b4c:	eb 00                	jmp    2b4e <.label5542>

0000000000002b4e <.label5542>:
    2b4e:	eb 00                	jmp    2b50 <.label5543>

0000000000002b50 <.label5543>:
    2b50:	eb 00                	jmp    2b52 <.label5544>

0000000000002b52 <.label5544>:
    2b52:	eb 00                	jmp    2b54 <.label5545>

0000000000002b54 <.label5545>:
    2b54:	eb 00                	jmp    2b56 <.label5546>

0000000000002b56 <.label5546>:
    2b56:	eb 00                	jmp    2b58 <.label5547>

0000000000002b58 <.label5547>:
    2b58:	eb 00                	jmp    2b5a <.label5548>

0000000000002b5a <.label5548>:
    2b5a:	eb 00                	jmp    2b5c <.label5549>

0000000000002b5c <.label5549>:
    2b5c:	eb 00                	jmp    2b5e <.label5550>

0000000000002b5e <.label5550>:
    2b5e:	eb 00                	jmp    2b60 <.label5551>

0000000000002b60 <.label5551>:
    2b60:	eb 00                	jmp    2b62 <.label5552>

0000000000002b62 <.label5552>:
    2b62:	eb 00                	jmp    2b64 <.label5553>

0000000000002b64 <.label5553>:
    2b64:	eb 00                	jmp    2b66 <.label5554>

0000000000002b66 <.label5554>:
    2b66:	eb 00                	jmp    2b68 <.label5555>

0000000000002b68 <.label5555>:
    2b68:	eb 00                	jmp    2b6a <.label5556>

0000000000002b6a <.label5556>:
    2b6a:	eb 00                	jmp    2b6c <.label5557>

0000000000002b6c <.label5557>:
    2b6c:	eb 00                	jmp    2b6e <.label5558>

0000000000002b6e <.label5558>:
    2b6e:	eb 00                	jmp    2b70 <.label5559>

0000000000002b70 <.label5559>:
    2b70:	eb 00                	jmp    2b72 <.label5560>

0000000000002b72 <.label5560>:
    2b72:	eb 00                	jmp    2b74 <.label5561>

0000000000002b74 <.label5561>:
    2b74:	eb 00                	jmp    2b76 <.label5562>

0000000000002b76 <.label5562>:
    2b76:	eb 00                	jmp    2b78 <.label5563>

0000000000002b78 <.label5563>:
    2b78:	eb 00                	jmp    2b7a <.label5564>

0000000000002b7a <.label5564>:
    2b7a:	eb 00                	jmp    2b7c <.label5565>

0000000000002b7c <.label5565>:
    2b7c:	eb 00                	jmp    2b7e <.label5566>

0000000000002b7e <.label5566>:
    2b7e:	eb 00                	jmp    2b80 <.label5567>

0000000000002b80 <.label5567>:
    2b80:	eb 00                	jmp    2b82 <.label5568>

0000000000002b82 <.label5568>:
    2b82:	eb 00                	jmp    2b84 <.label5569>

0000000000002b84 <.label5569>:
    2b84:	eb 00                	jmp    2b86 <.label5570>

0000000000002b86 <.label5570>:
    2b86:	eb 00                	jmp    2b88 <.label5571>

0000000000002b88 <.label5571>:
    2b88:	eb 00                	jmp    2b8a <.label5572>

0000000000002b8a <.label5572>:
    2b8a:	eb 00                	jmp    2b8c <.label5573>

0000000000002b8c <.label5573>:
    2b8c:	eb 00                	jmp    2b8e <.label5574>

0000000000002b8e <.label5574>:
    2b8e:	eb 00                	jmp    2b90 <.label5575>

0000000000002b90 <.label5575>:
    2b90:	eb 00                	jmp    2b92 <.label5576>

0000000000002b92 <.label5576>:
    2b92:	eb 00                	jmp    2b94 <.label5577>

0000000000002b94 <.label5577>:
    2b94:	eb 00                	jmp    2b96 <.label5578>

0000000000002b96 <.label5578>:
    2b96:	eb 00                	jmp    2b98 <.label5579>

0000000000002b98 <.label5579>:
    2b98:	eb 00                	jmp    2b9a <.label5580>

0000000000002b9a <.label5580>:
    2b9a:	eb 00                	jmp    2b9c <.label5581>

0000000000002b9c <.label5581>:
    2b9c:	eb 00                	jmp    2b9e <.label5582>

0000000000002b9e <.label5582>:
    2b9e:	eb 00                	jmp    2ba0 <.label5583>

0000000000002ba0 <.label5583>:
    2ba0:	eb 00                	jmp    2ba2 <.label5584>

0000000000002ba2 <.label5584>:
    2ba2:	eb 00                	jmp    2ba4 <.label5585>

0000000000002ba4 <.label5585>:
    2ba4:	eb 00                	jmp    2ba6 <.label5586>

0000000000002ba6 <.label5586>:
    2ba6:	eb 00                	jmp    2ba8 <.label5587>

0000000000002ba8 <.label5587>:
    2ba8:	eb 00                	jmp    2baa <.label5588>

0000000000002baa <.label5588>:
    2baa:	eb 00                	jmp    2bac <.label5589>

0000000000002bac <.label5589>:
    2bac:	eb 00                	jmp    2bae <.label5590>

0000000000002bae <.label5590>:
    2bae:	eb 00                	jmp    2bb0 <.label5591>

0000000000002bb0 <.label5591>:
    2bb0:	eb 00                	jmp    2bb2 <.label5592>

0000000000002bb2 <.label5592>:
    2bb2:	eb 00                	jmp    2bb4 <.label5593>

0000000000002bb4 <.label5593>:
    2bb4:	eb 00                	jmp    2bb6 <.label5594>

0000000000002bb6 <.label5594>:
    2bb6:	eb 00                	jmp    2bb8 <.label5595>

0000000000002bb8 <.label5595>:
    2bb8:	eb 00                	jmp    2bba <.label5596>

0000000000002bba <.label5596>:
    2bba:	eb 00                	jmp    2bbc <.label5597>

0000000000002bbc <.label5597>:
    2bbc:	eb 00                	jmp    2bbe <.label5598>

0000000000002bbe <.label5598>:
    2bbe:	eb 00                	jmp    2bc0 <.label5599>

0000000000002bc0 <.label5599>:
    2bc0:	eb 00                	jmp    2bc2 <.label5600>

0000000000002bc2 <.label5600>:
    2bc2:	eb 00                	jmp    2bc4 <.label5601>

0000000000002bc4 <.label5601>:
    2bc4:	eb 00                	jmp    2bc6 <.label5602>

0000000000002bc6 <.label5602>:
    2bc6:	eb 00                	jmp    2bc8 <.label5603>

0000000000002bc8 <.label5603>:
    2bc8:	eb 00                	jmp    2bca <.label5604>

0000000000002bca <.label5604>:
    2bca:	eb 00                	jmp    2bcc <.label5605>

0000000000002bcc <.label5605>:
    2bcc:	eb 00                	jmp    2bce <.label5606>

0000000000002bce <.label5606>:
    2bce:	eb 00                	jmp    2bd0 <.label5607>

0000000000002bd0 <.label5607>:
    2bd0:	eb 00                	jmp    2bd2 <.label5608>

0000000000002bd2 <.label5608>:
    2bd2:	eb 00                	jmp    2bd4 <.label5609>

0000000000002bd4 <.label5609>:
    2bd4:	eb 00                	jmp    2bd6 <.label5610>

0000000000002bd6 <.label5610>:
    2bd6:	eb 00                	jmp    2bd8 <.label5611>

0000000000002bd8 <.label5611>:
    2bd8:	eb 00                	jmp    2bda <.label5612>

0000000000002bda <.label5612>:
    2bda:	eb 00                	jmp    2bdc <.label5613>

0000000000002bdc <.label5613>:
    2bdc:	eb 00                	jmp    2bde <.label5614>

0000000000002bde <.label5614>:
    2bde:	eb 00                	jmp    2be0 <.label5615>

0000000000002be0 <.label5615>:
    2be0:	eb 00                	jmp    2be2 <.label5616>

0000000000002be2 <.label5616>:
    2be2:	eb 00                	jmp    2be4 <.label5617>

0000000000002be4 <.label5617>:
    2be4:	eb 00                	jmp    2be6 <.label5618>

0000000000002be6 <.label5618>:
    2be6:	eb 00                	jmp    2be8 <.label5619>

0000000000002be8 <.label5619>:
    2be8:	eb 00                	jmp    2bea <.label5620>

0000000000002bea <.label5620>:
    2bea:	eb 00                	jmp    2bec <.label5621>

0000000000002bec <.label5621>:
    2bec:	eb 00                	jmp    2bee <.label5622>

0000000000002bee <.label5622>:
    2bee:	eb 00                	jmp    2bf0 <.label5623>

0000000000002bf0 <.label5623>:
    2bf0:	eb 00                	jmp    2bf2 <.label5624>

0000000000002bf2 <.label5624>:
    2bf2:	eb 00                	jmp    2bf4 <.label5625>

0000000000002bf4 <.label5625>:
    2bf4:	eb 00                	jmp    2bf6 <.label5626>

0000000000002bf6 <.label5626>:
    2bf6:	eb 00                	jmp    2bf8 <.label5627>

0000000000002bf8 <.label5627>:
    2bf8:	eb 00                	jmp    2bfa <.label5628>

0000000000002bfa <.label5628>:
    2bfa:	eb 00                	jmp    2bfc <.label5629>

0000000000002bfc <.label5629>:
    2bfc:	eb 00                	jmp    2bfe <.label5630>

0000000000002bfe <.label5630>:
    2bfe:	eb 00                	jmp    2c00 <.label5631>

0000000000002c00 <.label5631>:
    2c00:	eb 00                	jmp    2c02 <.label5632>

0000000000002c02 <.label5632>:
    2c02:	eb 00                	jmp    2c04 <.label5633>

0000000000002c04 <.label5633>:
    2c04:	eb 00                	jmp    2c06 <.label5634>

0000000000002c06 <.label5634>:
    2c06:	eb 00                	jmp    2c08 <.label5635>

0000000000002c08 <.label5635>:
    2c08:	eb 00                	jmp    2c0a <.label5636>

0000000000002c0a <.label5636>:
    2c0a:	eb 00                	jmp    2c0c <.label5637>

0000000000002c0c <.label5637>:
    2c0c:	eb 00                	jmp    2c0e <.label5638>

0000000000002c0e <.label5638>:
    2c0e:	eb 00                	jmp    2c10 <.label5639>

0000000000002c10 <.label5639>:
    2c10:	eb 00                	jmp    2c12 <.label5640>

0000000000002c12 <.label5640>:
    2c12:	eb 00                	jmp    2c14 <.label5641>

0000000000002c14 <.label5641>:
    2c14:	eb 00                	jmp    2c16 <.label5642>

0000000000002c16 <.label5642>:
    2c16:	eb 00                	jmp    2c18 <.label5643>

0000000000002c18 <.label5643>:
    2c18:	eb 00                	jmp    2c1a <.label5644>

0000000000002c1a <.label5644>:
    2c1a:	eb 00                	jmp    2c1c <.label5645>

0000000000002c1c <.label5645>:
    2c1c:	eb 00                	jmp    2c1e <.label5646>

0000000000002c1e <.label5646>:
    2c1e:	eb 00                	jmp    2c20 <.label5647>

0000000000002c20 <.label5647>:
    2c20:	eb 00                	jmp    2c22 <.label5648>

0000000000002c22 <.label5648>:
    2c22:	eb 00                	jmp    2c24 <.label5649>

0000000000002c24 <.label5649>:
    2c24:	eb 00                	jmp    2c26 <.label5650>

0000000000002c26 <.label5650>:
    2c26:	eb 00                	jmp    2c28 <.label5651>

0000000000002c28 <.label5651>:
    2c28:	eb 00                	jmp    2c2a <.label5652>

0000000000002c2a <.label5652>:
    2c2a:	eb 00                	jmp    2c2c <.label5653>

0000000000002c2c <.label5653>:
    2c2c:	eb 00                	jmp    2c2e <.label5654>

0000000000002c2e <.label5654>:
    2c2e:	eb 00                	jmp    2c30 <.label5655>

0000000000002c30 <.label5655>:
    2c30:	eb 00                	jmp    2c32 <.label5656>

0000000000002c32 <.label5656>:
    2c32:	eb 00                	jmp    2c34 <.label5657>

0000000000002c34 <.label5657>:
    2c34:	eb 00                	jmp    2c36 <.label5658>

0000000000002c36 <.label5658>:
    2c36:	eb 00                	jmp    2c38 <.label5659>

0000000000002c38 <.label5659>:
    2c38:	eb 00                	jmp    2c3a <.label5660>

0000000000002c3a <.label5660>:
    2c3a:	eb 00                	jmp    2c3c <.label5661>

0000000000002c3c <.label5661>:
    2c3c:	eb 00                	jmp    2c3e <.label5662>

0000000000002c3e <.label5662>:
    2c3e:	eb 00                	jmp    2c40 <.label5663>

0000000000002c40 <.label5663>:
    2c40:	eb 00                	jmp    2c42 <.label5664>

0000000000002c42 <.label5664>:
    2c42:	eb 00                	jmp    2c44 <.label5665>

0000000000002c44 <.label5665>:
    2c44:	eb 00                	jmp    2c46 <.label5666>

0000000000002c46 <.label5666>:
    2c46:	eb 00                	jmp    2c48 <.label5667>

0000000000002c48 <.label5667>:
    2c48:	eb 00                	jmp    2c4a <.label5668>

0000000000002c4a <.label5668>:
    2c4a:	eb 00                	jmp    2c4c <.label5669>

0000000000002c4c <.label5669>:
    2c4c:	eb 00                	jmp    2c4e <.label5670>

0000000000002c4e <.label5670>:
    2c4e:	eb 00                	jmp    2c50 <.label5671>

0000000000002c50 <.label5671>:
    2c50:	eb 00                	jmp    2c52 <.label5672>

0000000000002c52 <.label5672>:
    2c52:	eb 00                	jmp    2c54 <.label5673>

0000000000002c54 <.label5673>:
    2c54:	eb 00                	jmp    2c56 <.label5674>

0000000000002c56 <.label5674>:
    2c56:	eb 00                	jmp    2c58 <.label5675>

0000000000002c58 <.label5675>:
    2c58:	eb 00                	jmp    2c5a <.label5676>

0000000000002c5a <.label5676>:
    2c5a:	eb 00                	jmp    2c5c <.label5677>

0000000000002c5c <.label5677>:
    2c5c:	eb 00                	jmp    2c5e <.label5678>

0000000000002c5e <.label5678>:
    2c5e:	eb 00                	jmp    2c60 <.label5679>

0000000000002c60 <.label5679>:
    2c60:	eb 00                	jmp    2c62 <.label5680>

0000000000002c62 <.label5680>:
    2c62:	eb 00                	jmp    2c64 <.label5681>

0000000000002c64 <.label5681>:
    2c64:	eb 00                	jmp    2c66 <.label5682>

0000000000002c66 <.label5682>:
    2c66:	eb 00                	jmp    2c68 <.label5683>

0000000000002c68 <.label5683>:
    2c68:	eb 00                	jmp    2c6a <.label5684>

0000000000002c6a <.label5684>:
    2c6a:	eb 00                	jmp    2c6c <.label5685>

0000000000002c6c <.label5685>:
    2c6c:	eb 00                	jmp    2c6e <.label5686>

0000000000002c6e <.label5686>:
    2c6e:	eb 00                	jmp    2c70 <.label5687>

0000000000002c70 <.label5687>:
    2c70:	eb 00                	jmp    2c72 <.label5688>

0000000000002c72 <.label5688>:
    2c72:	eb 00                	jmp    2c74 <.label5689>

0000000000002c74 <.label5689>:
    2c74:	eb 00                	jmp    2c76 <.label5690>

0000000000002c76 <.label5690>:
    2c76:	eb 00                	jmp    2c78 <.label5691>

0000000000002c78 <.label5691>:
    2c78:	eb 00                	jmp    2c7a <.label5692>

0000000000002c7a <.label5692>:
    2c7a:	eb 00                	jmp    2c7c <.label5693>

0000000000002c7c <.label5693>:
    2c7c:	eb 00                	jmp    2c7e <.label5694>

0000000000002c7e <.label5694>:
    2c7e:	eb 00                	jmp    2c80 <.label5695>

0000000000002c80 <.label5695>:
    2c80:	eb 00                	jmp    2c82 <.label5696>

0000000000002c82 <.label5696>:
    2c82:	eb 00                	jmp    2c84 <.label5697>

0000000000002c84 <.label5697>:
    2c84:	eb 00                	jmp    2c86 <.label5698>

0000000000002c86 <.label5698>:
    2c86:	eb 00                	jmp    2c88 <.label5699>

0000000000002c88 <.label5699>:
    2c88:	eb 00                	jmp    2c8a <.label5700>

0000000000002c8a <.label5700>:
    2c8a:	eb 00                	jmp    2c8c <.label5701>

0000000000002c8c <.label5701>:
    2c8c:	eb 00                	jmp    2c8e <.label5702>

0000000000002c8e <.label5702>:
    2c8e:	eb 00                	jmp    2c90 <.label5703>

0000000000002c90 <.label5703>:
    2c90:	eb 00                	jmp    2c92 <.label5704>

0000000000002c92 <.label5704>:
    2c92:	eb 00                	jmp    2c94 <.label5705>

0000000000002c94 <.label5705>:
    2c94:	eb 00                	jmp    2c96 <.label5706>

0000000000002c96 <.label5706>:
    2c96:	eb 00                	jmp    2c98 <.label5707>

0000000000002c98 <.label5707>:
    2c98:	eb 00                	jmp    2c9a <.label5708>

0000000000002c9a <.label5708>:
    2c9a:	eb 00                	jmp    2c9c <.label5709>

0000000000002c9c <.label5709>:
    2c9c:	eb 00                	jmp    2c9e <.label5710>

0000000000002c9e <.label5710>:
    2c9e:	eb 00                	jmp    2ca0 <.label5711>

0000000000002ca0 <.label5711>:
    2ca0:	eb 00                	jmp    2ca2 <.label5712>

0000000000002ca2 <.label5712>:
    2ca2:	eb 00                	jmp    2ca4 <.label5713>

0000000000002ca4 <.label5713>:
    2ca4:	eb 00                	jmp    2ca6 <.label5714>

0000000000002ca6 <.label5714>:
    2ca6:	eb 00                	jmp    2ca8 <.label5715>

0000000000002ca8 <.label5715>:
    2ca8:	eb 00                	jmp    2caa <.label5716>

0000000000002caa <.label5716>:
    2caa:	eb 00                	jmp    2cac <.label5717>

0000000000002cac <.label5717>:
    2cac:	eb 00                	jmp    2cae <.label5718>

0000000000002cae <.label5718>:
    2cae:	eb 00                	jmp    2cb0 <.label5719>

0000000000002cb0 <.label5719>:
    2cb0:	eb 00                	jmp    2cb2 <.label5720>

0000000000002cb2 <.label5720>:
    2cb2:	eb 00                	jmp    2cb4 <.label5721>

0000000000002cb4 <.label5721>:
    2cb4:	eb 00                	jmp    2cb6 <.label5722>

0000000000002cb6 <.label5722>:
    2cb6:	eb 00                	jmp    2cb8 <.label5723>

0000000000002cb8 <.label5723>:
    2cb8:	eb 00                	jmp    2cba <.label5724>

0000000000002cba <.label5724>:
    2cba:	eb 00                	jmp    2cbc <.label5725>

0000000000002cbc <.label5725>:
    2cbc:	eb 00                	jmp    2cbe <.label5726>

0000000000002cbe <.label5726>:
    2cbe:	eb 00                	jmp    2cc0 <.label5727>

0000000000002cc0 <.label5727>:
    2cc0:	eb 00                	jmp    2cc2 <.label5728>

0000000000002cc2 <.label5728>:
    2cc2:	eb 00                	jmp    2cc4 <.label5729>

0000000000002cc4 <.label5729>:
    2cc4:	eb 00                	jmp    2cc6 <.label5730>

0000000000002cc6 <.label5730>:
    2cc6:	eb 00                	jmp    2cc8 <.label5731>

0000000000002cc8 <.label5731>:
    2cc8:	eb 00                	jmp    2cca <.label5732>

0000000000002cca <.label5732>:
    2cca:	eb 00                	jmp    2ccc <.label5733>

0000000000002ccc <.label5733>:
    2ccc:	eb 00                	jmp    2cce <.label5734>

0000000000002cce <.label5734>:
    2cce:	eb 00                	jmp    2cd0 <.label5735>

0000000000002cd0 <.label5735>:
    2cd0:	eb 00                	jmp    2cd2 <.label5736>

0000000000002cd2 <.label5736>:
    2cd2:	eb 00                	jmp    2cd4 <.label5737>

0000000000002cd4 <.label5737>:
    2cd4:	eb 00                	jmp    2cd6 <.label5738>

0000000000002cd6 <.label5738>:
    2cd6:	eb 00                	jmp    2cd8 <.label5739>

0000000000002cd8 <.label5739>:
    2cd8:	eb 00                	jmp    2cda <.label5740>

0000000000002cda <.label5740>:
    2cda:	eb 00                	jmp    2cdc <.label5741>

0000000000002cdc <.label5741>:
    2cdc:	eb 00                	jmp    2cde <.label5742>

0000000000002cde <.label5742>:
    2cde:	eb 00                	jmp    2ce0 <.label5743>

0000000000002ce0 <.label5743>:
    2ce0:	eb 00                	jmp    2ce2 <.label5744>

0000000000002ce2 <.label5744>:
    2ce2:	eb 00                	jmp    2ce4 <.label5745>

0000000000002ce4 <.label5745>:
    2ce4:	eb 00                	jmp    2ce6 <.label5746>

0000000000002ce6 <.label5746>:
    2ce6:	eb 00                	jmp    2ce8 <.label5747>

0000000000002ce8 <.label5747>:
    2ce8:	eb 00                	jmp    2cea <.label5748>

0000000000002cea <.label5748>:
    2cea:	eb 00                	jmp    2cec <.label5749>

0000000000002cec <.label5749>:
    2cec:	eb 00                	jmp    2cee <.label5750>

0000000000002cee <.label5750>:
    2cee:	eb 00                	jmp    2cf0 <.label5751>

0000000000002cf0 <.label5751>:
    2cf0:	eb 00                	jmp    2cf2 <.label5752>

0000000000002cf2 <.label5752>:
    2cf2:	eb 00                	jmp    2cf4 <.label5753>

0000000000002cf4 <.label5753>:
    2cf4:	eb 00                	jmp    2cf6 <.label5754>

0000000000002cf6 <.label5754>:
    2cf6:	eb 00                	jmp    2cf8 <.label5755>

0000000000002cf8 <.label5755>:
    2cf8:	eb 00                	jmp    2cfa <.label5756>

0000000000002cfa <.label5756>:
    2cfa:	eb 00                	jmp    2cfc <.label5757>

0000000000002cfc <.label5757>:
    2cfc:	eb 00                	jmp    2cfe <.label5758>

0000000000002cfe <.label5758>:
    2cfe:	eb 00                	jmp    2d00 <.label5759>

0000000000002d00 <.label5759>:
    2d00:	eb 00                	jmp    2d02 <.label5760>

0000000000002d02 <.label5760>:
    2d02:	eb 00                	jmp    2d04 <.label5761>

0000000000002d04 <.label5761>:
    2d04:	eb 00                	jmp    2d06 <.label5762>

0000000000002d06 <.label5762>:
    2d06:	eb 00                	jmp    2d08 <.label5763>

0000000000002d08 <.label5763>:
    2d08:	eb 00                	jmp    2d0a <.label5764>

0000000000002d0a <.label5764>:
    2d0a:	eb 00                	jmp    2d0c <.label5765>

0000000000002d0c <.label5765>:
    2d0c:	eb 00                	jmp    2d0e <.label5766>

0000000000002d0e <.label5766>:
    2d0e:	eb 00                	jmp    2d10 <.label5767>

0000000000002d10 <.label5767>:
    2d10:	eb 00                	jmp    2d12 <.label5768>

0000000000002d12 <.label5768>:
    2d12:	eb 00                	jmp    2d14 <.label5769>

0000000000002d14 <.label5769>:
    2d14:	eb 00                	jmp    2d16 <.label5770>

0000000000002d16 <.label5770>:
    2d16:	eb 00                	jmp    2d18 <.label5771>

0000000000002d18 <.label5771>:
    2d18:	eb 00                	jmp    2d1a <.label5772>

0000000000002d1a <.label5772>:
    2d1a:	eb 00                	jmp    2d1c <.label5773>

0000000000002d1c <.label5773>:
    2d1c:	eb 00                	jmp    2d1e <.label5774>

0000000000002d1e <.label5774>:
    2d1e:	eb 00                	jmp    2d20 <.label5775>

0000000000002d20 <.label5775>:
    2d20:	eb 00                	jmp    2d22 <.label5776>

0000000000002d22 <.label5776>:
    2d22:	eb 00                	jmp    2d24 <.label5777>

0000000000002d24 <.label5777>:
    2d24:	eb 00                	jmp    2d26 <.label5778>

0000000000002d26 <.label5778>:
    2d26:	eb 00                	jmp    2d28 <.label5779>

0000000000002d28 <.label5779>:
    2d28:	eb 00                	jmp    2d2a <.label5780>

0000000000002d2a <.label5780>:
    2d2a:	eb 00                	jmp    2d2c <.label5781>

0000000000002d2c <.label5781>:
    2d2c:	eb 00                	jmp    2d2e <.label5782>

0000000000002d2e <.label5782>:
    2d2e:	eb 00                	jmp    2d30 <.label5783>

0000000000002d30 <.label5783>:
    2d30:	eb 00                	jmp    2d32 <.label5784>

0000000000002d32 <.label5784>:
    2d32:	eb 00                	jmp    2d34 <.label5785>

0000000000002d34 <.label5785>:
    2d34:	eb 00                	jmp    2d36 <.label5786>

0000000000002d36 <.label5786>:
    2d36:	eb 00                	jmp    2d38 <.label5787>

0000000000002d38 <.label5787>:
    2d38:	eb 00                	jmp    2d3a <.label5788>

0000000000002d3a <.label5788>:
    2d3a:	eb 00                	jmp    2d3c <.label5789>

0000000000002d3c <.label5789>:
    2d3c:	eb 00                	jmp    2d3e <.label5790>

0000000000002d3e <.label5790>:
    2d3e:	eb 00                	jmp    2d40 <.label5791>

0000000000002d40 <.label5791>:
    2d40:	eb 00                	jmp    2d42 <.label5792>

0000000000002d42 <.label5792>:
    2d42:	eb 00                	jmp    2d44 <.label5793>

0000000000002d44 <.label5793>:
    2d44:	eb 00                	jmp    2d46 <.label5794>

0000000000002d46 <.label5794>:
    2d46:	eb 00                	jmp    2d48 <.label5795>

0000000000002d48 <.label5795>:
    2d48:	eb 00                	jmp    2d4a <.label5796>

0000000000002d4a <.label5796>:
    2d4a:	eb 00                	jmp    2d4c <.label5797>

0000000000002d4c <.label5797>:
    2d4c:	eb 00                	jmp    2d4e <.label5798>

0000000000002d4e <.label5798>:
    2d4e:	eb 00                	jmp    2d50 <.label5799>

0000000000002d50 <.label5799>:
    2d50:	eb 00                	jmp    2d52 <.label5800>

0000000000002d52 <.label5800>:
    2d52:	eb 00                	jmp    2d54 <.label5801>

0000000000002d54 <.label5801>:
    2d54:	eb 00                	jmp    2d56 <.label5802>

0000000000002d56 <.label5802>:
    2d56:	eb 00                	jmp    2d58 <.label5803>

0000000000002d58 <.label5803>:
    2d58:	eb 00                	jmp    2d5a <.label5804>

0000000000002d5a <.label5804>:
    2d5a:	eb 00                	jmp    2d5c <.label5805>

0000000000002d5c <.label5805>:
    2d5c:	eb 00                	jmp    2d5e <.label5806>

0000000000002d5e <.label5806>:
    2d5e:	eb 00                	jmp    2d60 <.label5807>

0000000000002d60 <.label5807>:
    2d60:	eb 00                	jmp    2d62 <.label5808>

0000000000002d62 <.label5808>:
    2d62:	eb 00                	jmp    2d64 <.label5809>

0000000000002d64 <.label5809>:
    2d64:	eb 00                	jmp    2d66 <.label5810>

0000000000002d66 <.label5810>:
    2d66:	eb 00                	jmp    2d68 <.label5811>

0000000000002d68 <.label5811>:
    2d68:	eb 00                	jmp    2d6a <.label5812>

0000000000002d6a <.label5812>:
    2d6a:	eb 00                	jmp    2d6c <.label5813>

0000000000002d6c <.label5813>:
    2d6c:	eb 00                	jmp    2d6e <.label5814>

0000000000002d6e <.label5814>:
    2d6e:	eb 00                	jmp    2d70 <.label5815>

0000000000002d70 <.label5815>:
    2d70:	eb 00                	jmp    2d72 <.label5816>

0000000000002d72 <.label5816>:
    2d72:	eb 00                	jmp    2d74 <.label5817>

0000000000002d74 <.label5817>:
    2d74:	eb 00                	jmp    2d76 <.label5818>

0000000000002d76 <.label5818>:
    2d76:	eb 00                	jmp    2d78 <.label5819>

0000000000002d78 <.label5819>:
    2d78:	eb 00                	jmp    2d7a <.label5820>

0000000000002d7a <.label5820>:
    2d7a:	eb 00                	jmp    2d7c <.label5821>

0000000000002d7c <.label5821>:
    2d7c:	eb 00                	jmp    2d7e <.label5822>

0000000000002d7e <.label5822>:
    2d7e:	eb 00                	jmp    2d80 <.label5823>

0000000000002d80 <.label5823>:
    2d80:	eb 00                	jmp    2d82 <.label5824>

0000000000002d82 <.label5824>:
    2d82:	eb 00                	jmp    2d84 <.label5825>

0000000000002d84 <.label5825>:
    2d84:	eb 00                	jmp    2d86 <.label5826>

0000000000002d86 <.label5826>:
    2d86:	eb 00                	jmp    2d88 <.label5827>

0000000000002d88 <.label5827>:
    2d88:	eb 00                	jmp    2d8a <.label5828>

0000000000002d8a <.label5828>:
    2d8a:	eb 00                	jmp    2d8c <.label5829>

0000000000002d8c <.label5829>:
    2d8c:	eb 00                	jmp    2d8e <.label5830>

0000000000002d8e <.label5830>:
    2d8e:	eb 00                	jmp    2d90 <.label5831>

0000000000002d90 <.label5831>:
    2d90:	eb 00                	jmp    2d92 <.label5832>

0000000000002d92 <.label5832>:
    2d92:	eb 00                	jmp    2d94 <.label5833>

0000000000002d94 <.label5833>:
    2d94:	eb 00                	jmp    2d96 <.label5834>

0000000000002d96 <.label5834>:
    2d96:	eb 00                	jmp    2d98 <.label5835>

0000000000002d98 <.label5835>:
    2d98:	eb 00                	jmp    2d9a <.label5836>

0000000000002d9a <.label5836>:
    2d9a:	eb 00                	jmp    2d9c <.label5837>

0000000000002d9c <.label5837>:
    2d9c:	eb 00                	jmp    2d9e <.label5838>

0000000000002d9e <.label5838>:
    2d9e:	eb 00                	jmp    2da0 <.label5839>

0000000000002da0 <.label5839>:
    2da0:	eb 00                	jmp    2da2 <.label5840>

0000000000002da2 <.label5840>:
    2da2:	eb 00                	jmp    2da4 <.label5841>

0000000000002da4 <.label5841>:
    2da4:	eb 00                	jmp    2da6 <.label5842>

0000000000002da6 <.label5842>:
    2da6:	eb 00                	jmp    2da8 <.label5843>

0000000000002da8 <.label5843>:
    2da8:	eb 00                	jmp    2daa <.label5844>

0000000000002daa <.label5844>:
    2daa:	eb 00                	jmp    2dac <.label5845>

0000000000002dac <.label5845>:
    2dac:	eb 00                	jmp    2dae <.label5846>

0000000000002dae <.label5846>:
    2dae:	eb 00                	jmp    2db0 <.label5847>

0000000000002db0 <.label5847>:
    2db0:	eb 00                	jmp    2db2 <.label5848>

0000000000002db2 <.label5848>:
    2db2:	eb 00                	jmp    2db4 <.label5849>

0000000000002db4 <.label5849>:
    2db4:	eb 00                	jmp    2db6 <.label5850>

0000000000002db6 <.label5850>:
    2db6:	eb 00                	jmp    2db8 <.label5851>

0000000000002db8 <.label5851>:
    2db8:	eb 00                	jmp    2dba <.label5852>

0000000000002dba <.label5852>:
    2dba:	eb 00                	jmp    2dbc <.label5853>

0000000000002dbc <.label5853>:
    2dbc:	eb 00                	jmp    2dbe <.label5854>

0000000000002dbe <.label5854>:
    2dbe:	eb 00                	jmp    2dc0 <.label5855>

0000000000002dc0 <.label5855>:
    2dc0:	eb 00                	jmp    2dc2 <.label5856>

0000000000002dc2 <.label5856>:
    2dc2:	eb 00                	jmp    2dc4 <.label5857>

0000000000002dc4 <.label5857>:
    2dc4:	eb 00                	jmp    2dc6 <.label5858>

0000000000002dc6 <.label5858>:
    2dc6:	eb 00                	jmp    2dc8 <.label5859>

0000000000002dc8 <.label5859>:
    2dc8:	eb 00                	jmp    2dca <.label5860>

0000000000002dca <.label5860>:
    2dca:	eb 00                	jmp    2dcc <.label5861>

0000000000002dcc <.label5861>:
    2dcc:	eb 00                	jmp    2dce <.label5862>

0000000000002dce <.label5862>:
    2dce:	eb 00                	jmp    2dd0 <.label5863>

0000000000002dd0 <.label5863>:
    2dd0:	eb 00                	jmp    2dd2 <.label5864>

0000000000002dd2 <.label5864>:
    2dd2:	eb 00                	jmp    2dd4 <.label5865>

0000000000002dd4 <.label5865>:
    2dd4:	eb 00                	jmp    2dd6 <.label5866>

0000000000002dd6 <.label5866>:
    2dd6:	eb 00                	jmp    2dd8 <.label5867>

0000000000002dd8 <.label5867>:
    2dd8:	eb 00                	jmp    2dda <.label5868>

0000000000002dda <.label5868>:
    2dda:	eb 00                	jmp    2ddc <.label5869>

0000000000002ddc <.label5869>:
    2ddc:	eb 00                	jmp    2dde <.label5870>

0000000000002dde <.label5870>:
    2dde:	eb 00                	jmp    2de0 <.label5871>

0000000000002de0 <.label5871>:
    2de0:	eb 00                	jmp    2de2 <.label5872>

0000000000002de2 <.label5872>:
    2de2:	eb 00                	jmp    2de4 <.label5873>

0000000000002de4 <.label5873>:
    2de4:	eb 00                	jmp    2de6 <.label5874>

0000000000002de6 <.label5874>:
    2de6:	eb 00                	jmp    2de8 <.label5875>

0000000000002de8 <.label5875>:
    2de8:	eb 00                	jmp    2dea <.label5876>

0000000000002dea <.label5876>:
    2dea:	eb 00                	jmp    2dec <.label5877>

0000000000002dec <.label5877>:
    2dec:	eb 00                	jmp    2dee <.label5878>

0000000000002dee <.label5878>:
    2dee:	eb 00                	jmp    2df0 <.label5879>

0000000000002df0 <.label5879>:
    2df0:	eb 00                	jmp    2df2 <.label5880>

0000000000002df2 <.label5880>:
    2df2:	eb 00                	jmp    2df4 <.label5881>

0000000000002df4 <.label5881>:
    2df4:	eb 00                	jmp    2df6 <.label5882>

0000000000002df6 <.label5882>:
    2df6:	eb 00                	jmp    2df8 <.label5883>

0000000000002df8 <.label5883>:
    2df8:	eb 00                	jmp    2dfa <.label5884>

0000000000002dfa <.label5884>:
    2dfa:	eb 00                	jmp    2dfc <.label5885>

0000000000002dfc <.label5885>:
    2dfc:	eb 00                	jmp    2dfe <.label5886>

0000000000002dfe <.label5886>:
    2dfe:	eb 00                	jmp    2e00 <.label5887>

0000000000002e00 <.label5887>:
    2e00:	eb 00                	jmp    2e02 <.label5888>

0000000000002e02 <.label5888>:
    2e02:	eb 00                	jmp    2e04 <.label5889>

0000000000002e04 <.label5889>:
    2e04:	eb 00                	jmp    2e06 <.label5890>

0000000000002e06 <.label5890>:
    2e06:	eb 00                	jmp    2e08 <.label5891>

0000000000002e08 <.label5891>:
    2e08:	eb 00                	jmp    2e0a <.label5892>

0000000000002e0a <.label5892>:
    2e0a:	eb 00                	jmp    2e0c <.label5893>

0000000000002e0c <.label5893>:
    2e0c:	eb 00                	jmp    2e0e <.label5894>

0000000000002e0e <.label5894>:
    2e0e:	eb 00                	jmp    2e10 <.label5895>

0000000000002e10 <.label5895>:
    2e10:	eb 00                	jmp    2e12 <.label5896>

0000000000002e12 <.label5896>:
    2e12:	eb 00                	jmp    2e14 <.label5897>

0000000000002e14 <.label5897>:
    2e14:	eb 00                	jmp    2e16 <.label5898>

0000000000002e16 <.label5898>:
    2e16:	eb 00                	jmp    2e18 <.label5899>

0000000000002e18 <.label5899>:
    2e18:	eb 00                	jmp    2e1a <.label5900>

0000000000002e1a <.label5900>:
    2e1a:	eb 00                	jmp    2e1c <.label5901>

0000000000002e1c <.label5901>:
    2e1c:	eb 00                	jmp    2e1e <.label5902>

0000000000002e1e <.label5902>:
    2e1e:	eb 00                	jmp    2e20 <.label5903>

0000000000002e20 <.label5903>:
    2e20:	eb 00                	jmp    2e22 <.label5904>

0000000000002e22 <.label5904>:
    2e22:	eb 00                	jmp    2e24 <.label5905>

0000000000002e24 <.label5905>:
    2e24:	eb 00                	jmp    2e26 <.label5906>

0000000000002e26 <.label5906>:
    2e26:	eb 00                	jmp    2e28 <.label5907>

0000000000002e28 <.label5907>:
    2e28:	eb 00                	jmp    2e2a <.label5908>

0000000000002e2a <.label5908>:
    2e2a:	eb 00                	jmp    2e2c <.label5909>

0000000000002e2c <.label5909>:
    2e2c:	eb 00                	jmp    2e2e <.label5910>

0000000000002e2e <.label5910>:
    2e2e:	eb 00                	jmp    2e30 <.label5911>

0000000000002e30 <.label5911>:
    2e30:	eb 00                	jmp    2e32 <.label5912>

0000000000002e32 <.label5912>:
    2e32:	eb 00                	jmp    2e34 <.label5913>

0000000000002e34 <.label5913>:
    2e34:	eb 00                	jmp    2e36 <.label5914>

0000000000002e36 <.label5914>:
    2e36:	eb 00                	jmp    2e38 <.label5915>

0000000000002e38 <.label5915>:
    2e38:	eb 00                	jmp    2e3a <.label5916>

0000000000002e3a <.label5916>:
    2e3a:	eb 00                	jmp    2e3c <.label5917>

0000000000002e3c <.label5917>:
    2e3c:	eb 00                	jmp    2e3e <.label5918>

0000000000002e3e <.label5918>:
    2e3e:	eb 00                	jmp    2e40 <.label5919>

0000000000002e40 <.label5919>:
    2e40:	eb 00                	jmp    2e42 <.label5920>

0000000000002e42 <.label5920>:
    2e42:	eb 00                	jmp    2e44 <.label5921>

0000000000002e44 <.label5921>:
    2e44:	eb 00                	jmp    2e46 <.label5922>

0000000000002e46 <.label5922>:
    2e46:	eb 00                	jmp    2e48 <.label5923>

0000000000002e48 <.label5923>:
    2e48:	eb 00                	jmp    2e4a <.label5924>

0000000000002e4a <.label5924>:
    2e4a:	eb 00                	jmp    2e4c <.label5925>

0000000000002e4c <.label5925>:
    2e4c:	eb 00                	jmp    2e4e <.label5926>

0000000000002e4e <.label5926>:
    2e4e:	eb 00                	jmp    2e50 <.label5927>

0000000000002e50 <.label5927>:
    2e50:	eb 00                	jmp    2e52 <.label5928>

0000000000002e52 <.label5928>:
    2e52:	eb 00                	jmp    2e54 <.label5929>

0000000000002e54 <.label5929>:
    2e54:	eb 00                	jmp    2e56 <.label5930>

0000000000002e56 <.label5930>:
    2e56:	eb 00                	jmp    2e58 <.label5931>

0000000000002e58 <.label5931>:
    2e58:	eb 00                	jmp    2e5a <.label5932>

0000000000002e5a <.label5932>:
    2e5a:	eb 00                	jmp    2e5c <.label5933>

0000000000002e5c <.label5933>:
    2e5c:	eb 00                	jmp    2e5e <.label5934>

0000000000002e5e <.label5934>:
    2e5e:	eb 00                	jmp    2e60 <.label5935>

0000000000002e60 <.label5935>:
    2e60:	eb 00                	jmp    2e62 <.label5936>

0000000000002e62 <.label5936>:
    2e62:	eb 00                	jmp    2e64 <.label5937>

0000000000002e64 <.label5937>:
    2e64:	eb 00                	jmp    2e66 <.label5938>

0000000000002e66 <.label5938>:
    2e66:	eb 00                	jmp    2e68 <.label5939>

0000000000002e68 <.label5939>:
    2e68:	eb 00                	jmp    2e6a <.label5940>

0000000000002e6a <.label5940>:
    2e6a:	eb 00                	jmp    2e6c <.label5941>

0000000000002e6c <.label5941>:
    2e6c:	eb 00                	jmp    2e6e <.label5942>

0000000000002e6e <.label5942>:
    2e6e:	eb 00                	jmp    2e70 <.label5943>

0000000000002e70 <.label5943>:
    2e70:	eb 00                	jmp    2e72 <.label5944>

0000000000002e72 <.label5944>:
    2e72:	eb 00                	jmp    2e74 <.label5945>

0000000000002e74 <.label5945>:
    2e74:	eb 00                	jmp    2e76 <.label5946>

0000000000002e76 <.label5946>:
    2e76:	eb 00                	jmp    2e78 <.label5947>

0000000000002e78 <.label5947>:
    2e78:	eb 00                	jmp    2e7a <.label5948>

0000000000002e7a <.label5948>:
    2e7a:	eb 00                	jmp    2e7c <.label5949>

0000000000002e7c <.label5949>:
    2e7c:	eb 00                	jmp    2e7e <.label5950>

0000000000002e7e <.label5950>:
    2e7e:	eb 00                	jmp    2e80 <.label5951>

0000000000002e80 <.label5951>:
    2e80:	eb 00                	jmp    2e82 <.label5952>

0000000000002e82 <.label5952>:
    2e82:	eb 00                	jmp    2e84 <.label5953>

0000000000002e84 <.label5953>:
    2e84:	eb 00                	jmp    2e86 <.label5954>

0000000000002e86 <.label5954>:
    2e86:	eb 00                	jmp    2e88 <.label5955>

0000000000002e88 <.label5955>:
    2e88:	eb 00                	jmp    2e8a <.label5956>

0000000000002e8a <.label5956>:
    2e8a:	eb 00                	jmp    2e8c <.label5957>

0000000000002e8c <.label5957>:
    2e8c:	eb 00                	jmp    2e8e <.label5958>

0000000000002e8e <.label5958>:
    2e8e:	eb 00                	jmp    2e90 <.label5959>

0000000000002e90 <.label5959>:
    2e90:	eb 00                	jmp    2e92 <.label5960>

0000000000002e92 <.label5960>:
    2e92:	eb 00                	jmp    2e94 <.label5961>

0000000000002e94 <.label5961>:
    2e94:	eb 00                	jmp    2e96 <.label5962>

0000000000002e96 <.label5962>:
    2e96:	eb 00                	jmp    2e98 <.label5963>

0000000000002e98 <.label5963>:
    2e98:	eb 00                	jmp    2e9a <.label5964>

0000000000002e9a <.label5964>:
    2e9a:	eb 00                	jmp    2e9c <.label5965>

0000000000002e9c <.label5965>:
    2e9c:	eb 00                	jmp    2e9e <.label5966>

0000000000002e9e <.label5966>:
    2e9e:	eb 00                	jmp    2ea0 <.label5967>

0000000000002ea0 <.label5967>:
    2ea0:	eb 00                	jmp    2ea2 <.label5968>

0000000000002ea2 <.label5968>:
    2ea2:	eb 00                	jmp    2ea4 <.label5969>

0000000000002ea4 <.label5969>:
    2ea4:	eb 00                	jmp    2ea6 <.label5970>

0000000000002ea6 <.label5970>:
    2ea6:	eb 00                	jmp    2ea8 <.label5971>

0000000000002ea8 <.label5971>:
    2ea8:	eb 00                	jmp    2eaa <.label5972>

0000000000002eaa <.label5972>:
    2eaa:	eb 00                	jmp    2eac <.label5973>

0000000000002eac <.label5973>:
    2eac:	eb 00                	jmp    2eae <.label5974>

0000000000002eae <.label5974>:
    2eae:	eb 00                	jmp    2eb0 <.label5975>

0000000000002eb0 <.label5975>:
    2eb0:	eb 00                	jmp    2eb2 <.label5976>

0000000000002eb2 <.label5976>:
    2eb2:	eb 00                	jmp    2eb4 <.label5977>

0000000000002eb4 <.label5977>:
    2eb4:	eb 00                	jmp    2eb6 <.label5978>

0000000000002eb6 <.label5978>:
    2eb6:	eb 00                	jmp    2eb8 <.label5979>

0000000000002eb8 <.label5979>:
    2eb8:	eb 00                	jmp    2eba <.label5980>

0000000000002eba <.label5980>:
    2eba:	eb 00                	jmp    2ebc <.label5981>

0000000000002ebc <.label5981>:
    2ebc:	eb 00                	jmp    2ebe <.label5982>

0000000000002ebe <.label5982>:
    2ebe:	eb 00                	jmp    2ec0 <.label5983>

0000000000002ec0 <.label5983>:
    2ec0:	eb 00                	jmp    2ec2 <.label5984>

0000000000002ec2 <.label5984>:
    2ec2:	eb 00                	jmp    2ec4 <.label5985>

0000000000002ec4 <.label5985>:
    2ec4:	eb 00                	jmp    2ec6 <.label5986>

0000000000002ec6 <.label5986>:
    2ec6:	eb 00                	jmp    2ec8 <.label5987>

0000000000002ec8 <.label5987>:
    2ec8:	eb 00                	jmp    2eca <.label5988>

0000000000002eca <.label5988>:
    2eca:	eb 00                	jmp    2ecc <.label5989>

0000000000002ecc <.label5989>:
    2ecc:	eb 00                	jmp    2ece <.label5990>

0000000000002ece <.label5990>:
    2ece:	eb 00                	jmp    2ed0 <.label5991>

0000000000002ed0 <.label5991>:
    2ed0:	eb 00                	jmp    2ed2 <.label5992>

0000000000002ed2 <.label5992>:
    2ed2:	eb 00                	jmp    2ed4 <.label5993>

0000000000002ed4 <.label5993>:
    2ed4:	eb 00                	jmp    2ed6 <.label5994>

0000000000002ed6 <.label5994>:
    2ed6:	eb 00                	jmp    2ed8 <.label5995>

0000000000002ed8 <.label5995>:
    2ed8:	eb 00                	jmp    2eda <.label5996>

0000000000002eda <.label5996>:
    2eda:	eb 00                	jmp    2edc <.label5997>

0000000000002edc <.label5997>:
    2edc:	eb 00                	jmp    2ede <.label5998>

0000000000002ede <.label5998>:
    2ede:	eb 00                	jmp    2ee0 <.label5999>

0000000000002ee0 <.label5999>:
    2ee0:	eb 00                	jmp    2ee2 <.label6000>

0000000000002ee2 <.label6000>:
    2ee2:	eb 00                	jmp    2ee4 <.label6001>

0000000000002ee4 <.label6001>:
    2ee4:	eb 00                	jmp    2ee6 <.label6002>

0000000000002ee6 <.label6002>:
    2ee6:	eb 00                	jmp    2ee8 <.label6003>

0000000000002ee8 <.label6003>:
    2ee8:	eb 00                	jmp    2eea <.label6004>

0000000000002eea <.label6004>:
    2eea:	eb 00                	jmp    2eec <.label6005>

0000000000002eec <.label6005>:
    2eec:	eb 00                	jmp    2eee <.label6006>

0000000000002eee <.label6006>:
    2eee:	eb 00                	jmp    2ef0 <.label6007>

0000000000002ef0 <.label6007>:
    2ef0:	eb 00                	jmp    2ef2 <.label6008>

0000000000002ef2 <.label6008>:
    2ef2:	eb 00                	jmp    2ef4 <.label6009>

0000000000002ef4 <.label6009>:
    2ef4:	eb 00                	jmp    2ef6 <.label6010>

0000000000002ef6 <.label6010>:
    2ef6:	eb 00                	jmp    2ef8 <.label6011>

0000000000002ef8 <.label6011>:
    2ef8:	eb 00                	jmp    2efa <.label6012>

0000000000002efa <.label6012>:
    2efa:	eb 00                	jmp    2efc <.label6013>

0000000000002efc <.label6013>:
    2efc:	eb 00                	jmp    2efe <.label6014>

0000000000002efe <.label6014>:
    2efe:	eb 00                	jmp    2f00 <.label6015>

0000000000002f00 <.label6015>:
    2f00:	eb 00                	jmp    2f02 <.label6016>

0000000000002f02 <.label6016>:
    2f02:	eb 00                	jmp    2f04 <.label6017>

0000000000002f04 <.label6017>:
    2f04:	eb 00                	jmp    2f06 <.label6018>

0000000000002f06 <.label6018>:
    2f06:	eb 00                	jmp    2f08 <.label6019>

0000000000002f08 <.label6019>:
    2f08:	eb 00                	jmp    2f0a <.label6020>

0000000000002f0a <.label6020>:
    2f0a:	eb 00                	jmp    2f0c <.label6021>

0000000000002f0c <.label6021>:
    2f0c:	eb 00                	jmp    2f0e <.label6022>

0000000000002f0e <.label6022>:
    2f0e:	eb 00                	jmp    2f10 <.label6023>

0000000000002f10 <.label6023>:
    2f10:	eb 00                	jmp    2f12 <.label6024>

0000000000002f12 <.label6024>:
    2f12:	eb 00                	jmp    2f14 <.label6025>

0000000000002f14 <.label6025>:
    2f14:	eb 00                	jmp    2f16 <.label6026>

0000000000002f16 <.label6026>:
    2f16:	eb 00                	jmp    2f18 <.label6027>

0000000000002f18 <.label6027>:
    2f18:	eb 00                	jmp    2f1a <.label6028>

0000000000002f1a <.label6028>:
    2f1a:	eb 00                	jmp    2f1c <.label6029>

0000000000002f1c <.label6029>:
    2f1c:	eb 00                	jmp    2f1e <.label6030>

0000000000002f1e <.label6030>:
    2f1e:	eb 00                	jmp    2f20 <.label6031>

0000000000002f20 <.label6031>:
    2f20:	eb 00                	jmp    2f22 <.label6032>

0000000000002f22 <.label6032>:
    2f22:	eb 00                	jmp    2f24 <.label6033>

0000000000002f24 <.label6033>:
    2f24:	eb 00                	jmp    2f26 <.label6034>

0000000000002f26 <.label6034>:
    2f26:	eb 00                	jmp    2f28 <.label6035>

0000000000002f28 <.label6035>:
    2f28:	eb 00                	jmp    2f2a <.label6036>

0000000000002f2a <.label6036>:
    2f2a:	eb 00                	jmp    2f2c <.label6037>

0000000000002f2c <.label6037>:
    2f2c:	eb 00                	jmp    2f2e <.label6038>

0000000000002f2e <.label6038>:
    2f2e:	eb 00                	jmp    2f30 <.label6039>

0000000000002f30 <.label6039>:
    2f30:	eb 00                	jmp    2f32 <.label6040>

0000000000002f32 <.label6040>:
    2f32:	eb 00                	jmp    2f34 <.label6041>

0000000000002f34 <.label6041>:
    2f34:	eb 00                	jmp    2f36 <.label6042>

0000000000002f36 <.label6042>:
    2f36:	eb 00                	jmp    2f38 <.label6043>

0000000000002f38 <.label6043>:
    2f38:	eb 00                	jmp    2f3a <.label6044>

0000000000002f3a <.label6044>:
    2f3a:	eb 00                	jmp    2f3c <.label6045>

0000000000002f3c <.label6045>:
    2f3c:	eb 00                	jmp    2f3e <.label6046>

0000000000002f3e <.label6046>:
    2f3e:	eb 00                	jmp    2f40 <.label6047>

0000000000002f40 <.label6047>:
    2f40:	eb 00                	jmp    2f42 <.label6048>

0000000000002f42 <.label6048>:
    2f42:	eb 00                	jmp    2f44 <.label6049>

0000000000002f44 <.label6049>:
    2f44:	eb 00                	jmp    2f46 <.label6050>

0000000000002f46 <.label6050>:
    2f46:	eb 00                	jmp    2f48 <.label6051>

0000000000002f48 <.label6051>:
    2f48:	eb 00                	jmp    2f4a <.label6052>

0000000000002f4a <.label6052>:
    2f4a:	eb 00                	jmp    2f4c <.label6053>

0000000000002f4c <.label6053>:
    2f4c:	eb 00                	jmp    2f4e <.label6054>

0000000000002f4e <.label6054>:
    2f4e:	eb 00                	jmp    2f50 <.label6055>

0000000000002f50 <.label6055>:
    2f50:	eb 00                	jmp    2f52 <.label6056>

0000000000002f52 <.label6056>:
    2f52:	eb 00                	jmp    2f54 <.label6057>

0000000000002f54 <.label6057>:
    2f54:	eb 00                	jmp    2f56 <.label6058>

0000000000002f56 <.label6058>:
    2f56:	eb 00                	jmp    2f58 <.label6059>

0000000000002f58 <.label6059>:
    2f58:	eb 00                	jmp    2f5a <.label6060>

0000000000002f5a <.label6060>:
    2f5a:	eb 00                	jmp    2f5c <.label6061>

0000000000002f5c <.label6061>:
    2f5c:	eb 00                	jmp    2f5e <.label6062>

0000000000002f5e <.label6062>:
    2f5e:	eb 00                	jmp    2f60 <.label6063>

0000000000002f60 <.label6063>:
    2f60:	eb 00                	jmp    2f62 <.label6064>

0000000000002f62 <.label6064>:
    2f62:	eb 00                	jmp    2f64 <.label6065>

0000000000002f64 <.label6065>:
    2f64:	eb 00                	jmp    2f66 <.label6066>

0000000000002f66 <.label6066>:
    2f66:	eb 00                	jmp    2f68 <.label6067>

0000000000002f68 <.label6067>:
    2f68:	eb 00                	jmp    2f6a <.label6068>

0000000000002f6a <.label6068>:
    2f6a:	eb 00                	jmp    2f6c <.label6069>

0000000000002f6c <.label6069>:
    2f6c:	eb 00                	jmp    2f6e <.label6070>

0000000000002f6e <.label6070>:
    2f6e:	eb 00                	jmp    2f70 <.label6071>

0000000000002f70 <.label6071>:
    2f70:	eb 00                	jmp    2f72 <.label6072>

0000000000002f72 <.label6072>:
    2f72:	eb 00                	jmp    2f74 <.label6073>

0000000000002f74 <.label6073>:
    2f74:	eb 00                	jmp    2f76 <.label6074>

0000000000002f76 <.label6074>:
    2f76:	eb 00                	jmp    2f78 <.label6075>

0000000000002f78 <.label6075>:
    2f78:	eb 00                	jmp    2f7a <.label6076>

0000000000002f7a <.label6076>:
    2f7a:	eb 00                	jmp    2f7c <.label6077>

0000000000002f7c <.label6077>:
    2f7c:	eb 00                	jmp    2f7e <.label6078>

0000000000002f7e <.label6078>:
    2f7e:	eb 00                	jmp    2f80 <.label6079>

0000000000002f80 <.label6079>:
    2f80:	eb 00                	jmp    2f82 <.label6080>

0000000000002f82 <.label6080>:
    2f82:	eb 00                	jmp    2f84 <.label6081>

0000000000002f84 <.label6081>:
    2f84:	eb 00                	jmp    2f86 <.label6082>

0000000000002f86 <.label6082>:
    2f86:	eb 00                	jmp    2f88 <.label6083>

0000000000002f88 <.label6083>:
    2f88:	eb 00                	jmp    2f8a <.label6084>

0000000000002f8a <.label6084>:
    2f8a:	eb 00                	jmp    2f8c <.label6085>

0000000000002f8c <.label6085>:
    2f8c:	eb 00                	jmp    2f8e <.label6086>

0000000000002f8e <.label6086>:
    2f8e:	eb 00                	jmp    2f90 <.label6087>

0000000000002f90 <.label6087>:
    2f90:	eb 00                	jmp    2f92 <.label6088>

0000000000002f92 <.label6088>:
    2f92:	eb 00                	jmp    2f94 <.label6089>

0000000000002f94 <.label6089>:
    2f94:	eb 00                	jmp    2f96 <.label6090>

0000000000002f96 <.label6090>:
    2f96:	eb 00                	jmp    2f98 <.label6091>

0000000000002f98 <.label6091>:
    2f98:	eb 00                	jmp    2f9a <.label6092>

0000000000002f9a <.label6092>:
    2f9a:	eb 00                	jmp    2f9c <.label6093>

0000000000002f9c <.label6093>:
    2f9c:	eb 00                	jmp    2f9e <.label6094>

0000000000002f9e <.label6094>:
    2f9e:	eb 00                	jmp    2fa0 <.label6095>

0000000000002fa0 <.label6095>:
    2fa0:	eb 00                	jmp    2fa2 <.label6096>

0000000000002fa2 <.label6096>:
    2fa2:	eb 00                	jmp    2fa4 <.label6097>

0000000000002fa4 <.label6097>:
    2fa4:	eb 00                	jmp    2fa6 <.label6098>

0000000000002fa6 <.label6098>:
    2fa6:	eb 00                	jmp    2fa8 <.label6099>

0000000000002fa8 <.label6099>:
    2fa8:	eb 00                	jmp    2faa <.label6100>

0000000000002faa <.label6100>:
    2faa:	eb 00                	jmp    2fac <.label6101>

0000000000002fac <.label6101>:
    2fac:	eb 00                	jmp    2fae <.label6102>

0000000000002fae <.label6102>:
    2fae:	eb 00                	jmp    2fb0 <.label6103>

0000000000002fb0 <.label6103>:
    2fb0:	eb 00                	jmp    2fb2 <.label6104>

0000000000002fb2 <.label6104>:
    2fb2:	eb 00                	jmp    2fb4 <.label6105>

0000000000002fb4 <.label6105>:
    2fb4:	eb 00                	jmp    2fb6 <.label6106>

0000000000002fb6 <.label6106>:
    2fb6:	eb 00                	jmp    2fb8 <.label6107>

0000000000002fb8 <.label6107>:
    2fb8:	eb 00                	jmp    2fba <.label6108>

0000000000002fba <.label6108>:
    2fba:	eb 00                	jmp    2fbc <.label6109>

0000000000002fbc <.label6109>:
    2fbc:	eb 00                	jmp    2fbe <.label6110>

0000000000002fbe <.label6110>:
    2fbe:	eb 00                	jmp    2fc0 <.label6111>

0000000000002fc0 <.label6111>:
    2fc0:	eb 00                	jmp    2fc2 <.label6112>

0000000000002fc2 <.label6112>:
    2fc2:	eb 00                	jmp    2fc4 <.label6113>

0000000000002fc4 <.label6113>:
    2fc4:	eb 00                	jmp    2fc6 <.label6114>

0000000000002fc6 <.label6114>:
    2fc6:	eb 00                	jmp    2fc8 <.label6115>

0000000000002fc8 <.label6115>:
    2fc8:	eb 00                	jmp    2fca <.label6116>

0000000000002fca <.label6116>:
    2fca:	eb 00                	jmp    2fcc <.label6117>

0000000000002fcc <.label6117>:
    2fcc:	eb 00                	jmp    2fce <.label6118>

0000000000002fce <.label6118>:
    2fce:	eb 00                	jmp    2fd0 <.label6119>

0000000000002fd0 <.label6119>:
    2fd0:	eb 00                	jmp    2fd2 <.label6120>

0000000000002fd2 <.label6120>:
    2fd2:	eb 00                	jmp    2fd4 <.label6121>

0000000000002fd4 <.label6121>:
    2fd4:	eb 00                	jmp    2fd6 <.label6122>

0000000000002fd6 <.label6122>:
    2fd6:	eb 00                	jmp    2fd8 <.label6123>

0000000000002fd8 <.label6123>:
    2fd8:	eb 00                	jmp    2fda <.label6124>

0000000000002fda <.label6124>:
    2fda:	eb 00                	jmp    2fdc <.label6125>

0000000000002fdc <.label6125>:
    2fdc:	eb 00                	jmp    2fde <.label6126>

0000000000002fde <.label6126>:
    2fde:	eb 00                	jmp    2fe0 <.label6127>

0000000000002fe0 <.label6127>:
    2fe0:	eb 00                	jmp    2fe2 <.label6128>

0000000000002fe2 <.label6128>:
    2fe2:	eb 00                	jmp    2fe4 <.label6129>

0000000000002fe4 <.label6129>:
    2fe4:	eb 00                	jmp    2fe6 <.label6130>

0000000000002fe6 <.label6130>:
    2fe6:	eb 00                	jmp    2fe8 <.label6131>

0000000000002fe8 <.label6131>:
    2fe8:	eb 00                	jmp    2fea <.label6132>

0000000000002fea <.label6132>:
    2fea:	eb 00                	jmp    2fec <.label6133>

0000000000002fec <.label6133>:
    2fec:	eb 00                	jmp    2fee <.label6134>

0000000000002fee <.label6134>:
    2fee:	eb 00                	jmp    2ff0 <.label6135>

0000000000002ff0 <.label6135>:
    2ff0:	eb 00                	jmp    2ff2 <.label6136>

0000000000002ff2 <.label6136>:
    2ff2:	eb 00                	jmp    2ff4 <.label6137>

0000000000002ff4 <.label6137>:
    2ff4:	eb 00                	jmp    2ff6 <.label6138>

0000000000002ff6 <.label6138>:
    2ff6:	eb 00                	jmp    2ff8 <.label6139>

0000000000002ff8 <.label6139>:
    2ff8:	eb 00                	jmp    2ffa <.label6140>

0000000000002ffa <.label6140>:
    2ffa:	eb 00                	jmp    2ffc <.label6141>

0000000000002ffc <.label6141>:
    2ffc:	eb 00                	jmp    2ffe <.label6142>

0000000000002ffe <.label6142>:
    2ffe:	eb 00                	jmp    3000 <.label6143>

0000000000003000 <.label6143>:
    3000:	eb 00                	jmp    3002 <.label6144>

0000000000003002 <.label6144>:
    3002:	eb 00                	jmp    3004 <.label6145>

0000000000003004 <.label6145>:
    3004:	eb 00                	jmp    3006 <.label6146>

0000000000003006 <.label6146>:
    3006:	eb 00                	jmp    3008 <.label6147>

0000000000003008 <.label6147>:
    3008:	eb 00                	jmp    300a <.label6148>

000000000000300a <.label6148>:
    300a:	eb 00                	jmp    300c <.label6149>

000000000000300c <.label6149>:
    300c:	eb 00                	jmp    300e <.label6150>

000000000000300e <.label6150>:
    300e:	eb 00                	jmp    3010 <.label6151>

0000000000003010 <.label6151>:
    3010:	eb 00                	jmp    3012 <.label6152>

0000000000003012 <.label6152>:
    3012:	eb 00                	jmp    3014 <.label6153>

0000000000003014 <.label6153>:
    3014:	eb 00                	jmp    3016 <.label6154>

0000000000003016 <.label6154>:
    3016:	eb 00                	jmp    3018 <.label6155>

0000000000003018 <.label6155>:
    3018:	eb 00                	jmp    301a <.label6156>

000000000000301a <.label6156>:
    301a:	eb 00                	jmp    301c <.label6157>

000000000000301c <.label6157>:
    301c:	eb 00                	jmp    301e <.label6158>

000000000000301e <.label6158>:
    301e:	eb 00                	jmp    3020 <.label6159>

0000000000003020 <.label6159>:
    3020:	eb 00                	jmp    3022 <.label6160>

0000000000003022 <.label6160>:
    3022:	eb 00                	jmp    3024 <.label6161>

0000000000003024 <.label6161>:
    3024:	eb 00                	jmp    3026 <.label6162>

0000000000003026 <.label6162>:
    3026:	eb 00                	jmp    3028 <.label6163>

0000000000003028 <.label6163>:
    3028:	eb 00                	jmp    302a <.label6164>

000000000000302a <.label6164>:
    302a:	eb 00                	jmp    302c <.label6165>

000000000000302c <.label6165>:
    302c:	eb 00                	jmp    302e <.label6166>

000000000000302e <.label6166>:
    302e:	eb 00                	jmp    3030 <.label6167>

0000000000003030 <.label6167>:
    3030:	eb 00                	jmp    3032 <.label6168>

0000000000003032 <.label6168>:
    3032:	eb 00                	jmp    3034 <.label6169>

0000000000003034 <.label6169>:
    3034:	eb 00                	jmp    3036 <.label6170>

0000000000003036 <.label6170>:
    3036:	eb 00                	jmp    3038 <.label6171>

0000000000003038 <.label6171>:
    3038:	eb 00                	jmp    303a <.label6172>

000000000000303a <.label6172>:
    303a:	eb 00                	jmp    303c <.label6173>

000000000000303c <.label6173>:
    303c:	eb 00                	jmp    303e <.label6174>

000000000000303e <.label6174>:
    303e:	eb 00                	jmp    3040 <.label6175>

0000000000003040 <.label6175>:
    3040:	eb 00                	jmp    3042 <.label6176>

0000000000003042 <.label6176>:
    3042:	eb 00                	jmp    3044 <.label6177>

0000000000003044 <.label6177>:
    3044:	eb 00                	jmp    3046 <.label6178>

0000000000003046 <.label6178>:
    3046:	eb 00                	jmp    3048 <.label6179>

0000000000003048 <.label6179>:
    3048:	eb 00                	jmp    304a <.label6180>

000000000000304a <.label6180>:
    304a:	eb 00                	jmp    304c <.label6181>

000000000000304c <.label6181>:
    304c:	eb 00                	jmp    304e <.label6182>

000000000000304e <.label6182>:
    304e:	eb 00                	jmp    3050 <.label6183>

0000000000003050 <.label6183>:
    3050:	eb 00                	jmp    3052 <.label6184>

0000000000003052 <.label6184>:
    3052:	eb 00                	jmp    3054 <.label6185>

0000000000003054 <.label6185>:
    3054:	eb 00                	jmp    3056 <.label6186>

0000000000003056 <.label6186>:
    3056:	eb 00                	jmp    3058 <.label6187>

0000000000003058 <.label6187>:
    3058:	eb 00                	jmp    305a <.label6188>

000000000000305a <.label6188>:
    305a:	eb 00                	jmp    305c <.label6189>

000000000000305c <.label6189>:
    305c:	eb 00                	jmp    305e <.label6190>

000000000000305e <.label6190>:
    305e:	eb 00                	jmp    3060 <.label6191>

0000000000003060 <.label6191>:
    3060:	eb 00                	jmp    3062 <.label6192>

0000000000003062 <.label6192>:
    3062:	eb 00                	jmp    3064 <.label6193>

0000000000003064 <.label6193>:
    3064:	eb 00                	jmp    3066 <.label6194>

0000000000003066 <.label6194>:
    3066:	eb 00                	jmp    3068 <.label6195>

0000000000003068 <.label6195>:
    3068:	eb 00                	jmp    306a <.label6196>

000000000000306a <.label6196>:
    306a:	eb 00                	jmp    306c <.label6197>

000000000000306c <.label6197>:
    306c:	eb 00                	jmp    306e <.label6198>

000000000000306e <.label6198>:
    306e:	eb 00                	jmp    3070 <.label6199>

0000000000003070 <.label6199>:
    3070:	eb 00                	jmp    3072 <.label6200>

0000000000003072 <.label6200>:
    3072:	eb 00                	jmp    3074 <.label6201>

0000000000003074 <.label6201>:
    3074:	eb 00                	jmp    3076 <.label6202>

0000000000003076 <.label6202>:
    3076:	eb 00                	jmp    3078 <.label6203>

0000000000003078 <.label6203>:
    3078:	eb 00                	jmp    307a <.label6204>

000000000000307a <.label6204>:
    307a:	eb 00                	jmp    307c <.label6205>

000000000000307c <.label6205>:
    307c:	eb 00                	jmp    307e <.label6206>

000000000000307e <.label6206>:
    307e:	eb 00                	jmp    3080 <.label6207>

0000000000003080 <.label6207>:
    3080:	eb 00                	jmp    3082 <.label6208>

0000000000003082 <.label6208>:
    3082:	eb 00                	jmp    3084 <.label6209>

0000000000003084 <.label6209>:
    3084:	eb 00                	jmp    3086 <.label6210>

0000000000003086 <.label6210>:
    3086:	eb 00                	jmp    3088 <.label6211>

0000000000003088 <.label6211>:
    3088:	eb 00                	jmp    308a <.label6212>

000000000000308a <.label6212>:
    308a:	eb 00                	jmp    308c <.label6213>

000000000000308c <.label6213>:
    308c:	eb 00                	jmp    308e <.label6214>

000000000000308e <.label6214>:
    308e:	eb 00                	jmp    3090 <.label6215>

0000000000003090 <.label6215>:
    3090:	eb 00                	jmp    3092 <.label6216>

0000000000003092 <.label6216>:
    3092:	eb 00                	jmp    3094 <.label6217>

0000000000003094 <.label6217>:
    3094:	eb 00                	jmp    3096 <.label6218>

0000000000003096 <.label6218>:
    3096:	eb 00                	jmp    3098 <.label6219>

0000000000003098 <.label6219>:
    3098:	eb 00                	jmp    309a <.label6220>

000000000000309a <.label6220>:
    309a:	eb 00                	jmp    309c <.label6221>

000000000000309c <.label6221>:
    309c:	eb 00                	jmp    309e <.label6222>

000000000000309e <.label6222>:
    309e:	eb 00                	jmp    30a0 <.label6223>

00000000000030a0 <.label6223>:
    30a0:	eb 00                	jmp    30a2 <.label6224>

00000000000030a2 <.label6224>:
    30a2:	eb 00                	jmp    30a4 <.label6225>

00000000000030a4 <.label6225>:
    30a4:	eb 00                	jmp    30a6 <.label6226>

00000000000030a6 <.label6226>:
    30a6:	eb 00                	jmp    30a8 <.label6227>

00000000000030a8 <.label6227>:
    30a8:	eb 00                	jmp    30aa <.label6228>

00000000000030aa <.label6228>:
    30aa:	eb 00                	jmp    30ac <.label6229>

00000000000030ac <.label6229>:
    30ac:	eb 00                	jmp    30ae <.label6230>

00000000000030ae <.label6230>:
    30ae:	eb 00                	jmp    30b0 <.label6231>

00000000000030b0 <.label6231>:
    30b0:	eb 00                	jmp    30b2 <.label6232>

00000000000030b2 <.label6232>:
    30b2:	eb 00                	jmp    30b4 <.label6233>

00000000000030b4 <.label6233>:
    30b4:	eb 00                	jmp    30b6 <.label6234>

00000000000030b6 <.label6234>:
    30b6:	eb 00                	jmp    30b8 <.label6235>

00000000000030b8 <.label6235>:
    30b8:	eb 00                	jmp    30ba <.label6236>

00000000000030ba <.label6236>:
    30ba:	eb 00                	jmp    30bc <.label6237>

00000000000030bc <.label6237>:
    30bc:	eb 00                	jmp    30be <.label6238>

00000000000030be <.label6238>:
    30be:	eb 00                	jmp    30c0 <.label6239>

00000000000030c0 <.label6239>:
    30c0:	eb 00                	jmp    30c2 <.label6240>

00000000000030c2 <.label6240>:
    30c2:	eb 00                	jmp    30c4 <.label6241>

00000000000030c4 <.label6241>:
    30c4:	eb 00                	jmp    30c6 <.label6242>

00000000000030c6 <.label6242>:
    30c6:	eb 00                	jmp    30c8 <.label6243>

00000000000030c8 <.label6243>:
    30c8:	eb 00                	jmp    30ca <.label6244>

00000000000030ca <.label6244>:
    30ca:	eb 00                	jmp    30cc <.label6245>

00000000000030cc <.label6245>:
    30cc:	eb 00                	jmp    30ce <.label6246>

00000000000030ce <.label6246>:
    30ce:	eb 00                	jmp    30d0 <.label6247>

00000000000030d0 <.label6247>:
    30d0:	eb 00                	jmp    30d2 <.label6248>

00000000000030d2 <.label6248>:
    30d2:	eb 00                	jmp    30d4 <.label6249>

00000000000030d4 <.label6249>:
    30d4:	eb 00                	jmp    30d6 <.label6250>

00000000000030d6 <.label6250>:
    30d6:	eb 00                	jmp    30d8 <.label6251>

00000000000030d8 <.label6251>:
    30d8:	eb 00                	jmp    30da <.label6252>

00000000000030da <.label6252>:
    30da:	eb 00                	jmp    30dc <.label6253>

00000000000030dc <.label6253>:
    30dc:	eb 00                	jmp    30de <.label6254>

00000000000030de <.label6254>:
    30de:	eb 00                	jmp    30e0 <.label6255>

00000000000030e0 <.label6255>:
    30e0:	eb 00                	jmp    30e2 <.label6256>

00000000000030e2 <.label6256>:
    30e2:	eb 00                	jmp    30e4 <.label6257>

00000000000030e4 <.label6257>:
    30e4:	eb 00                	jmp    30e6 <.label6258>

00000000000030e6 <.label6258>:
    30e6:	eb 00                	jmp    30e8 <.label6259>

00000000000030e8 <.label6259>:
    30e8:	eb 00                	jmp    30ea <.label6260>

00000000000030ea <.label6260>:
    30ea:	eb 00                	jmp    30ec <.label6261>

00000000000030ec <.label6261>:
    30ec:	eb 00                	jmp    30ee <.label6262>

00000000000030ee <.label6262>:
    30ee:	eb 00                	jmp    30f0 <.label6263>

00000000000030f0 <.label6263>:
    30f0:	eb 00                	jmp    30f2 <.label6264>

00000000000030f2 <.label6264>:
    30f2:	eb 00                	jmp    30f4 <.label6265>

00000000000030f4 <.label6265>:
    30f4:	eb 00                	jmp    30f6 <.label6266>

00000000000030f6 <.label6266>:
    30f6:	eb 00                	jmp    30f8 <.label6267>

00000000000030f8 <.label6267>:
    30f8:	eb 00                	jmp    30fa <.label6268>

00000000000030fa <.label6268>:
    30fa:	eb 00                	jmp    30fc <.label6269>

00000000000030fc <.label6269>:
    30fc:	eb 00                	jmp    30fe <.label6270>

00000000000030fe <.label6270>:
    30fe:	eb 00                	jmp    3100 <.label6271>

0000000000003100 <.label6271>:
    3100:	eb 00                	jmp    3102 <.label6272>

0000000000003102 <.label6272>:
    3102:	eb 00                	jmp    3104 <.label6273>

0000000000003104 <.label6273>:
    3104:	eb 00                	jmp    3106 <.label6274>

0000000000003106 <.label6274>:
    3106:	eb 00                	jmp    3108 <.label6275>

0000000000003108 <.label6275>:
    3108:	eb 00                	jmp    310a <.label6276>

000000000000310a <.label6276>:
    310a:	eb 00                	jmp    310c <.label6277>

000000000000310c <.label6277>:
    310c:	eb 00                	jmp    310e <.label6278>

000000000000310e <.label6278>:
    310e:	eb 00                	jmp    3110 <.label6279>

0000000000003110 <.label6279>:
    3110:	eb 00                	jmp    3112 <.label6280>

0000000000003112 <.label6280>:
    3112:	eb 00                	jmp    3114 <.label6281>

0000000000003114 <.label6281>:
    3114:	eb 00                	jmp    3116 <.label6282>

0000000000003116 <.label6282>:
    3116:	eb 00                	jmp    3118 <.label6283>

0000000000003118 <.label6283>:
    3118:	eb 00                	jmp    311a <.label6284>

000000000000311a <.label6284>:
    311a:	eb 00                	jmp    311c <.label6285>

000000000000311c <.label6285>:
    311c:	eb 00                	jmp    311e <.label6286>

000000000000311e <.label6286>:
    311e:	eb 00                	jmp    3120 <.label6287>

0000000000003120 <.label6287>:
    3120:	eb 00                	jmp    3122 <.label6288>

0000000000003122 <.label6288>:
    3122:	eb 00                	jmp    3124 <.label6289>

0000000000003124 <.label6289>:
    3124:	eb 00                	jmp    3126 <.label6290>

0000000000003126 <.label6290>:
    3126:	eb 00                	jmp    3128 <.label6291>

0000000000003128 <.label6291>:
    3128:	eb 00                	jmp    312a <.label6292>

000000000000312a <.label6292>:
    312a:	eb 00                	jmp    312c <.label6293>

000000000000312c <.label6293>:
    312c:	eb 00                	jmp    312e <.label6294>

000000000000312e <.label6294>:
    312e:	eb 00                	jmp    3130 <.label6295>

0000000000003130 <.label6295>:
    3130:	eb 00                	jmp    3132 <.label6296>

0000000000003132 <.label6296>:
    3132:	eb 00                	jmp    3134 <.label6297>

0000000000003134 <.label6297>:
    3134:	eb 00                	jmp    3136 <.label6298>

0000000000003136 <.label6298>:
    3136:	eb 00                	jmp    3138 <.label6299>

0000000000003138 <.label6299>:
    3138:	eb 00                	jmp    313a <.label6300>

000000000000313a <.label6300>:
    313a:	eb 00                	jmp    313c <.label6301>

000000000000313c <.label6301>:
    313c:	eb 00                	jmp    313e <.label6302>

000000000000313e <.label6302>:
    313e:	eb 00                	jmp    3140 <.label6303>

0000000000003140 <.label6303>:
    3140:	eb 00                	jmp    3142 <.label6304>

0000000000003142 <.label6304>:
    3142:	eb 00                	jmp    3144 <.label6305>

0000000000003144 <.label6305>:
    3144:	eb 00                	jmp    3146 <.label6306>

0000000000003146 <.label6306>:
    3146:	eb 00                	jmp    3148 <.label6307>

0000000000003148 <.label6307>:
    3148:	eb 00                	jmp    314a <.label6308>

000000000000314a <.label6308>:
    314a:	eb 00                	jmp    314c <.label6309>

000000000000314c <.label6309>:
    314c:	eb 00                	jmp    314e <.label6310>

000000000000314e <.label6310>:
    314e:	eb 00                	jmp    3150 <.label6311>

0000000000003150 <.label6311>:
    3150:	eb 00                	jmp    3152 <.label6312>

0000000000003152 <.label6312>:
    3152:	eb 00                	jmp    3154 <.label6313>

0000000000003154 <.label6313>:
    3154:	eb 00                	jmp    3156 <.label6314>

0000000000003156 <.label6314>:
    3156:	eb 00                	jmp    3158 <.label6315>

0000000000003158 <.label6315>:
    3158:	eb 00                	jmp    315a <.label6316>

000000000000315a <.label6316>:
    315a:	eb 00                	jmp    315c <.label6317>

000000000000315c <.label6317>:
    315c:	eb 00                	jmp    315e <.label6318>

000000000000315e <.label6318>:
    315e:	eb 00                	jmp    3160 <.label6319>

0000000000003160 <.label6319>:
    3160:	eb 00                	jmp    3162 <.label6320>

0000000000003162 <.label6320>:
    3162:	eb 00                	jmp    3164 <.label6321>

0000000000003164 <.label6321>:
    3164:	eb 00                	jmp    3166 <.label6322>

0000000000003166 <.label6322>:
    3166:	eb 00                	jmp    3168 <.label6323>

0000000000003168 <.label6323>:
    3168:	eb 00                	jmp    316a <.label6324>

000000000000316a <.label6324>:
    316a:	eb 00                	jmp    316c <.label6325>

000000000000316c <.label6325>:
    316c:	eb 00                	jmp    316e <.label6326>

000000000000316e <.label6326>:
    316e:	eb 00                	jmp    3170 <.label6327>

0000000000003170 <.label6327>:
    3170:	eb 00                	jmp    3172 <.label6328>

0000000000003172 <.label6328>:
    3172:	eb 00                	jmp    3174 <.label6329>

0000000000003174 <.label6329>:
    3174:	eb 00                	jmp    3176 <.label6330>

0000000000003176 <.label6330>:
    3176:	eb 00                	jmp    3178 <.label6331>

0000000000003178 <.label6331>:
    3178:	eb 00                	jmp    317a <.label6332>

000000000000317a <.label6332>:
    317a:	eb 00                	jmp    317c <.label6333>

000000000000317c <.label6333>:
    317c:	eb 00                	jmp    317e <.label6334>

000000000000317e <.label6334>:
    317e:	eb 00                	jmp    3180 <.label6335>

0000000000003180 <.label6335>:
    3180:	eb 00                	jmp    3182 <.label6336>

0000000000003182 <.label6336>:
    3182:	eb 00                	jmp    3184 <.label6337>

0000000000003184 <.label6337>:
    3184:	eb 00                	jmp    3186 <.label6338>

0000000000003186 <.label6338>:
    3186:	eb 00                	jmp    3188 <.label6339>

0000000000003188 <.label6339>:
    3188:	eb 00                	jmp    318a <.label6340>

000000000000318a <.label6340>:
    318a:	eb 00                	jmp    318c <.label6341>

000000000000318c <.label6341>:
    318c:	eb 00                	jmp    318e <.label6342>

000000000000318e <.label6342>:
    318e:	eb 00                	jmp    3190 <.label6343>

0000000000003190 <.label6343>:
    3190:	eb 00                	jmp    3192 <.label6344>

0000000000003192 <.label6344>:
    3192:	eb 00                	jmp    3194 <.label6345>

0000000000003194 <.label6345>:
    3194:	eb 00                	jmp    3196 <.label6346>

0000000000003196 <.label6346>:
    3196:	eb 00                	jmp    3198 <.label6347>

0000000000003198 <.label6347>:
    3198:	eb 00                	jmp    319a <.label6348>

000000000000319a <.label6348>:
    319a:	eb 00                	jmp    319c <.label6349>

000000000000319c <.label6349>:
    319c:	eb 00                	jmp    319e <.label6350>

000000000000319e <.label6350>:
    319e:	eb 00                	jmp    31a0 <.label6351>

00000000000031a0 <.label6351>:
    31a0:	eb 00                	jmp    31a2 <.label6352>

00000000000031a2 <.label6352>:
    31a2:	eb 00                	jmp    31a4 <.label6353>

00000000000031a4 <.label6353>:
    31a4:	eb 00                	jmp    31a6 <.label6354>

00000000000031a6 <.label6354>:
    31a6:	eb 00                	jmp    31a8 <.label6355>

00000000000031a8 <.label6355>:
    31a8:	eb 00                	jmp    31aa <.label6356>

00000000000031aa <.label6356>:
    31aa:	eb 00                	jmp    31ac <.label6357>

00000000000031ac <.label6357>:
    31ac:	eb 00                	jmp    31ae <.label6358>

00000000000031ae <.label6358>:
    31ae:	eb 00                	jmp    31b0 <.label6359>

00000000000031b0 <.label6359>:
    31b0:	eb 00                	jmp    31b2 <.label6360>

00000000000031b2 <.label6360>:
    31b2:	eb 00                	jmp    31b4 <.label6361>

00000000000031b4 <.label6361>:
    31b4:	eb 00                	jmp    31b6 <.label6362>

00000000000031b6 <.label6362>:
    31b6:	eb 00                	jmp    31b8 <.label6363>

00000000000031b8 <.label6363>:
    31b8:	eb 00                	jmp    31ba <.label6364>

00000000000031ba <.label6364>:
    31ba:	eb 00                	jmp    31bc <.label6365>

00000000000031bc <.label6365>:
    31bc:	eb 00                	jmp    31be <.label6366>

00000000000031be <.label6366>:
    31be:	eb 00                	jmp    31c0 <.label6367>

00000000000031c0 <.label6367>:
    31c0:	eb 00                	jmp    31c2 <.label6368>

00000000000031c2 <.label6368>:
    31c2:	eb 00                	jmp    31c4 <.label6369>

00000000000031c4 <.label6369>:
    31c4:	eb 00                	jmp    31c6 <.label6370>

00000000000031c6 <.label6370>:
    31c6:	eb 00                	jmp    31c8 <.label6371>

00000000000031c8 <.label6371>:
    31c8:	eb 00                	jmp    31ca <.label6372>

00000000000031ca <.label6372>:
    31ca:	eb 00                	jmp    31cc <.label6373>

00000000000031cc <.label6373>:
    31cc:	eb 00                	jmp    31ce <.label6374>

00000000000031ce <.label6374>:
    31ce:	eb 00                	jmp    31d0 <.label6375>

00000000000031d0 <.label6375>:
    31d0:	eb 00                	jmp    31d2 <.label6376>

00000000000031d2 <.label6376>:
    31d2:	eb 00                	jmp    31d4 <.label6377>

00000000000031d4 <.label6377>:
    31d4:	eb 00                	jmp    31d6 <.label6378>

00000000000031d6 <.label6378>:
    31d6:	eb 00                	jmp    31d8 <.label6379>

00000000000031d8 <.label6379>:
    31d8:	eb 00                	jmp    31da <.label6380>

00000000000031da <.label6380>:
    31da:	eb 00                	jmp    31dc <.label6381>

00000000000031dc <.label6381>:
    31dc:	eb 00                	jmp    31de <.label6382>

00000000000031de <.label6382>:
    31de:	eb 00                	jmp    31e0 <.label6383>

00000000000031e0 <.label6383>:
    31e0:	eb 00                	jmp    31e2 <.label6384>

00000000000031e2 <.label6384>:
    31e2:	eb 00                	jmp    31e4 <.label6385>

00000000000031e4 <.label6385>:
    31e4:	eb 00                	jmp    31e6 <.label6386>

00000000000031e6 <.label6386>:
    31e6:	eb 00                	jmp    31e8 <.label6387>

00000000000031e8 <.label6387>:
    31e8:	eb 00                	jmp    31ea <.label6388>

00000000000031ea <.label6388>:
    31ea:	eb 00                	jmp    31ec <.label6389>

00000000000031ec <.label6389>:
    31ec:	eb 00                	jmp    31ee <.label6390>

00000000000031ee <.label6390>:
    31ee:	eb 00                	jmp    31f0 <.label6391>

00000000000031f0 <.label6391>:
    31f0:	eb 00                	jmp    31f2 <.label6392>

00000000000031f2 <.label6392>:
    31f2:	eb 00                	jmp    31f4 <.label6393>

00000000000031f4 <.label6393>:
    31f4:	eb 00                	jmp    31f6 <.label6394>

00000000000031f6 <.label6394>:
    31f6:	eb 00                	jmp    31f8 <.label6395>

00000000000031f8 <.label6395>:
    31f8:	eb 00                	jmp    31fa <.label6396>

00000000000031fa <.label6396>:
    31fa:	eb 00                	jmp    31fc <.label6397>

00000000000031fc <.label6397>:
    31fc:	eb 00                	jmp    31fe <.label6398>

00000000000031fe <.label6398>:
    31fe:	eb 00                	jmp    3200 <.label6399>

0000000000003200 <.label6399>:
    3200:	eb 00                	jmp    3202 <.label6400>

0000000000003202 <.label6400>:
    3202:	eb 00                	jmp    3204 <.label6401>

0000000000003204 <.label6401>:
    3204:	eb 00                	jmp    3206 <.label6402>

0000000000003206 <.label6402>:
    3206:	eb 00                	jmp    3208 <.label6403>

0000000000003208 <.label6403>:
    3208:	eb 00                	jmp    320a <.label6404>

000000000000320a <.label6404>:
    320a:	eb 00                	jmp    320c <.label6405>

000000000000320c <.label6405>:
    320c:	eb 00                	jmp    320e <.label6406>

000000000000320e <.label6406>:
    320e:	eb 00                	jmp    3210 <.label6407>

0000000000003210 <.label6407>:
    3210:	eb 00                	jmp    3212 <.label6408>

0000000000003212 <.label6408>:
    3212:	eb 00                	jmp    3214 <.label6409>

0000000000003214 <.label6409>:
    3214:	eb 00                	jmp    3216 <.label6410>

0000000000003216 <.label6410>:
    3216:	eb 00                	jmp    3218 <.label6411>

0000000000003218 <.label6411>:
    3218:	eb 00                	jmp    321a <.label6412>

000000000000321a <.label6412>:
    321a:	eb 00                	jmp    321c <.label6413>

000000000000321c <.label6413>:
    321c:	eb 00                	jmp    321e <.label6414>

000000000000321e <.label6414>:
    321e:	eb 00                	jmp    3220 <.label6415>

0000000000003220 <.label6415>:
    3220:	eb 00                	jmp    3222 <.label6416>

0000000000003222 <.label6416>:
    3222:	eb 00                	jmp    3224 <.label6417>

0000000000003224 <.label6417>:
    3224:	eb 00                	jmp    3226 <.label6418>

0000000000003226 <.label6418>:
    3226:	eb 00                	jmp    3228 <.label6419>

0000000000003228 <.label6419>:
    3228:	eb 00                	jmp    322a <.label6420>

000000000000322a <.label6420>:
    322a:	eb 00                	jmp    322c <.label6421>

000000000000322c <.label6421>:
    322c:	eb 00                	jmp    322e <.label6422>

000000000000322e <.label6422>:
    322e:	eb 00                	jmp    3230 <.label6423>

0000000000003230 <.label6423>:
    3230:	eb 00                	jmp    3232 <.label6424>

0000000000003232 <.label6424>:
    3232:	eb 00                	jmp    3234 <.label6425>

0000000000003234 <.label6425>:
    3234:	eb 00                	jmp    3236 <.label6426>

0000000000003236 <.label6426>:
    3236:	eb 00                	jmp    3238 <.label6427>

0000000000003238 <.label6427>:
    3238:	eb 00                	jmp    323a <.label6428>

000000000000323a <.label6428>:
    323a:	eb 00                	jmp    323c <.label6429>

000000000000323c <.label6429>:
    323c:	eb 00                	jmp    323e <.label6430>

000000000000323e <.label6430>:
    323e:	eb 00                	jmp    3240 <.label6431>

0000000000003240 <.label6431>:
    3240:	eb 00                	jmp    3242 <.label6432>

0000000000003242 <.label6432>:
    3242:	eb 00                	jmp    3244 <.label6433>

0000000000003244 <.label6433>:
    3244:	eb 00                	jmp    3246 <.label6434>

0000000000003246 <.label6434>:
    3246:	eb 00                	jmp    3248 <.label6435>

0000000000003248 <.label6435>:
    3248:	eb 00                	jmp    324a <.label6436>

000000000000324a <.label6436>:
    324a:	eb 00                	jmp    324c <.label6437>

000000000000324c <.label6437>:
    324c:	eb 00                	jmp    324e <.label6438>

000000000000324e <.label6438>:
    324e:	eb 00                	jmp    3250 <.label6439>

0000000000003250 <.label6439>:
    3250:	eb 00                	jmp    3252 <.label6440>

0000000000003252 <.label6440>:
    3252:	eb 00                	jmp    3254 <.label6441>

0000000000003254 <.label6441>:
    3254:	eb 00                	jmp    3256 <.label6442>

0000000000003256 <.label6442>:
    3256:	eb 00                	jmp    3258 <.label6443>

0000000000003258 <.label6443>:
    3258:	eb 00                	jmp    325a <.label6444>

000000000000325a <.label6444>:
    325a:	eb 00                	jmp    325c <.label6445>

000000000000325c <.label6445>:
    325c:	eb 00                	jmp    325e <.label6446>

000000000000325e <.label6446>:
    325e:	eb 00                	jmp    3260 <.label6447>

0000000000003260 <.label6447>:
    3260:	eb 00                	jmp    3262 <.label6448>

0000000000003262 <.label6448>:
    3262:	eb 00                	jmp    3264 <.label6449>

0000000000003264 <.label6449>:
    3264:	eb 00                	jmp    3266 <.label6450>

0000000000003266 <.label6450>:
    3266:	eb 00                	jmp    3268 <.label6451>

0000000000003268 <.label6451>:
    3268:	eb 00                	jmp    326a <.label6452>

000000000000326a <.label6452>:
    326a:	eb 00                	jmp    326c <.label6453>

000000000000326c <.label6453>:
    326c:	eb 00                	jmp    326e <.label6454>

000000000000326e <.label6454>:
    326e:	eb 00                	jmp    3270 <.label6455>

0000000000003270 <.label6455>:
    3270:	eb 00                	jmp    3272 <.label6456>

0000000000003272 <.label6456>:
    3272:	eb 00                	jmp    3274 <.label6457>

0000000000003274 <.label6457>:
    3274:	eb 00                	jmp    3276 <.label6458>

0000000000003276 <.label6458>:
    3276:	eb 00                	jmp    3278 <.label6459>

0000000000003278 <.label6459>:
    3278:	eb 00                	jmp    327a <.label6460>

000000000000327a <.label6460>:
    327a:	eb 00                	jmp    327c <.label6461>

000000000000327c <.label6461>:
    327c:	eb 00                	jmp    327e <.label6462>

000000000000327e <.label6462>:
    327e:	eb 00                	jmp    3280 <.label6463>

0000000000003280 <.label6463>:
    3280:	eb 00                	jmp    3282 <.label6464>

0000000000003282 <.label6464>:
    3282:	eb 00                	jmp    3284 <.label6465>

0000000000003284 <.label6465>:
    3284:	eb 00                	jmp    3286 <.label6466>

0000000000003286 <.label6466>:
    3286:	eb 00                	jmp    3288 <.label6467>

0000000000003288 <.label6467>:
    3288:	eb 00                	jmp    328a <.label6468>

000000000000328a <.label6468>:
    328a:	eb 00                	jmp    328c <.label6469>

000000000000328c <.label6469>:
    328c:	eb 00                	jmp    328e <.label6470>

000000000000328e <.label6470>:
    328e:	eb 00                	jmp    3290 <.label6471>

0000000000003290 <.label6471>:
    3290:	eb 00                	jmp    3292 <.label6472>

0000000000003292 <.label6472>:
    3292:	eb 00                	jmp    3294 <.label6473>

0000000000003294 <.label6473>:
    3294:	eb 00                	jmp    3296 <.label6474>

0000000000003296 <.label6474>:
    3296:	eb 00                	jmp    3298 <.label6475>

0000000000003298 <.label6475>:
    3298:	eb 00                	jmp    329a <.label6476>

000000000000329a <.label6476>:
    329a:	eb 00                	jmp    329c <.label6477>

000000000000329c <.label6477>:
    329c:	eb 00                	jmp    329e <.label6478>

000000000000329e <.label6478>:
    329e:	eb 00                	jmp    32a0 <.label6479>

00000000000032a0 <.label6479>:
    32a0:	eb 00                	jmp    32a2 <.label6480>

00000000000032a2 <.label6480>:
    32a2:	eb 00                	jmp    32a4 <.label6481>

00000000000032a4 <.label6481>:
    32a4:	eb 00                	jmp    32a6 <.label6482>

00000000000032a6 <.label6482>:
    32a6:	eb 00                	jmp    32a8 <.label6483>

00000000000032a8 <.label6483>:
    32a8:	eb 00                	jmp    32aa <.label6484>

00000000000032aa <.label6484>:
    32aa:	eb 00                	jmp    32ac <.label6485>

00000000000032ac <.label6485>:
    32ac:	eb 00                	jmp    32ae <.label6486>

00000000000032ae <.label6486>:
    32ae:	eb 00                	jmp    32b0 <.label6487>

00000000000032b0 <.label6487>:
    32b0:	eb 00                	jmp    32b2 <.label6488>

00000000000032b2 <.label6488>:
    32b2:	eb 00                	jmp    32b4 <.label6489>

00000000000032b4 <.label6489>:
    32b4:	eb 00                	jmp    32b6 <.label6490>

00000000000032b6 <.label6490>:
    32b6:	eb 00                	jmp    32b8 <.label6491>

00000000000032b8 <.label6491>:
    32b8:	eb 00                	jmp    32ba <.label6492>

00000000000032ba <.label6492>:
    32ba:	eb 00                	jmp    32bc <.label6493>

00000000000032bc <.label6493>:
    32bc:	eb 00                	jmp    32be <.label6494>

00000000000032be <.label6494>:
    32be:	eb 00                	jmp    32c0 <.label6495>

00000000000032c0 <.label6495>:
    32c0:	eb 00                	jmp    32c2 <.label6496>

00000000000032c2 <.label6496>:
    32c2:	eb 00                	jmp    32c4 <.label6497>

00000000000032c4 <.label6497>:
    32c4:	eb 00                	jmp    32c6 <.label6498>

00000000000032c6 <.label6498>:
    32c6:	eb 00                	jmp    32c8 <.label6499>

00000000000032c8 <.label6499>:
    32c8:	eb 00                	jmp    32ca <.label6500>

00000000000032ca <.label6500>:
    32ca:	eb 00                	jmp    32cc <.label6501>

00000000000032cc <.label6501>:
    32cc:	eb 00                	jmp    32ce <.label6502>

00000000000032ce <.label6502>:
    32ce:	eb 00                	jmp    32d0 <.label6503>

00000000000032d0 <.label6503>:
    32d0:	eb 00                	jmp    32d2 <.label6504>

00000000000032d2 <.label6504>:
    32d2:	eb 00                	jmp    32d4 <.label6505>

00000000000032d4 <.label6505>:
    32d4:	eb 00                	jmp    32d6 <.label6506>

00000000000032d6 <.label6506>:
    32d6:	eb 00                	jmp    32d8 <.label6507>

00000000000032d8 <.label6507>:
    32d8:	eb 00                	jmp    32da <.label6508>

00000000000032da <.label6508>:
    32da:	eb 00                	jmp    32dc <.label6509>

00000000000032dc <.label6509>:
    32dc:	eb 00                	jmp    32de <.label6510>

00000000000032de <.label6510>:
    32de:	eb 00                	jmp    32e0 <.label6511>

00000000000032e0 <.label6511>:
    32e0:	eb 00                	jmp    32e2 <.label6512>

00000000000032e2 <.label6512>:
    32e2:	eb 00                	jmp    32e4 <.label6513>

00000000000032e4 <.label6513>:
    32e4:	eb 00                	jmp    32e6 <.label6514>

00000000000032e6 <.label6514>:
    32e6:	eb 00                	jmp    32e8 <.label6515>

00000000000032e8 <.label6515>:
    32e8:	eb 00                	jmp    32ea <.label6516>

00000000000032ea <.label6516>:
    32ea:	eb 00                	jmp    32ec <.label6517>

00000000000032ec <.label6517>:
    32ec:	eb 00                	jmp    32ee <.label6518>

00000000000032ee <.label6518>:
    32ee:	eb 00                	jmp    32f0 <.label6519>

00000000000032f0 <.label6519>:
    32f0:	eb 00                	jmp    32f2 <.label6520>

00000000000032f2 <.label6520>:
    32f2:	eb 00                	jmp    32f4 <.label6521>

00000000000032f4 <.label6521>:
    32f4:	eb 00                	jmp    32f6 <.label6522>

00000000000032f6 <.label6522>:
    32f6:	eb 00                	jmp    32f8 <.label6523>

00000000000032f8 <.label6523>:
    32f8:	eb 00                	jmp    32fa <.label6524>

00000000000032fa <.label6524>:
    32fa:	eb 00                	jmp    32fc <.label6525>

00000000000032fc <.label6525>:
    32fc:	eb 00                	jmp    32fe <.label6526>

00000000000032fe <.label6526>:
    32fe:	eb 00                	jmp    3300 <.label6527>

0000000000003300 <.label6527>:
    3300:	eb 00                	jmp    3302 <.label6528>

0000000000003302 <.label6528>:
    3302:	eb 00                	jmp    3304 <.label6529>

0000000000003304 <.label6529>:
    3304:	eb 00                	jmp    3306 <.label6530>

0000000000003306 <.label6530>:
    3306:	eb 00                	jmp    3308 <.label6531>

0000000000003308 <.label6531>:
    3308:	eb 00                	jmp    330a <.label6532>

000000000000330a <.label6532>:
    330a:	eb 00                	jmp    330c <.label6533>

000000000000330c <.label6533>:
    330c:	eb 00                	jmp    330e <.label6534>

000000000000330e <.label6534>:
    330e:	eb 00                	jmp    3310 <.label6535>

0000000000003310 <.label6535>:
    3310:	eb 00                	jmp    3312 <.label6536>

0000000000003312 <.label6536>:
    3312:	eb 00                	jmp    3314 <.label6537>

0000000000003314 <.label6537>:
    3314:	eb 00                	jmp    3316 <.label6538>

0000000000003316 <.label6538>:
    3316:	eb 00                	jmp    3318 <.label6539>

0000000000003318 <.label6539>:
    3318:	eb 00                	jmp    331a <.label6540>

000000000000331a <.label6540>:
    331a:	eb 00                	jmp    331c <.label6541>

000000000000331c <.label6541>:
    331c:	eb 00                	jmp    331e <.label6542>

000000000000331e <.label6542>:
    331e:	eb 00                	jmp    3320 <.label6543>

0000000000003320 <.label6543>:
    3320:	eb 00                	jmp    3322 <.label6544>

0000000000003322 <.label6544>:
    3322:	eb 00                	jmp    3324 <.label6545>

0000000000003324 <.label6545>:
    3324:	eb 00                	jmp    3326 <.label6546>

0000000000003326 <.label6546>:
    3326:	eb 00                	jmp    3328 <.label6547>

0000000000003328 <.label6547>:
    3328:	eb 00                	jmp    332a <.label6548>

000000000000332a <.label6548>:
    332a:	eb 00                	jmp    332c <.label6549>

000000000000332c <.label6549>:
    332c:	eb 00                	jmp    332e <.label6550>

000000000000332e <.label6550>:
    332e:	eb 00                	jmp    3330 <.label6551>

0000000000003330 <.label6551>:
    3330:	eb 00                	jmp    3332 <.label6552>

0000000000003332 <.label6552>:
    3332:	eb 00                	jmp    3334 <.label6553>

0000000000003334 <.label6553>:
    3334:	eb 00                	jmp    3336 <.label6554>

0000000000003336 <.label6554>:
    3336:	eb 00                	jmp    3338 <.label6555>

0000000000003338 <.label6555>:
    3338:	eb 00                	jmp    333a <.label6556>

000000000000333a <.label6556>:
    333a:	eb 00                	jmp    333c <.label6557>

000000000000333c <.label6557>:
    333c:	eb 00                	jmp    333e <.label6558>

000000000000333e <.label6558>:
    333e:	eb 00                	jmp    3340 <.label6559>

0000000000003340 <.label6559>:
    3340:	eb 00                	jmp    3342 <.label6560>

0000000000003342 <.label6560>:
    3342:	eb 00                	jmp    3344 <.label6561>

0000000000003344 <.label6561>:
    3344:	eb 00                	jmp    3346 <.label6562>

0000000000003346 <.label6562>:
    3346:	eb 00                	jmp    3348 <.label6563>

0000000000003348 <.label6563>:
    3348:	eb 00                	jmp    334a <.label6564>

000000000000334a <.label6564>:
    334a:	eb 00                	jmp    334c <.label6565>

000000000000334c <.label6565>:
    334c:	eb 00                	jmp    334e <.label6566>

000000000000334e <.label6566>:
    334e:	eb 00                	jmp    3350 <.label6567>

0000000000003350 <.label6567>:
    3350:	eb 00                	jmp    3352 <.label6568>

0000000000003352 <.label6568>:
    3352:	eb 00                	jmp    3354 <.label6569>

0000000000003354 <.label6569>:
    3354:	eb 00                	jmp    3356 <.label6570>

0000000000003356 <.label6570>:
    3356:	eb 00                	jmp    3358 <.label6571>

0000000000003358 <.label6571>:
    3358:	eb 00                	jmp    335a <.label6572>

000000000000335a <.label6572>:
    335a:	eb 00                	jmp    335c <.label6573>

000000000000335c <.label6573>:
    335c:	eb 00                	jmp    335e <.label6574>

000000000000335e <.label6574>:
    335e:	eb 00                	jmp    3360 <.label6575>

0000000000003360 <.label6575>:
    3360:	eb 00                	jmp    3362 <.label6576>

0000000000003362 <.label6576>:
    3362:	eb 00                	jmp    3364 <.label6577>

0000000000003364 <.label6577>:
    3364:	eb 00                	jmp    3366 <.label6578>

0000000000003366 <.label6578>:
    3366:	eb 00                	jmp    3368 <.label6579>

0000000000003368 <.label6579>:
    3368:	eb 00                	jmp    336a <.label6580>

000000000000336a <.label6580>:
    336a:	eb 00                	jmp    336c <.label6581>

000000000000336c <.label6581>:
    336c:	eb 00                	jmp    336e <.label6582>

000000000000336e <.label6582>:
    336e:	eb 00                	jmp    3370 <.label6583>

0000000000003370 <.label6583>:
    3370:	eb 00                	jmp    3372 <.label6584>

0000000000003372 <.label6584>:
    3372:	eb 00                	jmp    3374 <.label6585>

0000000000003374 <.label6585>:
    3374:	eb 00                	jmp    3376 <.label6586>

0000000000003376 <.label6586>:
    3376:	eb 00                	jmp    3378 <.label6587>

0000000000003378 <.label6587>:
    3378:	eb 00                	jmp    337a <.label6588>

000000000000337a <.label6588>:
    337a:	eb 00                	jmp    337c <.label6589>

000000000000337c <.label6589>:
    337c:	eb 00                	jmp    337e <.label6590>

000000000000337e <.label6590>:
    337e:	eb 00                	jmp    3380 <.label6591>

0000000000003380 <.label6591>:
    3380:	eb 00                	jmp    3382 <.label6592>

0000000000003382 <.label6592>:
    3382:	eb 00                	jmp    3384 <.label6593>

0000000000003384 <.label6593>:
    3384:	eb 00                	jmp    3386 <.label6594>

0000000000003386 <.label6594>:
    3386:	eb 00                	jmp    3388 <.label6595>

0000000000003388 <.label6595>:
    3388:	eb 00                	jmp    338a <.label6596>

000000000000338a <.label6596>:
    338a:	eb 00                	jmp    338c <.label6597>

000000000000338c <.label6597>:
    338c:	eb 00                	jmp    338e <.label6598>

000000000000338e <.label6598>:
    338e:	eb 00                	jmp    3390 <.label6599>

0000000000003390 <.label6599>:
    3390:	eb 00                	jmp    3392 <.label6600>

0000000000003392 <.label6600>:
    3392:	eb 00                	jmp    3394 <.label6601>

0000000000003394 <.label6601>:
    3394:	eb 00                	jmp    3396 <.label6602>

0000000000003396 <.label6602>:
    3396:	eb 00                	jmp    3398 <.label6603>

0000000000003398 <.label6603>:
    3398:	eb 00                	jmp    339a <.label6604>

000000000000339a <.label6604>:
    339a:	eb 00                	jmp    339c <.label6605>

000000000000339c <.label6605>:
    339c:	eb 00                	jmp    339e <.label6606>

000000000000339e <.label6606>:
    339e:	eb 00                	jmp    33a0 <.label6607>

00000000000033a0 <.label6607>:
    33a0:	eb 00                	jmp    33a2 <.label6608>

00000000000033a2 <.label6608>:
    33a2:	eb 00                	jmp    33a4 <.label6609>

00000000000033a4 <.label6609>:
    33a4:	eb 00                	jmp    33a6 <.label6610>

00000000000033a6 <.label6610>:
    33a6:	eb 00                	jmp    33a8 <.label6611>

00000000000033a8 <.label6611>:
    33a8:	eb 00                	jmp    33aa <.label6612>

00000000000033aa <.label6612>:
    33aa:	eb 00                	jmp    33ac <.label6613>

00000000000033ac <.label6613>:
    33ac:	eb 00                	jmp    33ae <.label6614>

00000000000033ae <.label6614>:
    33ae:	eb 00                	jmp    33b0 <.label6615>

00000000000033b0 <.label6615>:
    33b0:	eb 00                	jmp    33b2 <.label6616>

00000000000033b2 <.label6616>:
    33b2:	eb 00                	jmp    33b4 <.label6617>

00000000000033b4 <.label6617>:
    33b4:	eb 00                	jmp    33b6 <.label6618>

00000000000033b6 <.label6618>:
    33b6:	eb 00                	jmp    33b8 <.label6619>

00000000000033b8 <.label6619>:
    33b8:	eb 00                	jmp    33ba <.label6620>

00000000000033ba <.label6620>:
    33ba:	eb 00                	jmp    33bc <.label6621>

00000000000033bc <.label6621>:
    33bc:	eb 00                	jmp    33be <.label6622>

00000000000033be <.label6622>:
    33be:	eb 00                	jmp    33c0 <.label6623>

00000000000033c0 <.label6623>:
    33c0:	eb 00                	jmp    33c2 <.label6624>

00000000000033c2 <.label6624>:
    33c2:	eb 00                	jmp    33c4 <.label6625>

00000000000033c4 <.label6625>:
    33c4:	eb 00                	jmp    33c6 <.label6626>

00000000000033c6 <.label6626>:
    33c6:	eb 00                	jmp    33c8 <.label6627>

00000000000033c8 <.label6627>:
    33c8:	eb 00                	jmp    33ca <.label6628>

00000000000033ca <.label6628>:
    33ca:	eb 00                	jmp    33cc <.label6629>

00000000000033cc <.label6629>:
    33cc:	eb 00                	jmp    33ce <.label6630>

00000000000033ce <.label6630>:
    33ce:	eb 00                	jmp    33d0 <.label6631>

00000000000033d0 <.label6631>:
    33d0:	eb 00                	jmp    33d2 <.label6632>

00000000000033d2 <.label6632>:
    33d2:	eb 00                	jmp    33d4 <.label6633>

00000000000033d4 <.label6633>:
    33d4:	eb 00                	jmp    33d6 <.label6634>

00000000000033d6 <.label6634>:
    33d6:	eb 00                	jmp    33d8 <.label6635>

00000000000033d8 <.label6635>:
    33d8:	eb 00                	jmp    33da <.label6636>

00000000000033da <.label6636>:
    33da:	eb 00                	jmp    33dc <.label6637>

00000000000033dc <.label6637>:
    33dc:	eb 00                	jmp    33de <.label6638>

00000000000033de <.label6638>:
    33de:	eb 00                	jmp    33e0 <.label6639>

00000000000033e0 <.label6639>:
    33e0:	eb 00                	jmp    33e2 <.label6640>

00000000000033e2 <.label6640>:
    33e2:	eb 00                	jmp    33e4 <.label6641>

00000000000033e4 <.label6641>:
    33e4:	eb 00                	jmp    33e6 <.label6642>

00000000000033e6 <.label6642>:
    33e6:	eb 00                	jmp    33e8 <.label6643>

00000000000033e8 <.label6643>:
    33e8:	eb 00                	jmp    33ea <.label6644>

00000000000033ea <.label6644>:
    33ea:	eb 00                	jmp    33ec <.label6645>

00000000000033ec <.label6645>:
    33ec:	eb 00                	jmp    33ee <.label6646>

00000000000033ee <.label6646>:
    33ee:	eb 00                	jmp    33f0 <.label6647>

00000000000033f0 <.label6647>:
    33f0:	eb 00                	jmp    33f2 <.label6648>

00000000000033f2 <.label6648>:
    33f2:	eb 00                	jmp    33f4 <.label6649>

00000000000033f4 <.label6649>:
    33f4:	eb 00                	jmp    33f6 <.label6650>

00000000000033f6 <.label6650>:
    33f6:	eb 00                	jmp    33f8 <.label6651>

00000000000033f8 <.label6651>:
    33f8:	eb 00                	jmp    33fa <.label6652>

00000000000033fa <.label6652>:
    33fa:	eb 00                	jmp    33fc <.label6653>

00000000000033fc <.label6653>:
    33fc:	eb 00                	jmp    33fe <.label6654>

00000000000033fe <.label6654>:
    33fe:	eb 00                	jmp    3400 <.label6655>

0000000000003400 <.label6655>:
    3400:	eb 00                	jmp    3402 <.label6656>

0000000000003402 <.label6656>:
    3402:	eb 00                	jmp    3404 <.label6657>

0000000000003404 <.label6657>:
    3404:	eb 00                	jmp    3406 <.label6658>

0000000000003406 <.label6658>:
    3406:	eb 00                	jmp    3408 <.label6659>

0000000000003408 <.label6659>:
    3408:	eb 00                	jmp    340a <.label6660>

000000000000340a <.label6660>:
    340a:	eb 00                	jmp    340c <.label6661>

000000000000340c <.label6661>:
    340c:	eb 00                	jmp    340e <.label6662>

000000000000340e <.label6662>:
    340e:	eb 00                	jmp    3410 <.label6663>

0000000000003410 <.label6663>:
    3410:	eb 00                	jmp    3412 <.label6664>

0000000000003412 <.label6664>:
    3412:	eb 00                	jmp    3414 <.label6665>

0000000000003414 <.label6665>:
    3414:	eb 00                	jmp    3416 <.label6666>

0000000000003416 <.label6666>:
    3416:	eb 00                	jmp    3418 <.label6667>

0000000000003418 <.label6667>:
    3418:	eb 00                	jmp    341a <.label6668>

000000000000341a <.label6668>:
    341a:	eb 00                	jmp    341c <.label6669>

000000000000341c <.label6669>:
    341c:	eb 00                	jmp    341e <.label6670>

000000000000341e <.label6670>:
    341e:	eb 00                	jmp    3420 <.label6671>

0000000000003420 <.label6671>:
    3420:	eb 00                	jmp    3422 <.label6672>

0000000000003422 <.label6672>:
    3422:	eb 00                	jmp    3424 <.label6673>

0000000000003424 <.label6673>:
    3424:	eb 00                	jmp    3426 <.label6674>

0000000000003426 <.label6674>:
    3426:	eb 00                	jmp    3428 <.label6675>

0000000000003428 <.label6675>:
    3428:	eb 00                	jmp    342a <.label6676>

000000000000342a <.label6676>:
    342a:	eb 00                	jmp    342c <.label6677>

000000000000342c <.label6677>:
    342c:	eb 00                	jmp    342e <.label6678>

000000000000342e <.label6678>:
    342e:	eb 00                	jmp    3430 <.label6679>

0000000000003430 <.label6679>:
    3430:	eb 00                	jmp    3432 <.label6680>

0000000000003432 <.label6680>:
    3432:	eb 00                	jmp    3434 <.label6681>

0000000000003434 <.label6681>:
    3434:	eb 00                	jmp    3436 <.label6682>

0000000000003436 <.label6682>:
    3436:	eb 00                	jmp    3438 <.label6683>

0000000000003438 <.label6683>:
    3438:	eb 00                	jmp    343a <.label6684>

000000000000343a <.label6684>:
    343a:	eb 00                	jmp    343c <.label6685>

000000000000343c <.label6685>:
    343c:	eb 00                	jmp    343e <.label6686>

000000000000343e <.label6686>:
    343e:	eb 00                	jmp    3440 <.label6687>

0000000000003440 <.label6687>:
    3440:	eb 00                	jmp    3442 <.label6688>

0000000000003442 <.label6688>:
    3442:	eb 00                	jmp    3444 <.label6689>

0000000000003444 <.label6689>:
    3444:	eb 00                	jmp    3446 <.label6690>

0000000000003446 <.label6690>:
    3446:	eb 00                	jmp    3448 <.label6691>

0000000000003448 <.label6691>:
    3448:	eb 00                	jmp    344a <.label6692>

000000000000344a <.label6692>:
    344a:	eb 00                	jmp    344c <.label6693>

000000000000344c <.label6693>:
    344c:	eb 00                	jmp    344e <.label6694>

000000000000344e <.label6694>:
    344e:	eb 00                	jmp    3450 <.label6695>

0000000000003450 <.label6695>:
    3450:	eb 00                	jmp    3452 <.label6696>

0000000000003452 <.label6696>:
    3452:	eb 00                	jmp    3454 <.label6697>

0000000000003454 <.label6697>:
    3454:	eb 00                	jmp    3456 <.label6698>

0000000000003456 <.label6698>:
    3456:	eb 00                	jmp    3458 <.label6699>

0000000000003458 <.label6699>:
    3458:	eb 00                	jmp    345a <.label6700>

000000000000345a <.label6700>:
    345a:	eb 00                	jmp    345c <.label6701>

000000000000345c <.label6701>:
    345c:	eb 00                	jmp    345e <.label6702>

000000000000345e <.label6702>:
    345e:	eb 00                	jmp    3460 <.label6703>

0000000000003460 <.label6703>:
    3460:	eb 00                	jmp    3462 <.label6704>

0000000000003462 <.label6704>:
    3462:	eb 00                	jmp    3464 <.label6705>

0000000000003464 <.label6705>:
    3464:	eb 00                	jmp    3466 <.label6706>

0000000000003466 <.label6706>:
    3466:	eb 00                	jmp    3468 <.label6707>

0000000000003468 <.label6707>:
    3468:	eb 00                	jmp    346a <.label6708>

000000000000346a <.label6708>:
    346a:	eb 00                	jmp    346c <.label6709>

000000000000346c <.label6709>:
    346c:	eb 00                	jmp    346e <.label6710>

000000000000346e <.label6710>:
    346e:	eb 00                	jmp    3470 <.label6711>

0000000000003470 <.label6711>:
    3470:	eb 00                	jmp    3472 <.label6712>

0000000000003472 <.label6712>:
    3472:	eb 00                	jmp    3474 <.label6713>

0000000000003474 <.label6713>:
    3474:	eb 00                	jmp    3476 <.label6714>

0000000000003476 <.label6714>:
    3476:	eb 00                	jmp    3478 <.label6715>

0000000000003478 <.label6715>:
    3478:	eb 00                	jmp    347a <.label6716>

000000000000347a <.label6716>:
    347a:	eb 00                	jmp    347c <.label6717>

000000000000347c <.label6717>:
    347c:	eb 00                	jmp    347e <.label6718>

000000000000347e <.label6718>:
    347e:	eb 00                	jmp    3480 <.label6719>

0000000000003480 <.label6719>:
    3480:	eb 00                	jmp    3482 <.label6720>

0000000000003482 <.label6720>:
    3482:	eb 00                	jmp    3484 <.label6721>

0000000000003484 <.label6721>:
    3484:	eb 00                	jmp    3486 <.label6722>

0000000000003486 <.label6722>:
    3486:	eb 00                	jmp    3488 <.label6723>

0000000000003488 <.label6723>:
    3488:	eb 00                	jmp    348a <.label6724>

000000000000348a <.label6724>:
    348a:	eb 00                	jmp    348c <.label6725>

000000000000348c <.label6725>:
    348c:	eb 00                	jmp    348e <.label6726>

000000000000348e <.label6726>:
    348e:	eb 00                	jmp    3490 <.label6727>

0000000000003490 <.label6727>:
    3490:	eb 00                	jmp    3492 <.label6728>

0000000000003492 <.label6728>:
    3492:	eb 00                	jmp    3494 <.label6729>

0000000000003494 <.label6729>:
    3494:	eb 00                	jmp    3496 <.label6730>

0000000000003496 <.label6730>:
    3496:	eb 00                	jmp    3498 <.label6731>

0000000000003498 <.label6731>:
    3498:	eb 00                	jmp    349a <.label6732>

000000000000349a <.label6732>:
    349a:	eb 00                	jmp    349c <.label6733>

000000000000349c <.label6733>:
    349c:	eb 00                	jmp    349e <.label6734>

000000000000349e <.label6734>:
    349e:	eb 00                	jmp    34a0 <.label6735>

00000000000034a0 <.label6735>:
    34a0:	eb 00                	jmp    34a2 <.label6736>

00000000000034a2 <.label6736>:
    34a2:	eb 00                	jmp    34a4 <.label6737>

00000000000034a4 <.label6737>:
    34a4:	eb 00                	jmp    34a6 <.label6738>

00000000000034a6 <.label6738>:
    34a6:	eb 00                	jmp    34a8 <.label6739>

00000000000034a8 <.label6739>:
    34a8:	eb 00                	jmp    34aa <.label6740>

00000000000034aa <.label6740>:
    34aa:	eb 00                	jmp    34ac <.label6741>

00000000000034ac <.label6741>:
    34ac:	eb 00                	jmp    34ae <.label6742>

00000000000034ae <.label6742>:
    34ae:	eb 00                	jmp    34b0 <.label6743>

00000000000034b0 <.label6743>:
    34b0:	eb 00                	jmp    34b2 <.label6744>

00000000000034b2 <.label6744>:
    34b2:	eb 00                	jmp    34b4 <.label6745>

00000000000034b4 <.label6745>:
    34b4:	eb 00                	jmp    34b6 <.label6746>

00000000000034b6 <.label6746>:
    34b6:	eb 00                	jmp    34b8 <.label6747>

00000000000034b8 <.label6747>:
    34b8:	eb 00                	jmp    34ba <.label6748>

00000000000034ba <.label6748>:
    34ba:	eb 00                	jmp    34bc <.label6749>

00000000000034bc <.label6749>:
    34bc:	eb 00                	jmp    34be <.label6750>

00000000000034be <.label6750>:
    34be:	eb 00                	jmp    34c0 <.label6751>

00000000000034c0 <.label6751>:
    34c0:	eb 00                	jmp    34c2 <.label6752>

00000000000034c2 <.label6752>:
    34c2:	eb 00                	jmp    34c4 <.label6753>

00000000000034c4 <.label6753>:
    34c4:	eb 00                	jmp    34c6 <.label6754>

00000000000034c6 <.label6754>:
    34c6:	eb 00                	jmp    34c8 <.label6755>

00000000000034c8 <.label6755>:
    34c8:	eb 00                	jmp    34ca <.label6756>

00000000000034ca <.label6756>:
    34ca:	eb 00                	jmp    34cc <.label6757>

00000000000034cc <.label6757>:
    34cc:	eb 00                	jmp    34ce <.label6758>

00000000000034ce <.label6758>:
    34ce:	eb 00                	jmp    34d0 <.label6759>

00000000000034d0 <.label6759>:
    34d0:	eb 00                	jmp    34d2 <.label6760>

00000000000034d2 <.label6760>:
    34d2:	eb 00                	jmp    34d4 <.label6761>

00000000000034d4 <.label6761>:
    34d4:	eb 00                	jmp    34d6 <.label6762>

00000000000034d6 <.label6762>:
    34d6:	eb 00                	jmp    34d8 <.label6763>

00000000000034d8 <.label6763>:
    34d8:	eb 00                	jmp    34da <.label6764>

00000000000034da <.label6764>:
    34da:	eb 00                	jmp    34dc <.label6765>

00000000000034dc <.label6765>:
    34dc:	eb 00                	jmp    34de <.label6766>

00000000000034de <.label6766>:
    34de:	eb 00                	jmp    34e0 <.label6767>

00000000000034e0 <.label6767>:
    34e0:	eb 00                	jmp    34e2 <.label6768>

00000000000034e2 <.label6768>:
    34e2:	eb 00                	jmp    34e4 <.label6769>

00000000000034e4 <.label6769>:
    34e4:	eb 00                	jmp    34e6 <.label6770>

00000000000034e6 <.label6770>:
    34e6:	eb 00                	jmp    34e8 <.label6771>

00000000000034e8 <.label6771>:
    34e8:	eb 00                	jmp    34ea <.label6772>

00000000000034ea <.label6772>:
    34ea:	eb 00                	jmp    34ec <.label6773>

00000000000034ec <.label6773>:
    34ec:	eb 00                	jmp    34ee <.label6774>

00000000000034ee <.label6774>:
    34ee:	eb 00                	jmp    34f0 <.label6775>

00000000000034f0 <.label6775>:
    34f0:	eb 00                	jmp    34f2 <.label6776>

00000000000034f2 <.label6776>:
    34f2:	eb 00                	jmp    34f4 <.label6777>

00000000000034f4 <.label6777>:
    34f4:	eb 00                	jmp    34f6 <.label6778>

00000000000034f6 <.label6778>:
    34f6:	eb 00                	jmp    34f8 <.label6779>

00000000000034f8 <.label6779>:
    34f8:	eb 00                	jmp    34fa <.label6780>

00000000000034fa <.label6780>:
    34fa:	eb 00                	jmp    34fc <.label6781>

00000000000034fc <.label6781>:
    34fc:	eb 00                	jmp    34fe <.label6782>

00000000000034fe <.label6782>:
    34fe:	eb 00                	jmp    3500 <.label6783>

0000000000003500 <.label6783>:
    3500:	eb 00                	jmp    3502 <.label6784>

0000000000003502 <.label6784>:
    3502:	eb 00                	jmp    3504 <.label6785>

0000000000003504 <.label6785>:
    3504:	eb 00                	jmp    3506 <.label6786>

0000000000003506 <.label6786>:
    3506:	eb 00                	jmp    3508 <.label6787>

0000000000003508 <.label6787>:
    3508:	eb 00                	jmp    350a <.label6788>

000000000000350a <.label6788>:
    350a:	eb 00                	jmp    350c <.label6789>

000000000000350c <.label6789>:
    350c:	eb 00                	jmp    350e <.label6790>

000000000000350e <.label6790>:
    350e:	eb 00                	jmp    3510 <.label6791>

0000000000003510 <.label6791>:
    3510:	eb 00                	jmp    3512 <.label6792>

0000000000003512 <.label6792>:
    3512:	eb 00                	jmp    3514 <.label6793>

0000000000003514 <.label6793>:
    3514:	eb 00                	jmp    3516 <.label6794>

0000000000003516 <.label6794>:
    3516:	eb 00                	jmp    3518 <.label6795>

0000000000003518 <.label6795>:
    3518:	eb 00                	jmp    351a <.label6796>

000000000000351a <.label6796>:
    351a:	eb 00                	jmp    351c <.label6797>

000000000000351c <.label6797>:
    351c:	eb 00                	jmp    351e <.label6798>

000000000000351e <.label6798>:
    351e:	eb 00                	jmp    3520 <.label6799>

0000000000003520 <.label6799>:
    3520:	eb 00                	jmp    3522 <.label6800>

0000000000003522 <.label6800>:
    3522:	eb 00                	jmp    3524 <.label6801>

0000000000003524 <.label6801>:
    3524:	eb 00                	jmp    3526 <.label6802>

0000000000003526 <.label6802>:
    3526:	eb 00                	jmp    3528 <.label6803>

0000000000003528 <.label6803>:
    3528:	eb 00                	jmp    352a <.label6804>

000000000000352a <.label6804>:
    352a:	eb 00                	jmp    352c <.label6805>

000000000000352c <.label6805>:
    352c:	eb 00                	jmp    352e <.label6806>

000000000000352e <.label6806>:
    352e:	eb 00                	jmp    3530 <.label6807>

0000000000003530 <.label6807>:
    3530:	eb 00                	jmp    3532 <.label6808>

0000000000003532 <.label6808>:
    3532:	eb 00                	jmp    3534 <.label6809>

0000000000003534 <.label6809>:
    3534:	eb 00                	jmp    3536 <.label6810>

0000000000003536 <.label6810>:
    3536:	eb 00                	jmp    3538 <.label6811>

0000000000003538 <.label6811>:
    3538:	eb 00                	jmp    353a <.label6812>

000000000000353a <.label6812>:
    353a:	eb 00                	jmp    353c <.label6813>

000000000000353c <.label6813>:
    353c:	eb 00                	jmp    353e <.label6814>

000000000000353e <.label6814>:
    353e:	eb 00                	jmp    3540 <.label6815>

0000000000003540 <.label6815>:
    3540:	eb 00                	jmp    3542 <.label6816>

0000000000003542 <.label6816>:
    3542:	eb 00                	jmp    3544 <.label6817>

0000000000003544 <.label6817>:
    3544:	eb 00                	jmp    3546 <.label6818>

0000000000003546 <.label6818>:
    3546:	eb 00                	jmp    3548 <.label6819>

0000000000003548 <.label6819>:
    3548:	eb 00                	jmp    354a <.label6820>

000000000000354a <.label6820>:
    354a:	eb 00                	jmp    354c <.label6821>

000000000000354c <.label6821>:
    354c:	eb 00                	jmp    354e <.label6822>

000000000000354e <.label6822>:
    354e:	eb 00                	jmp    3550 <.label6823>

0000000000003550 <.label6823>:
    3550:	eb 00                	jmp    3552 <.label6824>

0000000000003552 <.label6824>:
    3552:	eb 00                	jmp    3554 <.label6825>

0000000000003554 <.label6825>:
    3554:	eb 00                	jmp    3556 <.label6826>

0000000000003556 <.label6826>:
    3556:	eb 00                	jmp    3558 <.label6827>

0000000000003558 <.label6827>:
    3558:	eb 00                	jmp    355a <.label6828>

000000000000355a <.label6828>:
    355a:	eb 00                	jmp    355c <.label6829>

000000000000355c <.label6829>:
    355c:	eb 00                	jmp    355e <.label6830>

000000000000355e <.label6830>:
    355e:	eb 00                	jmp    3560 <.label6831>

0000000000003560 <.label6831>:
    3560:	eb 00                	jmp    3562 <.label6832>

0000000000003562 <.label6832>:
    3562:	eb 00                	jmp    3564 <.label6833>

0000000000003564 <.label6833>:
    3564:	eb 00                	jmp    3566 <.label6834>

0000000000003566 <.label6834>:
    3566:	eb 00                	jmp    3568 <.label6835>

0000000000003568 <.label6835>:
    3568:	eb 00                	jmp    356a <.label6836>

000000000000356a <.label6836>:
    356a:	eb 00                	jmp    356c <.label6837>

000000000000356c <.label6837>:
    356c:	eb 00                	jmp    356e <.label6838>

000000000000356e <.label6838>:
    356e:	eb 00                	jmp    3570 <.label6839>

0000000000003570 <.label6839>:
    3570:	eb 00                	jmp    3572 <.label6840>

0000000000003572 <.label6840>:
    3572:	eb 00                	jmp    3574 <.label6841>

0000000000003574 <.label6841>:
    3574:	eb 00                	jmp    3576 <.label6842>

0000000000003576 <.label6842>:
    3576:	eb 00                	jmp    3578 <.label6843>

0000000000003578 <.label6843>:
    3578:	eb 00                	jmp    357a <.label6844>

000000000000357a <.label6844>:
    357a:	eb 00                	jmp    357c <.label6845>

000000000000357c <.label6845>:
    357c:	eb 00                	jmp    357e <.label6846>

000000000000357e <.label6846>:
    357e:	eb 00                	jmp    3580 <.label6847>

0000000000003580 <.label6847>:
    3580:	eb 00                	jmp    3582 <.label6848>

0000000000003582 <.label6848>:
    3582:	eb 00                	jmp    3584 <.label6849>

0000000000003584 <.label6849>:
    3584:	eb 00                	jmp    3586 <.label6850>

0000000000003586 <.label6850>:
    3586:	eb 00                	jmp    3588 <.label6851>

0000000000003588 <.label6851>:
    3588:	eb 00                	jmp    358a <.label6852>

000000000000358a <.label6852>:
    358a:	eb 00                	jmp    358c <.label6853>

000000000000358c <.label6853>:
    358c:	eb 00                	jmp    358e <.label6854>

000000000000358e <.label6854>:
    358e:	eb 00                	jmp    3590 <.label6855>

0000000000003590 <.label6855>:
    3590:	eb 00                	jmp    3592 <.label6856>

0000000000003592 <.label6856>:
    3592:	eb 00                	jmp    3594 <.label6857>

0000000000003594 <.label6857>:
    3594:	eb 00                	jmp    3596 <.label6858>

0000000000003596 <.label6858>:
    3596:	eb 00                	jmp    3598 <.label6859>

0000000000003598 <.label6859>:
    3598:	eb 00                	jmp    359a <.label6860>

000000000000359a <.label6860>:
    359a:	eb 00                	jmp    359c <.label6861>

000000000000359c <.label6861>:
    359c:	eb 00                	jmp    359e <.label6862>

000000000000359e <.label6862>:
    359e:	eb 00                	jmp    35a0 <.label6863>

00000000000035a0 <.label6863>:
    35a0:	eb 00                	jmp    35a2 <.label6864>

00000000000035a2 <.label6864>:
    35a2:	eb 00                	jmp    35a4 <.label6865>

00000000000035a4 <.label6865>:
    35a4:	eb 00                	jmp    35a6 <.label6866>

00000000000035a6 <.label6866>:
    35a6:	eb 00                	jmp    35a8 <.label6867>

00000000000035a8 <.label6867>:
    35a8:	eb 00                	jmp    35aa <.label6868>

00000000000035aa <.label6868>:
    35aa:	eb 00                	jmp    35ac <.label6869>

00000000000035ac <.label6869>:
    35ac:	eb 00                	jmp    35ae <.label6870>

00000000000035ae <.label6870>:
    35ae:	eb 00                	jmp    35b0 <.label6871>

00000000000035b0 <.label6871>:
    35b0:	eb 00                	jmp    35b2 <.label6872>

00000000000035b2 <.label6872>:
    35b2:	eb 00                	jmp    35b4 <.label6873>

00000000000035b4 <.label6873>:
    35b4:	eb 00                	jmp    35b6 <.label6874>

00000000000035b6 <.label6874>:
    35b6:	eb 00                	jmp    35b8 <.label6875>

00000000000035b8 <.label6875>:
    35b8:	eb 00                	jmp    35ba <.label6876>

00000000000035ba <.label6876>:
    35ba:	eb 00                	jmp    35bc <.label6877>

00000000000035bc <.label6877>:
    35bc:	eb 00                	jmp    35be <.label6878>

00000000000035be <.label6878>:
    35be:	eb 00                	jmp    35c0 <.label6879>

00000000000035c0 <.label6879>:
    35c0:	eb 00                	jmp    35c2 <.label6880>

00000000000035c2 <.label6880>:
    35c2:	eb 00                	jmp    35c4 <.label6881>

00000000000035c4 <.label6881>:
    35c4:	eb 00                	jmp    35c6 <.label6882>

00000000000035c6 <.label6882>:
    35c6:	eb 00                	jmp    35c8 <.label6883>

00000000000035c8 <.label6883>:
    35c8:	eb 00                	jmp    35ca <.label6884>

00000000000035ca <.label6884>:
    35ca:	eb 00                	jmp    35cc <.label6885>

00000000000035cc <.label6885>:
    35cc:	eb 00                	jmp    35ce <.label6886>

00000000000035ce <.label6886>:
    35ce:	eb 00                	jmp    35d0 <.label6887>

00000000000035d0 <.label6887>:
    35d0:	eb 00                	jmp    35d2 <.label6888>

00000000000035d2 <.label6888>:
    35d2:	eb 00                	jmp    35d4 <.label6889>

00000000000035d4 <.label6889>:
    35d4:	eb 00                	jmp    35d6 <.label6890>

00000000000035d6 <.label6890>:
    35d6:	eb 00                	jmp    35d8 <.label6891>

00000000000035d8 <.label6891>:
    35d8:	eb 00                	jmp    35da <.label6892>

00000000000035da <.label6892>:
    35da:	eb 00                	jmp    35dc <.label6893>

00000000000035dc <.label6893>:
    35dc:	eb 00                	jmp    35de <.label6894>

00000000000035de <.label6894>:
    35de:	eb 00                	jmp    35e0 <.label6895>

00000000000035e0 <.label6895>:
    35e0:	eb 00                	jmp    35e2 <.label6896>

00000000000035e2 <.label6896>:
    35e2:	eb 00                	jmp    35e4 <.label6897>

00000000000035e4 <.label6897>:
    35e4:	eb 00                	jmp    35e6 <.label6898>

00000000000035e6 <.label6898>:
    35e6:	eb 00                	jmp    35e8 <.label6899>

00000000000035e8 <.label6899>:
    35e8:	eb 00                	jmp    35ea <.label6900>

00000000000035ea <.label6900>:
    35ea:	eb 00                	jmp    35ec <.label6901>

00000000000035ec <.label6901>:
    35ec:	eb 00                	jmp    35ee <.label6902>

00000000000035ee <.label6902>:
    35ee:	eb 00                	jmp    35f0 <.label6903>

00000000000035f0 <.label6903>:
    35f0:	eb 00                	jmp    35f2 <.label6904>

00000000000035f2 <.label6904>:
    35f2:	eb 00                	jmp    35f4 <.label6905>

00000000000035f4 <.label6905>:
    35f4:	eb 00                	jmp    35f6 <.label6906>

00000000000035f6 <.label6906>:
    35f6:	eb 00                	jmp    35f8 <.label6907>

00000000000035f8 <.label6907>:
    35f8:	eb 00                	jmp    35fa <.label6908>

00000000000035fa <.label6908>:
    35fa:	eb 00                	jmp    35fc <.label6909>

00000000000035fc <.label6909>:
    35fc:	eb 00                	jmp    35fe <.label6910>

00000000000035fe <.label6910>:
    35fe:	eb 00                	jmp    3600 <.label6911>

0000000000003600 <.label6911>:
    3600:	eb 00                	jmp    3602 <.label6912>

0000000000003602 <.label6912>:
    3602:	eb 00                	jmp    3604 <.label6913>

0000000000003604 <.label6913>:
    3604:	eb 00                	jmp    3606 <.label6914>

0000000000003606 <.label6914>:
    3606:	eb 00                	jmp    3608 <.label6915>

0000000000003608 <.label6915>:
    3608:	eb 00                	jmp    360a <.label6916>

000000000000360a <.label6916>:
    360a:	eb 00                	jmp    360c <.label6917>

000000000000360c <.label6917>:
    360c:	eb 00                	jmp    360e <.label6918>

000000000000360e <.label6918>:
    360e:	eb 00                	jmp    3610 <.label6919>

0000000000003610 <.label6919>:
    3610:	eb 00                	jmp    3612 <.label6920>

0000000000003612 <.label6920>:
    3612:	eb 00                	jmp    3614 <.label6921>

0000000000003614 <.label6921>:
    3614:	eb 00                	jmp    3616 <.label6922>

0000000000003616 <.label6922>:
    3616:	eb 00                	jmp    3618 <.label6923>

0000000000003618 <.label6923>:
    3618:	eb 00                	jmp    361a <.label6924>

000000000000361a <.label6924>:
    361a:	eb 00                	jmp    361c <.label6925>

000000000000361c <.label6925>:
    361c:	eb 00                	jmp    361e <.label6926>

000000000000361e <.label6926>:
    361e:	eb 00                	jmp    3620 <.label6927>

0000000000003620 <.label6927>:
    3620:	eb 00                	jmp    3622 <.label6928>

0000000000003622 <.label6928>:
    3622:	eb 00                	jmp    3624 <.label6929>

0000000000003624 <.label6929>:
    3624:	eb 00                	jmp    3626 <.label6930>

0000000000003626 <.label6930>:
    3626:	eb 00                	jmp    3628 <.label6931>

0000000000003628 <.label6931>:
    3628:	eb 00                	jmp    362a <.label6932>

000000000000362a <.label6932>:
    362a:	eb 00                	jmp    362c <.label6933>

000000000000362c <.label6933>:
    362c:	eb 00                	jmp    362e <.label6934>

000000000000362e <.label6934>:
    362e:	eb 00                	jmp    3630 <.label6935>

0000000000003630 <.label6935>:
    3630:	eb 00                	jmp    3632 <.label6936>

0000000000003632 <.label6936>:
    3632:	eb 00                	jmp    3634 <.label6937>

0000000000003634 <.label6937>:
    3634:	eb 00                	jmp    3636 <.label6938>

0000000000003636 <.label6938>:
    3636:	eb 00                	jmp    3638 <.label6939>

0000000000003638 <.label6939>:
    3638:	eb 00                	jmp    363a <.label6940>

000000000000363a <.label6940>:
    363a:	eb 00                	jmp    363c <.label6941>

000000000000363c <.label6941>:
    363c:	eb 00                	jmp    363e <.label6942>

000000000000363e <.label6942>:
    363e:	eb 00                	jmp    3640 <.label6943>

0000000000003640 <.label6943>:
    3640:	eb 00                	jmp    3642 <.label6944>

0000000000003642 <.label6944>:
    3642:	eb 00                	jmp    3644 <.label6945>

0000000000003644 <.label6945>:
    3644:	eb 00                	jmp    3646 <.label6946>

0000000000003646 <.label6946>:
    3646:	eb 00                	jmp    3648 <.label6947>

0000000000003648 <.label6947>:
    3648:	eb 00                	jmp    364a <.label6948>

000000000000364a <.label6948>:
    364a:	eb 00                	jmp    364c <.label6949>

000000000000364c <.label6949>:
    364c:	eb 00                	jmp    364e <.label6950>

000000000000364e <.label6950>:
    364e:	eb 00                	jmp    3650 <.label6951>

0000000000003650 <.label6951>:
    3650:	eb 00                	jmp    3652 <.label6952>

0000000000003652 <.label6952>:
    3652:	eb 00                	jmp    3654 <.label6953>

0000000000003654 <.label6953>:
    3654:	eb 00                	jmp    3656 <.label6954>

0000000000003656 <.label6954>:
    3656:	eb 00                	jmp    3658 <.label6955>

0000000000003658 <.label6955>:
    3658:	eb 00                	jmp    365a <.label6956>

000000000000365a <.label6956>:
    365a:	eb 00                	jmp    365c <.label6957>

000000000000365c <.label6957>:
    365c:	eb 00                	jmp    365e <.label6958>

000000000000365e <.label6958>:
    365e:	eb 00                	jmp    3660 <.label6959>

0000000000003660 <.label6959>:
    3660:	eb 00                	jmp    3662 <.label6960>

0000000000003662 <.label6960>:
    3662:	eb 00                	jmp    3664 <.label6961>

0000000000003664 <.label6961>:
    3664:	eb 00                	jmp    3666 <.label6962>

0000000000003666 <.label6962>:
    3666:	eb 00                	jmp    3668 <.label6963>

0000000000003668 <.label6963>:
    3668:	eb 00                	jmp    366a <.label6964>

000000000000366a <.label6964>:
    366a:	eb 00                	jmp    366c <.label6965>

000000000000366c <.label6965>:
    366c:	eb 00                	jmp    366e <.label6966>

000000000000366e <.label6966>:
    366e:	eb 00                	jmp    3670 <.label6967>

0000000000003670 <.label6967>:
    3670:	eb 00                	jmp    3672 <.label6968>

0000000000003672 <.label6968>:
    3672:	eb 00                	jmp    3674 <.label6969>

0000000000003674 <.label6969>:
    3674:	eb 00                	jmp    3676 <.label6970>

0000000000003676 <.label6970>:
    3676:	eb 00                	jmp    3678 <.label6971>

0000000000003678 <.label6971>:
    3678:	eb 00                	jmp    367a <.label6972>

000000000000367a <.label6972>:
    367a:	eb 00                	jmp    367c <.label6973>

000000000000367c <.label6973>:
    367c:	eb 00                	jmp    367e <.label6974>

000000000000367e <.label6974>:
    367e:	eb 00                	jmp    3680 <.label6975>

0000000000003680 <.label6975>:
    3680:	eb 00                	jmp    3682 <.label6976>

0000000000003682 <.label6976>:
    3682:	eb 00                	jmp    3684 <.label6977>

0000000000003684 <.label6977>:
    3684:	eb 00                	jmp    3686 <.label6978>

0000000000003686 <.label6978>:
    3686:	eb 00                	jmp    3688 <.label6979>

0000000000003688 <.label6979>:
    3688:	eb 00                	jmp    368a <.label6980>

000000000000368a <.label6980>:
    368a:	eb 00                	jmp    368c <.label6981>

000000000000368c <.label6981>:
    368c:	eb 00                	jmp    368e <.label6982>

000000000000368e <.label6982>:
    368e:	eb 00                	jmp    3690 <.label6983>

0000000000003690 <.label6983>:
    3690:	eb 00                	jmp    3692 <.label6984>

0000000000003692 <.label6984>:
    3692:	eb 00                	jmp    3694 <.label6985>

0000000000003694 <.label6985>:
    3694:	eb 00                	jmp    3696 <.label6986>

0000000000003696 <.label6986>:
    3696:	eb 00                	jmp    3698 <.label6987>

0000000000003698 <.label6987>:
    3698:	eb 00                	jmp    369a <.label6988>

000000000000369a <.label6988>:
    369a:	eb 00                	jmp    369c <.label6989>

000000000000369c <.label6989>:
    369c:	eb 00                	jmp    369e <.label6990>

000000000000369e <.label6990>:
    369e:	eb 00                	jmp    36a0 <.label6991>

00000000000036a0 <.label6991>:
    36a0:	eb 00                	jmp    36a2 <.label6992>

00000000000036a2 <.label6992>:
    36a2:	eb 00                	jmp    36a4 <.label6993>

00000000000036a4 <.label6993>:
    36a4:	eb 00                	jmp    36a6 <.label6994>

00000000000036a6 <.label6994>:
    36a6:	eb 00                	jmp    36a8 <.label6995>

00000000000036a8 <.label6995>:
    36a8:	eb 00                	jmp    36aa <.label6996>

00000000000036aa <.label6996>:
    36aa:	eb 00                	jmp    36ac <.label6997>

00000000000036ac <.label6997>:
    36ac:	eb 00                	jmp    36ae <.label6998>

00000000000036ae <.label6998>:
    36ae:	eb 00                	jmp    36b0 <.label6999>

00000000000036b0 <.label6999>:
    36b0:	eb 00                	jmp    36b2 <.label7000>

00000000000036b2 <.label7000>:
    36b2:	eb 00                	jmp    36b4 <.label7001>

00000000000036b4 <.label7001>:
    36b4:	eb 00                	jmp    36b6 <.label7002>

00000000000036b6 <.label7002>:
    36b6:	eb 00                	jmp    36b8 <.label7003>

00000000000036b8 <.label7003>:
    36b8:	eb 00                	jmp    36ba <.label7004>

00000000000036ba <.label7004>:
    36ba:	eb 00                	jmp    36bc <.label7005>

00000000000036bc <.label7005>:
    36bc:	eb 00                	jmp    36be <.label7006>

00000000000036be <.label7006>:
    36be:	eb 00                	jmp    36c0 <.label7007>

00000000000036c0 <.label7007>:
    36c0:	eb 00                	jmp    36c2 <.label7008>

00000000000036c2 <.label7008>:
    36c2:	eb 00                	jmp    36c4 <.label7009>

00000000000036c4 <.label7009>:
    36c4:	eb 00                	jmp    36c6 <.label7010>

00000000000036c6 <.label7010>:
    36c6:	eb 00                	jmp    36c8 <.label7011>

00000000000036c8 <.label7011>:
    36c8:	eb 00                	jmp    36ca <.label7012>

00000000000036ca <.label7012>:
    36ca:	eb 00                	jmp    36cc <.label7013>

00000000000036cc <.label7013>:
    36cc:	eb 00                	jmp    36ce <.label7014>

00000000000036ce <.label7014>:
    36ce:	eb 00                	jmp    36d0 <.label7015>

00000000000036d0 <.label7015>:
    36d0:	eb 00                	jmp    36d2 <.label7016>

00000000000036d2 <.label7016>:
    36d2:	eb 00                	jmp    36d4 <.label7017>

00000000000036d4 <.label7017>:
    36d4:	eb 00                	jmp    36d6 <.label7018>

00000000000036d6 <.label7018>:
    36d6:	eb 00                	jmp    36d8 <.label7019>

00000000000036d8 <.label7019>:
    36d8:	eb 00                	jmp    36da <.label7020>

00000000000036da <.label7020>:
    36da:	eb 00                	jmp    36dc <.label7021>

00000000000036dc <.label7021>:
    36dc:	eb 00                	jmp    36de <.label7022>

00000000000036de <.label7022>:
    36de:	eb 00                	jmp    36e0 <.label7023>

00000000000036e0 <.label7023>:
    36e0:	eb 00                	jmp    36e2 <.label7024>

00000000000036e2 <.label7024>:
    36e2:	eb 00                	jmp    36e4 <.label7025>

00000000000036e4 <.label7025>:
    36e4:	eb 00                	jmp    36e6 <.label7026>

00000000000036e6 <.label7026>:
    36e6:	eb 00                	jmp    36e8 <.label7027>

00000000000036e8 <.label7027>:
    36e8:	eb 00                	jmp    36ea <.label7028>

00000000000036ea <.label7028>:
    36ea:	eb 00                	jmp    36ec <.label7029>

00000000000036ec <.label7029>:
    36ec:	eb 00                	jmp    36ee <.label7030>

00000000000036ee <.label7030>:
    36ee:	eb 00                	jmp    36f0 <.label7031>

00000000000036f0 <.label7031>:
    36f0:	eb 00                	jmp    36f2 <.label7032>

00000000000036f2 <.label7032>:
    36f2:	eb 00                	jmp    36f4 <.label7033>

00000000000036f4 <.label7033>:
    36f4:	eb 00                	jmp    36f6 <.label7034>

00000000000036f6 <.label7034>:
    36f6:	eb 00                	jmp    36f8 <.label7035>

00000000000036f8 <.label7035>:
    36f8:	eb 00                	jmp    36fa <.label7036>

00000000000036fa <.label7036>:
    36fa:	eb 00                	jmp    36fc <.label7037>

00000000000036fc <.label7037>:
    36fc:	eb 00                	jmp    36fe <.label7038>

00000000000036fe <.label7038>:
    36fe:	eb 00                	jmp    3700 <.label7039>

0000000000003700 <.label7039>:
    3700:	eb 00                	jmp    3702 <.label7040>

0000000000003702 <.label7040>:
    3702:	eb 00                	jmp    3704 <.label7041>

0000000000003704 <.label7041>:
    3704:	eb 00                	jmp    3706 <.label7042>

0000000000003706 <.label7042>:
    3706:	eb 00                	jmp    3708 <.label7043>

0000000000003708 <.label7043>:
    3708:	eb 00                	jmp    370a <.label7044>

000000000000370a <.label7044>:
    370a:	eb 00                	jmp    370c <.label7045>

000000000000370c <.label7045>:
    370c:	eb 00                	jmp    370e <.label7046>

000000000000370e <.label7046>:
    370e:	eb 00                	jmp    3710 <.label7047>

0000000000003710 <.label7047>:
    3710:	eb 00                	jmp    3712 <.label7048>

0000000000003712 <.label7048>:
    3712:	eb 00                	jmp    3714 <.label7049>

0000000000003714 <.label7049>:
    3714:	eb 00                	jmp    3716 <.label7050>

0000000000003716 <.label7050>:
    3716:	eb 00                	jmp    3718 <.label7051>

0000000000003718 <.label7051>:
    3718:	eb 00                	jmp    371a <.label7052>

000000000000371a <.label7052>:
    371a:	eb 00                	jmp    371c <.label7053>

000000000000371c <.label7053>:
    371c:	eb 00                	jmp    371e <.label7054>

000000000000371e <.label7054>:
    371e:	eb 00                	jmp    3720 <.label7055>

0000000000003720 <.label7055>:
    3720:	eb 00                	jmp    3722 <.label7056>

0000000000003722 <.label7056>:
    3722:	eb 00                	jmp    3724 <.label7057>

0000000000003724 <.label7057>:
    3724:	eb 00                	jmp    3726 <.label7058>

0000000000003726 <.label7058>:
    3726:	eb 00                	jmp    3728 <.label7059>

0000000000003728 <.label7059>:
    3728:	eb 00                	jmp    372a <.label7060>

000000000000372a <.label7060>:
    372a:	eb 00                	jmp    372c <.label7061>

000000000000372c <.label7061>:
    372c:	eb 00                	jmp    372e <.label7062>

000000000000372e <.label7062>:
    372e:	eb 00                	jmp    3730 <.label7063>

0000000000003730 <.label7063>:
    3730:	eb 00                	jmp    3732 <.label7064>

0000000000003732 <.label7064>:
    3732:	eb 00                	jmp    3734 <.label7065>

0000000000003734 <.label7065>:
    3734:	eb 00                	jmp    3736 <.label7066>

0000000000003736 <.label7066>:
    3736:	eb 00                	jmp    3738 <.label7067>

0000000000003738 <.label7067>:
    3738:	eb 00                	jmp    373a <.label7068>

000000000000373a <.label7068>:
    373a:	eb 00                	jmp    373c <.label7069>

000000000000373c <.label7069>:
    373c:	eb 00                	jmp    373e <.label7070>

000000000000373e <.label7070>:
    373e:	eb 00                	jmp    3740 <.label7071>

0000000000003740 <.label7071>:
    3740:	eb 00                	jmp    3742 <.label7072>

0000000000003742 <.label7072>:
    3742:	eb 00                	jmp    3744 <.label7073>

0000000000003744 <.label7073>:
    3744:	eb 00                	jmp    3746 <.label7074>

0000000000003746 <.label7074>:
    3746:	eb 00                	jmp    3748 <.label7075>

0000000000003748 <.label7075>:
    3748:	eb 00                	jmp    374a <.label7076>

000000000000374a <.label7076>:
    374a:	eb 00                	jmp    374c <.label7077>

000000000000374c <.label7077>:
    374c:	eb 00                	jmp    374e <.label7078>

000000000000374e <.label7078>:
    374e:	eb 00                	jmp    3750 <.label7079>

0000000000003750 <.label7079>:
    3750:	eb 00                	jmp    3752 <.label7080>

0000000000003752 <.label7080>:
    3752:	eb 00                	jmp    3754 <.label7081>

0000000000003754 <.label7081>:
    3754:	eb 00                	jmp    3756 <.label7082>

0000000000003756 <.label7082>:
    3756:	eb 00                	jmp    3758 <.label7083>

0000000000003758 <.label7083>:
    3758:	eb 00                	jmp    375a <.label7084>

000000000000375a <.label7084>:
    375a:	eb 00                	jmp    375c <.label7085>

000000000000375c <.label7085>:
    375c:	eb 00                	jmp    375e <.label7086>

000000000000375e <.label7086>:
    375e:	eb 00                	jmp    3760 <.label7087>

0000000000003760 <.label7087>:
    3760:	eb 00                	jmp    3762 <.label7088>

0000000000003762 <.label7088>:
    3762:	eb 00                	jmp    3764 <.label7089>

0000000000003764 <.label7089>:
    3764:	eb 00                	jmp    3766 <.label7090>

0000000000003766 <.label7090>:
    3766:	eb 00                	jmp    3768 <.label7091>

0000000000003768 <.label7091>:
    3768:	eb 00                	jmp    376a <.label7092>

000000000000376a <.label7092>:
    376a:	eb 00                	jmp    376c <.label7093>

000000000000376c <.label7093>:
    376c:	eb 00                	jmp    376e <.label7094>

000000000000376e <.label7094>:
    376e:	eb 00                	jmp    3770 <.label7095>

0000000000003770 <.label7095>:
    3770:	eb 00                	jmp    3772 <.label7096>

0000000000003772 <.label7096>:
    3772:	eb 00                	jmp    3774 <.label7097>

0000000000003774 <.label7097>:
    3774:	eb 00                	jmp    3776 <.label7098>

0000000000003776 <.label7098>:
    3776:	eb 00                	jmp    3778 <.label7099>

0000000000003778 <.label7099>:
    3778:	eb 00                	jmp    377a <.label7100>

000000000000377a <.label7100>:
    377a:	eb 00                	jmp    377c <.label7101>

000000000000377c <.label7101>:
    377c:	eb 00                	jmp    377e <.label7102>

000000000000377e <.label7102>:
    377e:	eb 00                	jmp    3780 <.label7103>

0000000000003780 <.label7103>:
    3780:	eb 00                	jmp    3782 <.label7104>

0000000000003782 <.label7104>:
    3782:	eb 00                	jmp    3784 <.label7105>

0000000000003784 <.label7105>:
    3784:	eb 00                	jmp    3786 <.label7106>

0000000000003786 <.label7106>:
    3786:	eb 00                	jmp    3788 <.label7107>

0000000000003788 <.label7107>:
    3788:	eb 00                	jmp    378a <.label7108>

000000000000378a <.label7108>:
    378a:	eb 00                	jmp    378c <.label7109>

000000000000378c <.label7109>:
    378c:	eb 00                	jmp    378e <.label7110>

000000000000378e <.label7110>:
    378e:	eb 00                	jmp    3790 <.label7111>

0000000000003790 <.label7111>:
    3790:	eb 00                	jmp    3792 <.label7112>

0000000000003792 <.label7112>:
    3792:	eb 00                	jmp    3794 <.label7113>

0000000000003794 <.label7113>:
    3794:	eb 00                	jmp    3796 <.label7114>

0000000000003796 <.label7114>:
    3796:	eb 00                	jmp    3798 <.label7115>

0000000000003798 <.label7115>:
    3798:	eb 00                	jmp    379a <.label7116>

000000000000379a <.label7116>:
    379a:	eb 00                	jmp    379c <.label7117>

000000000000379c <.label7117>:
    379c:	eb 00                	jmp    379e <.label7118>

000000000000379e <.label7118>:
    379e:	eb 00                	jmp    37a0 <.label7119>

00000000000037a0 <.label7119>:
    37a0:	eb 00                	jmp    37a2 <.label7120>

00000000000037a2 <.label7120>:
    37a2:	eb 00                	jmp    37a4 <.label7121>

00000000000037a4 <.label7121>:
    37a4:	eb 00                	jmp    37a6 <.label7122>

00000000000037a6 <.label7122>:
    37a6:	eb 00                	jmp    37a8 <.label7123>

00000000000037a8 <.label7123>:
    37a8:	eb 00                	jmp    37aa <.label7124>

00000000000037aa <.label7124>:
    37aa:	eb 00                	jmp    37ac <.label7125>

00000000000037ac <.label7125>:
    37ac:	eb 00                	jmp    37ae <.label7126>

00000000000037ae <.label7126>:
    37ae:	eb 00                	jmp    37b0 <.label7127>

00000000000037b0 <.label7127>:
    37b0:	eb 00                	jmp    37b2 <.label7128>

00000000000037b2 <.label7128>:
    37b2:	eb 00                	jmp    37b4 <.label7129>

00000000000037b4 <.label7129>:
    37b4:	eb 00                	jmp    37b6 <.label7130>

00000000000037b6 <.label7130>:
    37b6:	eb 00                	jmp    37b8 <.label7131>

00000000000037b8 <.label7131>:
    37b8:	eb 00                	jmp    37ba <.label7132>

00000000000037ba <.label7132>:
    37ba:	eb 00                	jmp    37bc <.label7133>

00000000000037bc <.label7133>:
    37bc:	eb 00                	jmp    37be <.label7134>

00000000000037be <.label7134>:
    37be:	eb 00                	jmp    37c0 <.label7135>

00000000000037c0 <.label7135>:
    37c0:	eb 00                	jmp    37c2 <.label7136>

00000000000037c2 <.label7136>:
    37c2:	eb 00                	jmp    37c4 <.label7137>

00000000000037c4 <.label7137>:
    37c4:	eb 00                	jmp    37c6 <.label7138>

00000000000037c6 <.label7138>:
    37c6:	eb 00                	jmp    37c8 <.label7139>

00000000000037c8 <.label7139>:
    37c8:	eb 00                	jmp    37ca <.label7140>

00000000000037ca <.label7140>:
    37ca:	eb 00                	jmp    37cc <.label7141>

00000000000037cc <.label7141>:
    37cc:	eb 00                	jmp    37ce <.label7142>

00000000000037ce <.label7142>:
    37ce:	eb 00                	jmp    37d0 <.label7143>

00000000000037d0 <.label7143>:
    37d0:	eb 00                	jmp    37d2 <.label7144>

00000000000037d2 <.label7144>:
    37d2:	eb 00                	jmp    37d4 <.label7145>

00000000000037d4 <.label7145>:
    37d4:	eb 00                	jmp    37d6 <.label7146>

00000000000037d6 <.label7146>:
    37d6:	eb 00                	jmp    37d8 <.label7147>

00000000000037d8 <.label7147>:
    37d8:	eb 00                	jmp    37da <.label7148>

00000000000037da <.label7148>:
    37da:	eb 00                	jmp    37dc <.label7149>

00000000000037dc <.label7149>:
    37dc:	eb 00                	jmp    37de <.label7150>

00000000000037de <.label7150>:
    37de:	eb 00                	jmp    37e0 <.label7151>

00000000000037e0 <.label7151>:
    37e0:	eb 00                	jmp    37e2 <.label7152>

00000000000037e2 <.label7152>:
    37e2:	eb 00                	jmp    37e4 <.label7153>

00000000000037e4 <.label7153>:
    37e4:	eb 00                	jmp    37e6 <.label7154>

00000000000037e6 <.label7154>:
    37e6:	eb 00                	jmp    37e8 <.label7155>

00000000000037e8 <.label7155>:
    37e8:	eb 00                	jmp    37ea <.label7156>

00000000000037ea <.label7156>:
    37ea:	eb 00                	jmp    37ec <.label7157>

00000000000037ec <.label7157>:
    37ec:	eb 00                	jmp    37ee <.label7158>

00000000000037ee <.label7158>:
    37ee:	eb 00                	jmp    37f0 <.label7159>

00000000000037f0 <.label7159>:
    37f0:	eb 00                	jmp    37f2 <.label7160>

00000000000037f2 <.label7160>:
    37f2:	eb 00                	jmp    37f4 <.label7161>

00000000000037f4 <.label7161>:
    37f4:	eb 00                	jmp    37f6 <.label7162>

00000000000037f6 <.label7162>:
    37f6:	eb 00                	jmp    37f8 <.label7163>

00000000000037f8 <.label7163>:
    37f8:	eb 00                	jmp    37fa <.label7164>

00000000000037fa <.label7164>:
    37fa:	eb 00                	jmp    37fc <.label7165>

00000000000037fc <.label7165>:
    37fc:	eb 00                	jmp    37fe <.label7166>

00000000000037fe <.label7166>:
    37fe:	eb 00                	jmp    3800 <.label7167>

0000000000003800 <.label7167>:
    3800:	eb 00                	jmp    3802 <.label7168>

0000000000003802 <.label7168>:
    3802:	eb 00                	jmp    3804 <.label7169>

0000000000003804 <.label7169>:
    3804:	eb 00                	jmp    3806 <.label7170>

0000000000003806 <.label7170>:
    3806:	eb 00                	jmp    3808 <.label7171>

0000000000003808 <.label7171>:
    3808:	eb 00                	jmp    380a <.label7172>

000000000000380a <.label7172>:
    380a:	eb 00                	jmp    380c <.label7173>

000000000000380c <.label7173>:
    380c:	eb 00                	jmp    380e <.label7174>

000000000000380e <.label7174>:
    380e:	eb 00                	jmp    3810 <.label7175>

0000000000003810 <.label7175>:
    3810:	eb 00                	jmp    3812 <.label7176>

0000000000003812 <.label7176>:
    3812:	eb 00                	jmp    3814 <.label7177>

0000000000003814 <.label7177>:
    3814:	eb 00                	jmp    3816 <.label7178>

0000000000003816 <.label7178>:
    3816:	eb 00                	jmp    3818 <.label7179>

0000000000003818 <.label7179>:
    3818:	eb 00                	jmp    381a <.label7180>

000000000000381a <.label7180>:
    381a:	eb 00                	jmp    381c <.label7181>

000000000000381c <.label7181>:
    381c:	eb 00                	jmp    381e <.label7182>

000000000000381e <.label7182>:
    381e:	eb 00                	jmp    3820 <.label7183>

0000000000003820 <.label7183>:
    3820:	eb 00                	jmp    3822 <.label7184>

0000000000003822 <.label7184>:
    3822:	eb 00                	jmp    3824 <.label7185>

0000000000003824 <.label7185>:
    3824:	eb 00                	jmp    3826 <.label7186>

0000000000003826 <.label7186>:
    3826:	eb 00                	jmp    3828 <.label7187>

0000000000003828 <.label7187>:
    3828:	eb 00                	jmp    382a <.label7188>

000000000000382a <.label7188>:
    382a:	eb 00                	jmp    382c <.label7189>

000000000000382c <.label7189>:
    382c:	eb 00                	jmp    382e <.label7190>

000000000000382e <.label7190>:
    382e:	eb 00                	jmp    3830 <.label7191>

0000000000003830 <.label7191>:
    3830:	eb 00                	jmp    3832 <.label7192>

0000000000003832 <.label7192>:
    3832:	eb 00                	jmp    3834 <.label7193>

0000000000003834 <.label7193>:
    3834:	eb 00                	jmp    3836 <.label7194>

0000000000003836 <.label7194>:
    3836:	eb 00                	jmp    3838 <.label7195>

0000000000003838 <.label7195>:
    3838:	eb 00                	jmp    383a <.label7196>

000000000000383a <.label7196>:
    383a:	eb 00                	jmp    383c <.label7197>

000000000000383c <.label7197>:
    383c:	eb 00                	jmp    383e <.label7198>

000000000000383e <.label7198>:
    383e:	eb 00                	jmp    3840 <.label7199>

0000000000003840 <.label7199>:
    3840:	eb 00                	jmp    3842 <.label7200>

0000000000003842 <.label7200>:
    3842:	eb 00                	jmp    3844 <.label7201>

0000000000003844 <.label7201>:
    3844:	eb 00                	jmp    3846 <.label7202>

0000000000003846 <.label7202>:
    3846:	eb 00                	jmp    3848 <.label7203>

0000000000003848 <.label7203>:
    3848:	eb 00                	jmp    384a <.label7204>

000000000000384a <.label7204>:
    384a:	eb 00                	jmp    384c <.label7205>

000000000000384c <.label7205>:
    384c:	eb 00                	jmp    384e <.label7206>

000000000000384e <.label7206>:
    384e:	eb 00                	jmp    3850 <.label7207>

0000000000003850 <.label7207>:
    3850:	eb 00                	jmp    3852 <.label7208>

0000000000003852 <.label7208>:
    3852:	eb 00                	jmp    3854 <.label7209>

0000000000003854 <.label7209>:
    3854:	eb 00                	jmp    3856 <.label7210>

0000000000003856 <.label7210>:
    3856:	eb 00                	jmp    3858 <.label7211>

0000000000003858 <.label7211>:
    3858:	eb 00                	jmp    385a <.label7212>

000000000000385a <.label7212>:
    385a:	eb 00                	jmp    385c <.label7213>

000000000000385c <.label7213>:
    385c:	eb 00                	jmp    385e <.label7214>

000000000000385e <.label7214>:
    385e:	eb 00                	jmp    3860 <.label7215>

0000000000003860 <.label7215>:
    3860:	eb 00                	jmp    3862 <.label7216>

0000000000003862 <.label7216>:
    3862:	eb 00                	jmp    3864 <.label7217>

0000000000003864 <.label7217>:
    3864:	eb 00                	jmp    3866 <.label7218>

0000000000003866 <.label7218>:
    3866:	eb 00                	jmp    3868 <.label7219>

0000000000003868 <.label7219>:
    3868:	eb 00                	jmp    386a <.label7220>

000000000000386a <.label7220>:
    386a:	eb 00                	jmp    386c <.label7221>

000000000000386c <.label7221>:
    386c:	eb 00                	jmp    386e <.label7222>

000000000000386e <.label7222>:
    386e:	eb 00                	jmp    3870 <.label7223>

0000000000003870 <.label7223>:
    3870:	eb 00                	jmp    3872 <.label7224>

0000000000003872 <.label7224>:
    3872:	eb 00                	jmp    3874 <.label7225>

0000000000003874 <.label7225>:
    3874:	eb 00                	jmp    3876 <.label7226>

0000000000003876 <.label7226>:
    3876:	eb 00                	jmp    3878 <.label7227>

0000000000003878 <.label7227>:
    3878:	eb 00                	jmp    387a <.label7228>

000000000000387a <.label7228>:
    387a:	eb 00                	jmp    387c <.label7229>

000000000000387c <.label7229>:
    387c:	eb 00                	jmp    387e <.label7230>

000000000000387e <.label7230>:
    387e:	eb 00                	jmp    3880 <.label7231>

0000000000003880 <.label7231>:
    3880:	eb 00                	jmp    3882 <.label7232>

0000000000003882 <.label7232>:
    3882:	eb 00                	jmp    3884 <.label7233>

0000000000003884 <.label7233>:
    3884:	eb 00                	jmp    3886 <.label7234>

0000000000003886 <.label7234>:
    3886:	eb 00                	jmp    3888 <.label7235>

0000000000003888 <.label7235>:
    3888:	eb 00                	jmp    388a <.label7236>

000000000000388a <.label7236>:
    388a:	eb 00                	jmp    388c <.label7237>

000000000000388c <.label7237>:
    388c:	eb 00                	jmp    388e <.label7238>

000000000000388e <.label7238>:
    388e:	eb 00                	jmp    3890 <.label7239>

0000000000003890 <.label7239>:
    3890:	eb 00                	jmp    3892 <.label7240>

0000000000003892 <.label7240>:
    3892:	eb 00                	jmp    3894 <.label7241>

0000000000003894 <.label7241>:
    3894:	eb 00                	jmp    3896 <.label7242>

0000000000003896 <.label7242>:
    3896:	eb 00                	jmp    3898 <.label7243>

0000000000003898 <.label7243>:
    3898:	eb 00                	jmp    389a <.label7244>

000000000000389a <.label7244>:
    389a:	eb 00                	jmp    389c <.label7245>

000000000000389c <.label7245>:
    389c:	eb 00                	jmp    389e <.label7246>

000000000000389e <.label7246>:
    389e:	eb 00                	jmp    38a0 <.label7247>

00000000000038a0 <.label7247>:
    38a0:	eb 00                	jmp    38a2 <.label7248>

00000000000038a2 <.label7248>:
    38a2:	eb 00                	jmp    38a4 <.label7249>

00000000000038a4 <.label7249>:
    38a4:	eb 00                	jmp    38a6 <.label7250>

00000000000038a6 <.label7250>:
    38a6:	eb 00                	jmp    38a8 <.label7251>

00000000000038a8 <.label7251>:
    38a8:	eb 00                	jmp    38aa <.label7252>

00000000000038aa <.label7252>:
    38aa:	eb 00                	jmp    38ac <.label7253>

00000000000038ac <.label7253>:
    38ac:	eb 00                	jmp    38ae <.label7254>

00000000000038ae <.label7254>:
    38ae:	eb 00                	jmp    38b0 <.label7255>

00000000000038b0 <.label7255>:
    38b0:	eb 00                	jmp    38b2 <.label7256>

00000000000038b2 <.label7256>:
    38b2:	eb 00                	jmp    38b4 <.label7257>

00000000000038b4 <.label7257>:
    38b4:	eb 00                	jmp    38b6 <.label7258>

00000000000038b6 <.label7258>:
    38b6:	eb 00                	jmp    38b8 <.label7259>

00000000000038b8 <.label7259>:
    38b8:	eb 00                	jmp    38ba <.label7260>

00000000000038ba <.label7260>:
    38ba:	eb 00                	jmp    38bc <.label7261>

00000000000038bc <.label7261>:
    38bc:	eb 00                	jmp    38be <.label7262>

00000000000038be <.label7262>:
    38be:	eb 00                	jmp    38c0 <.label7263>

00000000000038c0 <.label7263>:
    38c0:	eb 00                	jmp    38c2 <.label7264>

00000000000038c2 <.label7264>:
    38c2:	eb 00                	jmp    38c4 <.label7265>

00000000000038c4 <.label7265>:
    38c4:	eb 00                	jmp    38c6 <.label7266>

00000000000038c6 <.label7266>:
    38c6:	eb 00                	jmp    38c8 <.label7267>

00000000000038c8 <.label7267>:
    38c8:	eb 00                	jmp    38ca <.label7268>

00000000000038ca <.label7268>:
    38ca:	eb 00                	jmp    38cc <.label7269>

00000000000038cc <.label7269>:
    38cc:	eb 00                	jmp    38ce <.label7270>

00000000000038ce <.label7270>:
    38ce:	eb 00                	jmp    38d0 <.label7271>

00000000000038d0 <.label7271>:
    38d0:	eb 00                	jmp    38d2 <.label7272>

00000000000038d2 <.label7272>:
    38d2:	eb 00                	jmp    38d4 <.label7273>

00000000000038d4 <.label7273>:
    38d4:	eb 00                	jmp    38d6 <.label7274>

00000000000038d6 <.label7274>:
    38d6:	eb 00                	jmp    38d8 <.label7275>

00000000000038d8 <.label7275>:
    38d8:	eb 00                	jmp    38da <.label7276>

00000000000038da <.label7276>:
    38da:	eb 00                	jmp    38dc <.label7277>

00000000000038dc <.label7277>:
    38dc:	eb 00                	jmp    38de <.label7278>

00000000000038de <.label7278>:
    38de:	eb 00                	jmp    38e0 <.label7279>

00000000000038e0 <.label7279>:
    38e0:	eb 00                	jmp    38e2 <.label7280>

00000000000038e2 <.label7280>:
    38e2:	eb 00                	jmp    38e4 <.label7281>

00000000000038e4 <.label7281>:
    38e4:	eb 00                	jmp    38e6 <.label7282>

00000000000038e6 <.label7282>:
    38e6:	eb 00                	jmp    38e8 <.label7283>

00000000000038e8 <.label7283>:
    38e8:	eb 00                	jmp    38ea <.label7284>

00000000000038ea <.label7284>:
    38ea:	eb 00                	jmp    38ec <.label7285>

00000000000038ec <.label7285>:
    38ec:	eb 00                	jmp    38ee <.label7286>

00000000000038ee <.label7286>:
    38ee:	eb 00                	jmp    38f0 <.label7287>

00000000000038f0 <.label7287>:
    38f0:	eb 00                	jmp    38f2 <.label7288>

00000000000038f2 <.label7288>:
    38f2:	eb 00                	jmp    38f4 <.label7289>

00000000000038f4 <.label7289>:
    38f4:	eb 00                	jmp    38f6 <.label7290>

00000000000038f6 <.label7290>:
    38f6:	eb 00                	jmp    38f8 <.label7291>

00000000000038f8 <.label7291>:
    38f8:	eb 00                	jmp    38fa <.label7292>

00000000000038fa <.label7292>:
    38fa:	eb 00                	jmp    38fc <.label7293>

00000000000038fc <.label7293>:
    38fc:	eb 00                	jmp    38fe <.label7294>

00000000000038fe <.label7294>:
    38fe:	eb 00                	jmp    3900 <.label7295>

0000000000003900 <.label7295>:
    3900:	eb 00                	jmp    3902 <.label7296>

0000000000003902 <.label7296>:
    3902:	eb 00                	jmp    3904 <.label7297>

0000000000003904 <.label7297>:
    3904:	eb 00                	jmp    3906 <.label7298>

0000000000003906 <.label7298>:
    3906:	eb 00                	jmp    3908 <.label7299>

0000000000003908 <.label7299>:
    3908:	eb 00                	jmp    390a <.label7300>

000000000000390a <.label7300>:
    390a:	eb 00                	jmp    390c <.label7301>

000000000000390c <.label7301>:
    390c:	eb 00                	jmp    390e <.label7302>

000000000000390e <.label7302>:
    390e:	eb 00                	jmp    3910 <.label7303>

0000000000003910 <.label7303>:
    3910:	eb 00                	jmp    3912 <.label7304>

0000000000003912 <.label7304>:
    3912:	eb 00                	jmp    3914 <.label7305>

0000000000003914 <.label7305>:
    3914:	eb 00                	jmp    3916 <.label7306>

0000000000003916 <.label7306>:
    3916:	eb 00                	jmp    3918 <.label7307>

0000000000003918 <.label7307>:
    3918:	eb 00                	jmp    391a <.label7308>

000000000000391a <.label7308>:
    391a:	eb 00                	jmp    391c <.label7309>

000000000000391c <.label7309>:
    391c:	eb 00                	jmp    391e <.label7310>

000000000000391e <.label7310>:
    391e:	eb 00                	jmp    3920 <.label7311>

0000000000003920 <.label7311>:
    3920:	eb 00                	jmp    3922 <.label7312>

0000000000003922 <.label7312>:
    3922:	eb 00                	jmp    3924 <.label7313>

0000000000003924 <.label7313>:
    3924:	eb 00                	jmp    3926 <.label7314>

0000000000003926 <.label7314>:
    3926:	eb 00                	jmp    3928 <.label7315>

0000000000003928 <.label7315>:
    3928:	eb 00                	jmp    392a <.label7316>

000000000000392a <.label7316>:
    392a:	eb 00                	jmp    392c <.label7317>

000000000000392c <.label7317>:
    392c:	eb 00                	jmp    392e <.label7318>

000000000000392e <.label7318>:
    392e:	eb 00                	jmp    3930 <.label7319>

0000000000003930 <.label7319>:
    3930:	eb 00                	jmp    3932 <.label7320>

0000000000003932 <.label7320>:
    3932:	eb 00                	jmp    3934 <.label7321>

0000000000003934 <.label7321>:
    3934:	eb 00                	jmp    3936 <.label7322>

0000000000003936 <.label7322>:
    3936:	eb 00                	jmp    3938 <.label7323>

0000000000003938 <.label7323>:
    3938:	eb 00                	jmp    393a <.label7324>

000000000000393a <.label7324>:
    393a:	eb 00                	jmp    393c <.label7325>

000000000000393c <.label7325>:
    393c:	eb 00                	jmp    393e <.label7326>

000000000000393e <.label7326>:
    393e:	eb 00                	jmp    3940 <.label7327>

0000000000003940 <.label7327>:
    3940:	eb 00                	jmp    3942 <.label7328>

0000000000003942 <.label7328>:
    3942:	eb 00                	jmp    3944 <.label7329>

0000000000003944 <.label7329>:
    3944:	eb 00                	jmp    3946 <.label7330>

0000000000003946 <.label7330>:
    3946:	eb 00                	jmp    3948 <.label7331>

0000000000003948 <.label7331>:
    3948:	eb 00                	jmp    394a <.label7332>

000000000000394a <.label7332>:
    394a:	eb 00                	jmp    394c <.label7333>

000000000000394c <.label7333>:
    394c:	eb 00                	jmp    394e <.label7334>

000000000000394e <.label7334>:
    394e:	eb 00                	jmp    3950 <.label7335>

0000000000003950 <.label7335>:
    3950:	eb 00                	jmp    3952 <.label7336>

0000000000003952 <.label7336>:
    3952:	eb 00                	jmp    3954 <.label7337>

0000000000003954 <.label7337>:
    3954:	eb 00                	jmp    3956 <.label7338>

0000000000003956 <.label7338>:
    3956:	eb 00                	jmp    3958 <.label7339>

0000000000003958 <.label7339>:
    3958:	eb 00                	jmp    395a <.label7340>

000000000000395a <.label7340>:
    395a:	eb 00                	jmp    395c <.label7341>

000000000000395c <.label7341>:
    395c:	eb 00                	jmp    395e <.label7342>

000000000000395e <.label7342>:
    395e:	eb 00                	jmp    3960 <.label7343>

0000000000003960 <.label7343>:
    3960:	eb 00                	jmp    3962 <.label7344>

0000000000003962 <.label7344>:
    3962:	eb 00                	jmp    3964 <.label7345>

0000000000003964 <.label7345>:
    3964:	eb 00                	jmp    3966 <.label7346>

0000000000003966 <.label7346>:
    3966:	eb 00                	jmp    3968 <.label7347>

0000000000003968 <.label7347>:
    3968:	eb 00                	jmp    396a <.label7348>

000000000000396a <.label7348>:
    396a:	eb 00                	jmp    396c <.label7349>

000000000000396c <.label7349>:
    396c:	eb 00                	jmp    396e <.label7350>

000000000000396e <.label7350>:
    396e:	eb 00                	jmp    3970 <.label7351>

0000000000003970 <.label7351>:
    3970:	eb 00                	jmp    3972 <.label7352>

0000000000003972 <.label7352>:
    3972:	eb 00                	jmp    3974 <.label7353>

0000000000003974 <.label7353>:
    3974:	eb 00                	jmp    3976 <.label7354>

0000000000003976 <.label7354>:
    3976:	eb 00                	jmp    3978 <.label7355>

0000000000003978 <.label7355>:
    3978:	eb 00                	jmp    397a <.label7356>

000000000000397a <.label7356>:
    397a:	eb 00                	jmp    397c <.label7357>

000000000000397c <.label7357>:
    397c:	eb 00                	jmp    397e <.label7358>

000000000000397e <.label7358>:
    397e:	eb 00                	jmp    3980 <.label7359>

0000000000003980 <.label7359>:
    3980:	eb 00                	jmp    3982 <.label7360>

0000000000003982 <.label7360>:
    3982:	eb 00                	jmp    3984 <.label7361>

0000000000003984 <.label7361>:
    3984:	eb 00                	jmp    3986 <.label7362>

0000000000003986 <.label7362>:
    3986:	eb 00                	jmp    3988 <.label7363>

0000000000003988 <.label7363>:
    3988:	eb 00                	jmp    398a <.label7364>

000000000000398a <.label7364>:
    398a:	eb 00                	jmp    398c <.label7365>

000000000000398c <.label7365>:
    398c:	eb 00                	jmp    398e <.label7366>

000000000000398e <.label7366>:
    398e:	eb 00                	jmp    3990 <.label7367>

0000000000003990 <.label7367>:
    3990:	eb 00                	jmp    3992 <.label7368>

0000000000003992 <.label7368>:
    3992:	eb 00                	jmp    3994 <.label7369>

0000000000003994 <.label7369>:
    3994:	eb 00                	jmp    3996 <.label7370>

0000000000003996 <.label7370>:
    3996:	eb 00                	jmp    3998 <.label7371>

0000000000003998 <.label7371>:
    3998:	eb 00                	jmp    399a <.label7372>

000000000000399a <.label7372>:
    399a:	eb 00                	jmp    399c <.label7373>

000000000000399c <.label7373>:
    399c:	eb 00                	jmp    399e <.label7374>

000000000000399e <.label7374>:
    399e:	eb 00                	jmp    39a0 <.label7375>

00000000000039a0 <.label7375>:
    39a0:	eb 00                	jmp    39a2 <.label7376>

00000000000039a2 <.label7376>:
    39a2:	eb 00                	jmp    39a4 <.label7377>

00000000000039a4 <.label7377>:
    39a4:	eb 00                	jmp    39a6 <.label7378>

00000000000039a6 <.label7378>:
    39a6:	eb 00                	jmp    39a8 <.label7379>

00000000000039a8 <.label7379>:
    39a8:	eb 00                	jmp    39aa <.label7380>

00000000000039aa <.label7380>:
    39aa:	eb 00                	jmp    39ac <.label7381>

00000000000039ac <.label7381>:
    39ac:	eb 00                	jmp    39ae <.label7382>

00000000000039ae <.label7382>:
    39ae:	eb 00                	jmp    39b0 <.label7383>

00000000000039b0 <.label7383>:
    39b0:	eb 00                	jmp    39b2 <.label7384>

00000000000039b2 <.label7384>:
    39b2:	eb 00                	jmp    39b4 <.label7385>

00000000000039b4 <.label7385>:
    39b4:	eb 00                	jmp    39b6 <.label7386>

00000000000039b6 <.label7386>:
    39b6:	eb 00                	jmp    39b8 <.label7387>

00000000000039b8 <.label7387>:
    39b8:	eb 00                	jmp    39ba <.label7388>

00000000000039ba <.label7388>:
    39ba:	eb 00                	jmp    39bc <.label7389>

00000000000039bc <.label7389>:
    39bc:	eb 00                	jmp    39be <.label7390>

00000000000039be <.label7390>:
    39be:	eb 00                	jmp    39c0 <.label7391>

00000000000039c0 <.label7391>:
    39c0:	eb 00                	jmp    39c2 <.label7392>

00000000000039c2 <.label7392>:
    39c2:	eb 00                	jmp    39c4 <.label7393>

00000000000039c4 <.label7393>:
    39c4:	eb 00                	jmp    39c6 <.label7394>

00000000000039c6 <.label7394>:
    39c6:	eb 00                	jmp    39c8 <.label7395>

00000000000039c8 <.label7395>:
    39c8:	eb 00                	jmp    39ca <.label7396>

00000000000039ca <.label7396>:
    39ca:	eb 00                	jmp    39cc <.label7397>

00000000000039cc <.label7397>:
    39cc:	eb 00                	jmp    39ce <.label7398>

00000000000039ce <.label7398>:
    39ce:	eb 00                	jmp    39d0 <.label7399>

00000000000039d0 <.label7399>:
    39d0:	eb 00                	jmp    39d2 <.label7400>

00000000000039d2 <.label7400>:
    39d2:	eb 00                	jmp    39d4 <.label7401>

00000000000039d4 <.label7401>:
    39d4:	eb 00                	jmp    39d6 <.label7402>

00000000000039d6 <.label7402>:
    39d6:	eb 00                	jmp    39d8 <.label7403>

00000000000039d8 <.label7403>:
    39d8:	eb 00                	jmp    39da <.label7404>

00000000000039da <.label7404>:
    39da:	eb 00                	jmp    39dc <.label7405>

00000000000039dc <.label7405>:
    39dc:	eb 00                	jmp    39de <.label7406>

00000000000039de <.label7406>:
    39de:	eb 00                	jmp    39e0 <.label7407>

00000000000039e0 <.label7407>:
    39e0:	eb 00                	jmp    39e2 <.label7408>

00000000000039e2 <.label7408>:
    39e2:	eb 00                	jmp    39e4 <.label7409>

00000000000039e4 <.label7409>:
    39e4:	eb 00                	jmp    39e6 <.label7410>

00000000000039e6 <.label7410>:
    39e6:	eb 00                	jmp    39e8 <.label7411>

00000000000039e8 <.label7411>:
    39e8:	eb 00                	jmp    39ea <.label7412>

00000000000039ea <.label7412>:
    39ea:	eb 00                	jmp    39ec <.label7413>

00000000000039ec <.label7413>:
    39ec:	eb 00                	jmp    39ee <.label7414>

00000000000039ee <.label7414>:
    39ee:	eb 00                	jmp    39f0 <.label7415>

00000000000039f0 <.label7415>:
    39f0:	eb 00                	jmp    39f2 <.label7416>

00000000000039f2 <.label7416>:
    39f2:	eb 00                	jmp    39f4 <.label7417>

00000000000039f4 <.label7417>:
    39f4:	eb 00                	jmp    39f6 <.label7418>

00000000000039f6 <.label7418>:
    39f6:	eb 00                	jmp    39f8 <.label7419>

00000000000039f8 <.label7419>:
    39f8:	eb 00                	jmp    39fa <.label7420>

00000000000039fa <.label7420>:
    39fa:	eb 00                	jmp    39fc <.label7421>

00000000000039fc <.label7421>:
    39fc:	eb 00                	jmp    39fe <.label7422>

00000000000039fe <.label7422>:
    39fe:	eb 00                	jmp    3a00 <.label7423>

0000000000003a00 <.label7423>:
    3a00:	eb 00                	jmp    3a02 <.label7424>

0000000000003a02 <.label7424>:
    3a02:	eb 00                	jmp    3a04 <.label7425>

0000000000003a04 <.label7425>:
    3a04:	eb 00                	jmp    3a06 <.label7426>

0000000000003a06 <.label7426>:
    3a06:	eb 00                	jmp    3a08 <.label7427>

0000000000003a08 <.label7427>:
    3a08:	eb 00                	jmp    3a0a <.label7428>

0000000000003a0a <.label7428>:
    3a0a:	eb 00                	jmp    3a0c <.label7429>

0000000000003a0c <.label7429>:
    3a0c:	eb 00                	jmp    3a0e <.label7430>

0000000000003a0e <.label7430>:
    3a0e:	eb 00                	jmp    3a10 <.label7431>

0000000000003a10 <.label7431>:
    3a10:	eb 00                	jmp    3a12 <.label7432>

0000000000003a12 <.label7432>:
    3a12:	eb 00                	jmp    3a14 <.label7433>

0000000000003a14 <.label7433>:
    3a14:	eb 00                	jmp    3a16 <.label7434>

0000000000003a16 <.label7434>:
    3a16:	eb 00                	jmp    3a18 <.label7435>

0000000000003a18 <.label7435>:
    3a18:	eb 00                	jmp    3a1a <.label7436>

0000000000003a1a <.label7436>:
    3a1a:	eb 00                	jmp    3a1c <.label7437>

0000000000003a1c <.label7437>:
    3a1c:	eb 00                	jmp    3a1e <.label7438>

0000000000003a1e <.label7438>:
    3a1e:	eb 00                	jmp    3a20 <.label7439>

0000000000003a20 <.label7439>:
    3a20:	eb 00                	jmp    3a22 <.label7440>

0000000000003a22 <.label7440>:
    3a22:	eb 00                	jmp    3a24 <.label7441>

0000000000003a24 <.label7441>:
    3a24:	eb 00                	jmp    3a26 <.label7442>

0000000000003a26 <.label7442>:
    3a26:	eb 00                	jmp    3a28 <.label7443>

0000000000003a28 <.label7443>:
    3a28:	eb 00                	jmp    3a2a <.label7444>

0000000000003a2a <.label7444>:
    3a2a:	eb 00                	jmp    3a2c <.label7445>

0000000000003a2c <.label7445>:
    3a2c:	eb 00                	jmp    3a2e <.label7446>

0000000000003a2e <.label7446>:
    3a2e:	eb 00                	jmp    3a30 <.label7447>

0000000000003a30 <.label7447>:
    3a30:	eb 00                	jmp    3a32 <.label7448>

0000000000003a32 <.label7448>:
    3a32:	eb 00                	jmp    3a34 <.label7449>

0000000000003a34 <.label7449>:
    3a34:	eb 00                	jmp    3a36 <.label7450>

0000000000003a36 <.label7450>:
    3a36:	eb 00                	jmp    3a38 <.label7451>

0000000000003a38 <.label7451>:
    3a38:	eb 00                	jmp    3a3a <.label7452>

0000000000003a3a <.label7452>:
    3a3a:	eb 00                	jmp    3a3c <.label7453>

0000000000003a3c <.label7453>:
    3a3c:	eb 00                	jmp    3a3e <.label7454>

0000000000003a3e <.label7454>:
    3a3e:	eb 00                	jmp    3a40 <.label7455>

0000000000003a40 <.label7455>:
    3a40:	eb 00                	jmp    3a42 <.label7456>

0000000000003a42 <.label7456>:
    3a42:	eb 00                	jmp    3a44 <.label7457>

0000000000003a44 <.label7457>:
    3a44:	eb 00                	jmp    3a46 <.label7458>

0000000000003a46 <.label7458>:
    3a46:	eb 00                	jmp    3a48 <.label7459>

0000000000003a48 <.label7459>:
    3a48:	eb 00                	jmp    3a4a <.label7460>

0000000000003a4a <.label7460>:
    3a4a:	eb 00                	jmp    3a4c <.label7461>

0000000000003a4c <.label7461>:
    3a4c:	eb 00                	jmp    3a4e <.label7462>

0000000000003a4e <.label7462>:
    3a4e:	eb 00                	jmp    3a50 <.label7463>

0000000000003a50 <.label7463>:
    3a50:	eb 00                	jmp    3a52 <.label7464>

0000000000003a52 <.label7464>:
    3a52:	eb 00                	jmp    3a54 <.label7465>

0000000000003a54 <.label7465>:
    3a54:	eb 00                	jmp    3a56 <.label7466>

0000000000003a56 <.label7466>:
    3a56:	eb 00                	jmp    3a58 <.label7467>

0000000000003a58 <.label7467>:
    3a58:	eb 00                	jmp    3a5a <.label7468>

0000000000003a5a <.label7468>:
    3a5a:	eb 00                	jmp    3a5c <.label7469>

0000000000003a5c <.label7469>:
    3a5c:	eb 00                	jmp    3a5e <.label7470>

0000000000003a5e <.label7470>:
    3a5e:	eb 00                	jmp    3a60 <.label7471>

0000000000003a60 <.label7471>:
    3a60:	eb 00                	jmp    3a62 <.label7472>

0000000000003a62 <.label7472>:
    3a62:	eb 00                	jmp    3a64 <.label7473>

0000000000003a64 <.label7473>:
    3a64:	eb 00                	jmp    3a66 <.label7474>

0000000000003a66 <.label7474>:
    3a66:	eb 00                	jmp    3a68 <.label7475>

0000000000003a68 <.label7475>:
    3a68:	eb 00                	jmp    3a6a <.label7476>

0000000000003a6a <.label7476>:
    3a6a:	eb 00                	jmp    3a6c <.label7477>

0000000000003a6c <.label7477>:
    3a6c:	eb 00                	jmp    3a6e <.label7478>

0000000000003a6e <.label7478>:
    3a6e:	eb 00                	jmp    3a70 <.label7479>

0000000000003a70 <.label7479>:
    3a70:	eb 00                	jmp    3a72 <.label7480>

0000000000003a72 <.label7480>:
    3a72:	eb 00                	jmp    3a74 <.label7481>

0000000000003a74 <.label7481>:
    3a74:	eb 00                	jmp    3a76 <.label7482>

0000000000003a76 <.label7482>:
    3a76:	eb 00                	jmp    3a78 <.label7483>

0000000000003a78 <.label7483>:
    3a78:	eb 00                	jmp    3a7a <.label7484>

0000000000003a7a <.label7484>:
    3a7a:	eb 00                	jmp    3a7c <.label7485>

0000000000003a7c <.label7485>:
    3a7c:	eb 00                	jmp    3a7e <.label7486>

0000000000003a7e <.label7486>:
    3a7e:	eb 00                	jmp    3a80 <.label7487>

0000000000003a80 <.label7487>:
    3a80:	eb 00                	jmp    3a82 <.label7488>

0000000000003a82 <.label7488>:
    3a82:	eb 00                	jmp    3a84 <.label7489>

0000000000003a84 <.label7489>:
    3a84:	eb 00                	jmp    3a86 <.label7490>

0000000000003a86 <.label7490>:
    3a86:	eb 00                	jmp    3a88 <.label7491>

0000000000003a88 <.label7491>:
    3a88:	eb 00                	jmp    3a8a <.label7492>

0000000000003a8a <.label7492>:
    3a8a:	eb 00                	jmp    3a8c <.label7493>

0000000000003a8c <.label7493>:
    3a8c:	eb 00                	jmp    3a8e <.label7494>

0000000000003a8e <.label7494>:
    3a8e:	eb 00                	jmp    3a90 <.label7495>

0000000000003a90 <.label7495>:
    3a90:	eb 00                	jmp    3a92 <.label7496>

0000000000003a92 <.label7496>:
    3a92:	eb 00                	jmp    3a94 <.label7497>

0000000000003a94 <.label7497>:
    3a94:	eb 00                	jmp    3a96 <.label7498>

0000000000003a96 <.label7498>:
    3a96:	eb 00                	jmp    3a98 <.label7499>

0000000000003a98 <.label7499>:
    3a98:	eb 00                	jmp    3a9a <.label7500>

0000000000003a9a <.label7500>:
    3a9a:	eb 00                	jmp    3a9c <.label7501>

0000000000003a9c <.label7501>:
    3a9c:	eb 00                	jmp    3a9e <.label7502>

0000000000003a9e <.label7502>:
    3a9e:	eb 00                	jmp    3aa0 <.label7503>

0000000000003aa0 <.label7503>:
    3aa0:	eb 00                	jmp    3aa2 <.label7504>

0000000000003aa2 <.label7504>:
    3aa2:	eb 00                	jmp    3aa4 <.label7505>

0000000000003aa4 <.label7505>:
    3aa4:	eb 00                	jmp    3aa6 <.label7506>

0000000000003aa6 <.label7506>:
    3aa6:	eb 00                	jmp    3aa8 <.label7507>

0000000000003aa8 <.label7507>:
    3aa8:	eb 00                	jmp    3aaa <.label7508>

0000000000003aaa <.label7508>:
    3aaa:	eb 00                	jmp    3aac <.label7509>

0000000000003aac <.label7509>:
    3aac:	eb 00                	jmp    3aae <.label7510>

0000000000003aae <.label7510>:
    3aae:	eb 00                	jmp    3ab0 <.label7511>

0000000000003ab0 <.label7511>:
    3ab0:	eb 00                	jmp    3ab2 <.label7512>

0000000000003ab2 <.label7512>:
    3ab2:	eb 00                	jmp    3ab4 <.label7513>

0000000000003ab4 <.label7513>:
    3ab4:	eb 00                	jmp    3ab6 <.label7514>

0000000000003ab6 <.label7514>:
    3ab6:	eb 00                	jmp    3ab8 <.label7515>

0000000000003ab8 <.label7515>:
    3ab8:	eb 00                	jmp    3aba <.label7516>

0000000000003aba <.label7516>:
    3aba:	eb 00                	jmp    3abc <.label7517>

0000000000003abc <.label7517>:
    3abc:	eb 00                	jmp    3abe <.label7518>

0000000000003abe <.label7518>:
    3abe:	eb 00                	jmp    3ac0 <.label7519>

0000000000003ac0 <.label7519>:
    3ac0:	eb 00                	jmp    3ac2 <.label7520>

0000000000003ac2 <.label7520>:
    3ac2:	eb 00                	jmp    3ac4 <.label7521>

0000000000003ac4 <.label7521>:
    3ac4:	eb 00                	jmp    3ac6 <.label7522>

0000000000003ac6 <.label7522>:
    3ac6:	eb 00                	jmp    3ac8 <.label7523>

0000000000003ac8 <.label7523>:
    3ac8:	eb 00                	jmp    3aca <.label7524>

0000000000003aca <.label7524>:
    3aca:	eb 00                	jmp    3acc <.label7525>

0000000000003acc <.label7525>:
    3acc:	eb 00                	jmp    3ace <.label7526>

0000000000003ace <.label7526>:
    3ace:	eb 00                	jmp    3ad0 <.label7527>

0000000000003ad0 <.label7527>:
    3ad0:	eb 00                	jmp    3ad2 <.label7528>

0000000000003ad2 <.label7528>:
    3ad2:	eb 00                	jmp    3ad4 <.label7529>

0000000000003ad4 <.label7529>:
    3ad4:	eb 00                	jmp    3ad6 <.label7530>

0000000000003ad6 <.label7530>:
    3ad6:	eb 00                	jmp    3ad8 <.label7531>

0000000000003ad8 <.label7531>:
    3ad8:	eb 00                	jmp    3ada <.label7532>

0000000000003ada <.label7532>:
    3ada:	eb 00                	jmp    3adc <.label7533>

0000000000003adc <.label7533>:
    3adc:	eb 00                	jmp    3ade <.label7534>

0000000000003ade <.label7534>:
    3ade:	eb 00                	jmp    3ae0 <.label7535>

0000000000003ae0 <.label7535>:
    3ae0:	eb 00                	jmp    3ae2 <.label7536>

0000000000003ae2 <.label7536>:
    3ae2:	eb 00                	jmp    3ae4 <.label7537>

0000000000003ae4 <.label7537>:
    3ae4:	eb 00                	jmp    3ae6 <.label7538>

0000000000003ae6 <.label7538>:
    3ae6:	eb 00                	jmp    3ae8 <.label7539>

0000000000003ae8 <.label7539>:
    3ae8:	eb 00                	jmp    3aea <.label7540>

0000000000003aea <.label7540>:
    3aea:	eb 00                	jmp    3aec <.label7541>

0000000000003aec <.label7541>:
    3aec:	eb 00                	jmp    3aee <.label7542>

0000000000003aee <.label7542>:
    3aee:	eb 00                	jmp    3af0 <.label7543>

0000000000003af0 <.label7543>:
    3af0:	eb 00                	jmp    3af2 <.label7544>

0000000000003af2 <.label7544>:
    3af2:	eb 00                	jmp    3af4 <.label7545>

0000000000003af4 <.label7545>:
    3af4:	eb 00                	jmp    3af6 <.label7546>

0000000000003af6 <.label7546>:
    3af6:	eb 00                	jmp    3af8 <.label7547>

0000000000003af8 <.label7547>:
    3af8:	eb 00                	jmp    3afa <.label7548>

0000000000003afa <.label7548>:
    3afa:	eb 00                	jmp    3afc <.label7549>

0000000000003afc <.label7549>:
    3afc:	eb 00                	jmp    3afe <.label7550>

0000000000003afe <.label7550>:
    3afe:	eb 00                	jmp    3b00 <.label7551>

0000000000003b00 <.label7551>:
    3b00:	eb 00                	jmp    3b02 <.label7552>

0000000000003b02 <.label7552>:
    3b02:	eb 00                	jmp    3b04 <.label7553>

0000000000003b04 <.label7553>:
    3b04:	eb 00                	jmp    3b06 <.label7554>

0000000000003b06 <.label7554>:
    3b06:	eb 00                	jmp    3b08 <.label7555>

0000000000003b08 <.label7555>:
    3b08:	eb 00                	jmp    3b0a <.label7556>

0000000000003b0a <.label7556>:
    3b0a:	eb 00                	jmp    3b0c <.label7557>

0000000000003b0c <.label7557>:
    3b0c:	eb 00                	jmp    3b0e <.label7558>

0000000000003b0e <.label7558>:
    3b0e:	eb 00                	jmp    3b10 <.label7559>

0000000000003b10 <.label7559>:
    3b10:	eb 00                	jmp    3b12 <.label7560>

0000000000003b12 <.label7560>:
    3b12:	eb 00                	jmp    3b14 <.label7561>

0000000000003b14 <.label7561>:
    3b14:	eb 00                	jmp    3b16 <.label7562>

0000000000003b16 <.label7562>:
    3b16:	eb 00                	jmp    3b18 <.label7563>

0000000000003b18 <.label7563>:
    3b18:	eb 00                	jmp    3b1a <.label7564>

0000000000003b1a <.label7564>:
    3b1a:	eb 00                	jmp    3b1c <.label7565>

0000000000003b1c <.label7565>:
    3b1c:	eb 00                	jmp    3b1e <.label7566>

0000000000003b1e <.label7566>:
    3b1e:	eb 00                	jmp    3b20 <.label7567>

0000000000003b20 <.label7567>:
    3b20:	eb 00                	jmp    3b22 <.label7568>

0000000000003b22 <.label7568>:
    3b22:	eb 00                	jmp    3b24 <.label7569>

0000000000003b24 <.label7569>:
    3b24:	eb 00                	jmp    3b26 <.label7570>

0000000000003b26 <.label7570>:
    3b26:	eb 00                	jmp    3b28 <.label7571>

0000000000003b28 <.label7571>:
    3b28:	eb 00                	jmp    3b2a <.label7572>

0000000000003b2a <.label7572>:
    3b2a:	eb 00                	jmp    3b2c <.label7573>

0000000000003b2c <.label7573>:
    3b2c:	eb 00                	jmp    3b2e <.label7574>

0000000000003b2e <.label7574>:
    3b2e:	eb 00                	jmp    3b30 <.label7575>

0000000000003b30 <.label7575>:
    3b30:	eb 00                	jmp    3b32 <.label7576>

0000000000003b32 <.label7576>:
    3b32:	eb 00                	jmp    3b34 <.label7577>

0000000000003b34 <.label7577>:
    3b34:	eb 00                	jmp    3b36 <.label7578>

0000000000003b36 <.label7578>:
    3b36:	eb 00                	jmp    3b38 <.label7579>

0000000000003b38 <.label7579>:
    3b38:	eb 00                	jmp    3b3a <.label7580>

0000000000003b3a <.label7580>:
    3b3a:	eb 00                	jmp    3b3c <.label7581>

0000000000003b3c <.label7581>:
    3b3c:	eb 00                	jmp    3b3e <.label7582>

0000000000003b3e <.label7582>:
    3b3e:	eb 00                	jmp    3b40 <.label7583>

0000000000003b40 <.label7583>:
    3b40:	eb 00                	jmp    3b42 <.label7584>

0000000000003b42 <.label7584>:
    3b42:	eb 00                	jmp    3b44 <.label7585>

0000000000003b44 <.label7585>:
    3b44:	eb 00                	jmp    3b46 <.label7586>

0000000000003b46 <.label7586>:
    3b46:	eb 00                	jmp    3b48 <.label7587>

0000000000003b48 <.label7587>:
    3b48:	eb 00                	jmp    3b4a <.label7588>

0000000000003b4a <.label7588>:
    3b4a:	eb 00                	jmp    3b4c <.label7589>

0000000000003b4c <.label7589>:
    3b4c:	eb 00                	jmp    3b4e <.label7590>

0000000000003b4e <.label7590>:
    3b4e:	eb 00                	jmp    3b50 <.label7591>

0000000000003b50 <.label7591>:
    3b50:	eb 00                	jmp    3b52 <.label7592>

0000000000003b52 <.label7592>:
    3b52:	eb 00                	jmp    3b54 <.label7593>

0000000000003b54 <.label7593>:
    3b54:	eb 00                	jmp    3b56 <.label7594>

0000000000003b56 <.label7594>:
    3b56:	eb 00                	jmp    3b58 <.label7595>

0000000000003b58 <.label7595>:
    3b58:	eb 00                	jmp    3b5a <.label7596>

0000000000003b5a <.label7596>:
    3b5a:	eb 00                	jmp    3b5c <.label7597>

0000000000003b5c <.label7597>:
    3b5c:	eb 00                	jmp    3b5e <.label7598>

0000000000003b5e <.label7598>:
    3b5e:	eb 00                	jmp    3b60 <.label7599>

0000000000003b60 <.label7599>:
    3b60:	eb 00                	jmp    3b62 <.label7600>

0000000000003b62 <.label7600>:
    3b62:	eb 00                	jmp    3b64 <.label7601>

0000000000003b64 <.label7601>:
    3b64:	eb 00                	jmp    3b66 <.label7602>

0000000000003b66 <.label7602>:
    3b66:	eb 00                	jmp    3b68 <.label7603>

0000000000003b68 <.label7603>:
    3b68:	eb 00                	jmp    3b6a <.label7604>

0000000000003b6a <.label7604>:
    3b6a:	eb 00                	jmp    3b6c <.label7605>

0000000000003b6c <.label7605>:
    3b6c:	eb 00                	jmp    3b6e <.label7606>

0000000000003b6e <.label7606>:
    3b6e:	eb 00                	jmp    3b70 <.label7607>

0000000000003b70 <.label7607>:
    3b70:	eb 00                	jmp    3b72 <.label7608>

0000000000003b72 <.label7608>:
    3b72:	eb 00                	jmp    3b74 <.label7609>

0000000000003b74 <.label7609>:
    3b74:	eb 00                	jmp    3b76 <.label7610>

0000000000003b76 <.label7610>:
    3b76:	eb 00                	jmp    3b78 <.label7611>

0000000000003b78 <.label7611>:
    3b78:	eb 00                	jmp    3b7a <.label7612>

0000000000003b7a <.label7612>:
    3b7a:	eb 00                	jmp    3b7c <.label7613>

0000000000003b7c <.label7613>:
    3b7c:	eb 00                	jmp    3b7e <.label7614>

0000000000003b7e <.label7614>:
    3b7e:	eb 00                	jmp    3b80 <.label7615>

0000000000003b80 <.label7615>:
    3b80:	eb 00                	jmp    3b82 <.label7616>

0000000000003b82 <.label7616>:
    3b82:	eb 00                	jmp    3b84 <.label7617>

0000000000003b84 <.label7617>:
    3b84:	eb 00                	jmp    3b86 <.label7618>

0000000000003b86 <.label7618>:
    3b86:	eb 00                	jmp    3b88 <.label7619>

0000000000003b88 <.label7619>:
    3b88:	eb 00                	jmp    3b8a <.label7620>

0000000000003b8a <.label7620>:
    3b8a:	eb 00                	jmp    3b8c <.label7621>

0000000000003b8c <.label7621>:
    3b8c:	eb 00                	jmp    3b8e <.label7622>

0000000000003b8e <.label7622>:
    3b8e:	eb 00                	jmp    3b90 <.label7623>

0000000000003b90 <.label7623>:
    3b90:	eb 00                	jmp    3b92 <.label7624>

0000000000003b92 <.label7624>:
    3b92:	eb 00                	jmp    3b94 <.label7625>

0000000000003b94 <.label7625>:
    3b94:	eb 00                	jmp    3b96 <.label7626>

0000000000003b96 <.label7626>:
    3b96:	eb 00                	jmp    3b98 <.label7627>

0000000000003b98 <.label7627>:
    3b98:	eb 00                	jmp    3b9a <.label7628>

0000000000003b9a <.label7628>:
    3b9a:	eb 00                	jmp    3b9c <.label7629>

0000000000003b9c <.label7629>:
    3b9c:	eb 00                	jmp    3b9e <.label7630>

0000000000003b9e <.label7630>:
    3b9e:	eb 00                	jmp    3ba0 <.label7631>

0000000000003ba0 <.label7631>:
    3ba0:	eb 00                	jmp    3ba2 <.label7632>

0000000000003ba2 <.label7632>:
    3ba2:	eb 00                	jmp    3ba4 <.label7633>

0000000000003ba4 <.label7633>:
    3ba4:	eb 00                	jmp    3ba6 <.label7634>

0000000000003ba6 <.label7634>:
    3ba6:	eb 00                	jmp    3ba8 <.label7635>

0000000000003ba8 <.label7635>:
    3ba8:	eb 00                	jmp    3baa <.label7636>

0000000000003baa <.label7636>:
    3baa:	eb 00                	jmp    3bac <.label7637>

0000000000003bac <.label7637>:
    3bac:	eb 00                	jmp    3bae <.label7638>

0000000000003bae <.label7638>:
    3bae:	eb 00                	jmp    3bb0 <.label7639>

0000000000003bb0 <.label7639>:
    3bb0:	eb 00                	jmp    3bb2 <.label7640>

0000000000003bb2 <.label7640>:
    3bb2:	eb 00                	jmp    3bb4 <.label7641>

0000000000003bb4 <.label7641>:
    3bb4:	eb 00                	jmp    3bb6 <.label7642>

0000000000003bb6 <.label7642>:
    3bb6:	eb 00                	jmp    3bb8 <.label7643>

0000000000003bb8 <.label7643>:
    3bb8:	eb 00                	jmp    3bba <.label7644>

0000000000003bba <.label7644>:
    3bba:	eb 00                	jmp    3bbc <.label7645>

0000000000003bbc <.label7645>:
    3bbc:	eb 00                	jmp    3bbe <.label7646>

0000000000003bbe <.label7646>:
    3bbe:	eb 00                	jmp    3bc0 <.label7647>

0000000000003bc0 <.label7647>:
    3bc0:	eb 00                	jmp    3bc2 <.label7648>

0000000000003bc2 <.label7648>:
    3bc2:	eb 00                	jmp    3bc4 <.label7649>

0000000000003bc4 <.label7649>:
    3bc4:	eb 00                	jmp    3bc6 <.label7650>

0000000000003bc6 <.label7650>:
    3bc6:	eb 00                	jmp    3bc8 <.label7651>

0000000000003bc8 <.label7651>:
    3bc8:	eb 00                	jmp    3bca <.label7652>

0000000000003bca <.label7652>:
    3bca:	eb 00                	jmp    3bcc <.label7653>

0000000000003bcc <.label7653>:
    3bcc:	eb 00                	jmp    3bce <.label7654>

0000000000003bce <.label7654>:
    3bce:	eb 00                	jmp    3bd0 <.label7655>

0000000000003bd0 <.label7655>:
    3bd0:	eb 00                	jmp    3bd2 <.label7656>

0000000000003bd2 <.label7656>:
    3bd2:	eb 00                	jmp    3bd4 <.label7657>

0000000000003bd4 <.label7657>:
    3bd4:	eb 00                	jmp    3bd6 <.label7658>

0000000000003bd6 <.label7658>:
    3bd6:	eb 00                	jmp    3bd8 <.label7659>

0000000000003bd8 <.label7659>:
    3bd8:	eb 00                	jmp    3bda <.label7660>

0000000000003bda <.label7660>:
    3bda:	eb 00                	jmp    3bdc <.label7661>

0000000000003bdc <.label7661>:
    3bdc:	eb 00                	jmp    3bde <.label7662>

0000000000003bde <.label7662>:
    3bde:	eb 00                	jmp    3be0 <.label7663>

0000000000003be0 <.label7663>:
    3be0:	eb 00                	jmp    3be2 <.label7664>

0000000000003be2 <.label7664>:
    3be2:	eb 00                	jmp    3be4 <.label7665>

0000000000003be4 <.label7665>:
    3be4:	eb 00                	jmp    3be6 <.label7666>

0000000000003be6 <.label7666>:
    3be6:	eb 00                	jmp    3be8 <.label7667>

0000000000003be8 <.label7667>:
    3be8:	eb 00                	jmp    3bea <.label7668>

0000000000003bea <.label7668>:
    3bea:	eb 00                	jmp    3bec <.label7669>

0000000000003bec <.label7669>:
    3bec:	eb 00                	jmp    3bee <.label7670>

0000000000003bee <.label7670>:
    3bee:	eb 00                	jmp    3bf0 <.label7671>

0000000000003bf0 <.label7671>:
    3bf0:	eb 00                	jmp    3bf2 <.label7672>

0000000000003bf2 <.label7672>:
    3bf2:	eb 00                	jmp    3bf4 <.label7673>

0000000000003bf4 <.label7673>:
    3bf4:	eb 00                	jmp    3bf6 <.label7674>

0000000000003bf6 <.label7674>:
    3bf6:	eb 00                	jmp    3bf8 <.label7675>

0000000000003bf8 <.label7675>:
    3bf8:	eb 00                	jmp    3bfa <.label7676>

0000000000003bfa <.label7676>:
    3bfa:	eb 00                	jmp    3bfc <.label7677>

0000000000003bfc <.label7677>:
    3bfc:	eb 00                	jmp    3bfe <.label7678>

0000000000003bfe <.label7678>:
    3bfe:	eb 00                	jmp    3c00 <.label7679>

0000000000003c00 <.label7679>:
    3c00:	eb 00                	jmp    3c02 <.label7680>

0000000000003c02 <.label7680>:
    3c02:	eb 00                	jmp    3c04 <.label7681>

0000000000003c04 <.label7681>:
    3c04:	eb 00                	jmp    3c06 <.label7682>

0000000000003c06 <.label7682>:
    3c06:	eb 00                	jmp    3c08 <.label7683>

0000000000003c08 <.label7683>:
    3c08:	eb 00                	jmp    3c0a <.label7684>

0000000000003c0a <.label7684>:
    3c0a:	eb 00                	jmp    3c0c <.label7685>

0000000000003c0c <.label7685>:
    3c0c:	eb 00                	jmp    3c0e <.label7686>

0000000000003c0e <.label7686>:
    3c0e:	eb 00                	jmp    3c10 <.label7687>

0000000000003c10 <.label7687>:
    3c10:	eb 00                	jmp    3c12 <.label7688>

0000000000003c12 <.label7688>:
    3c12:	eb 00                	jmp    3c14 <.label7689>

0000000000003c14 <.label7689>:
    3c14:	eb 00                	jmp    3c16 <.label7690>

0000000000003c16 <.label7690>:
    3c16:	eb 00                	jmp    3c18 <.label7691>

0000000000003c18 <.label7691>:
    3c18:	eb 00                	jmp    3c1a <.label7692>

0000000000003c1a <.label7692>:
    3c1a:	eb 00                	jmp    3c1c <.label7693>

0000000000003c1c <.label7693>:
    3c1c:	eb 00                	jmp    3c1e <.label7694>

0000000000003c1e <.label7694>:
    3c1e:	eb 00                	jmp    3c20 <.label7695>

0000000000003c20 <.label7695>:
    3c20:	eb 00                	jmp    3c22 <.label7696>

0000000000003c22 <.label7696>:
    3c22:	eb 00                	jmp    3c24 <.label7697>

0000000000003c24 <.label7697>:
    3c24:	eb 00                	jmp    3c26 <.label7698>

0000000000003c26 <.label7698>:
    3c26:	eb 00                	jmp    3c28 <.label7699>

0000000000003c28 <.label7699>:
    3c28:	eb 00                	jmp    3c2a <.label7700>

0000000000003c2a <.label7700>:
    3c2a:	eb 00                	jmp    3c2c <.label7701>

0000000000003c2c <.label7701>:
    3c2c:	eb 00                	jmp    3c2e <.label7702>

0000000000003c2e <.label7702>:
    3c2e:	eb 00                	jmp    3c30 <.label7703>

0000000000003c30 <.label7703>:
    3c30:	eb 00                	jmp    3c32 <.label7704>

0000000000003c32 <.label7704>:
    3c32:	eb 00                	jmp    3c34 <.label7705>

0000000000003c34 <.label7705>:
    3c34:	eb 00                	jmp    3c36 <.label7706>

0000000000003c36 <.label7706>:
    3c36:	eb 00                	jmp    3c38 <.label7707>

0000000000003c38 <.label7707>:
    3c38:	eb 00                	jmp    3c3a <.label7708>

0000000000003c3a <.label7708>:
    3c3a:	eb 00                	jmp    3c3c <.label7709>

0000000000003c3c <.label7709>:
    3c3c:	eb 00                	jmp    3c3e <.label7710>

0000000000003c3e <.label7710>:
    3c3e:	eb 00                	jmp    3c40 <.label7711>

0000000000003c40 <.label7711>:
    3c40:	eb 00                	jmp    3c42 <.label7712>

0000000000003c42 <.label7712>:
    3c42:	eb 00                	jmp    3c44 <.label7713>

0000000000003c44 <.label7713>:
    3c44:	eb 00                	jmp    3c46 <.label7714>

0000000000003c46 <.label7714>:
    3c46:	eb 00                	jmp    3c48 <.label7715>

0000000000003c48 <.label7715>:
    3c48:	eb 00                	jmp    3c4a <.label7716>

0000000000003c4a <.label7716>:
    3c4a:	eb 00                	jmp    3c4c <.label7717>

0000000000003c4c <.label7717>:
    3c4c:	eb 00                	jmp    3c4e <.label7718>

0000000000003c4e <.label7718>:
    3c4e:	eb 00                	jmp    3c50 <.label7719>

0000000000003c50 <.label7719>:
    3c50:	eb 00                	jmp    3c52 <.label7720>

0000000000003c52 <.label7720>:
    3c52:	eb 00                	jmp    3c54 <.label7721>

0000000000003c54 <.label7721>:
    3c54:	eb 00                	jmp    3c56 <.label7722>

0000000000003c56 <.label7722>:
    3c56:	eb 00                	jmp    3c58 <.label7723>

0000000000003c58 <.label7723>:
    3c58:	eb 00                	jmp    3c5a <.label7724>

0000000000003c5a <.label7724>:
    3c5a:	eb 00                	jmp    3c5c <.label7725>

0000000000003c5c <.label7725>:
    3c5c:	eb 00                	jmp    3c5e <.label7726>

0000000000003c5e <.label7726>:
    3c5e:	eb 00                	jmp    3c60 <.label7727>

0000000000003c60 <.label7727>:
    3c60:	eb 00                	jmp    3c62 <.label7728>

0000000000003c62 <.label7728>:
    3c62:	eb 00                	jmp    3c64 <.label7729>

0000000000003c64 <.label7729>:
    3c64:	eb 00                	jmp    3c66 <.label7730>

0000000000003c66 <.label7730>:
    3c66:	eb 00                	jmp    3c68 <.label7731>

0000000000003c68 <.label7731>:
    3c68:	eb 00                	jmp    3c6a <.label7732>

0000000000003c6a <.label7732>:
    3c6a:	eb 00                	jmp    3c6c <.label7733>

0000000000003c6c <.label7733>:
    3c6c:	eb 00                	jmp    3c6e <.label7734>

0000000000003c6e <.label7734>:
    3c6e:	eb 00                	jmp    3c70 <.label7735>

0000000000003c70 <.label7735>:
    3c70:	eb 00                	jmp    3c72 <.label7736>

0000000000003c72 <.label7736>:
    3c72:	eb 00                	jmp    3c74 <.label7737>

0000000000003c74 <.label7737>:
    3c74:	eb 00                	jmp    3c76 <.label7738>

0000000000003c76 <.label7738>:
    3c76:	eb 00                	jmp    3c78 <.label7739>

0000000000003c78 <.label7739>:
    3c78:	eb 00                	jmp    3c7a <.label7740>

0000000000003c7a <.label7740>:
    3c7a:	eb 00                	jmp    3c7c <.label7741>

0000000000003c7c <.label7741>:
    3c7c:	eb 00                	jmp    3c7e <.label7742>

0000000000003c7e <.label7742>:
    3c7e:	eb 00                	jmp    3c80 <.label7743>

0000000000003c80 <.label7743>:
    3c80:	eb 00                	jmp    3c82 <.label7744>

0000000000003c82 <.label7744>:
    3c82:	eb 00                	jmp    3c84 <.label7745>

0000000000003c84 <.label7745>:
    3c84:	eb 00                	jmp    3c86 <.label7746>

0000000000003c86 <.label7746>:
    3c86:	eb 00                	jmp    3c88 <.label7747>

0000000000003c88 <.label7747>:
    3c88:	eb 00                	jmp    3c8a <.label7748>

0000000000003c8a <.label7748>:
    3c8a:	eb 00                	jmp    3c8c <.label7749>

0000000000003c8c <.label7749>:
    3c8c:	eb 00                	jmp    3c8e <.label7750>

0000000000003c8e <.label7750>:
    3c8e:	eb 00                	jmp    3c90 <.label7751>

0000000000003c90 <.label7751>:
    3c90:	eb 00                	jmp    3c92 <.label7752>

0000000000003c92 <.label7752>:
    3c92:	eb 00                	jmp    3c94 <.label7753>

0000000000003c94 <.label7753>:
    3c94:	eb 00                	jmp    3c96 <.label7754>

0000000000003c96 <.label7754>:
    3c96:	eb 00                	jmp    3c98 <.label7755>

0000000000003c98 <.label7755>:
    3c98:	eb 00                	jmp    3c9a <.label7756>

0000000000003c9a <.label7756>:
    3c9a:	eb 00                	jmp    3c9c <.label7757>

0000000000003c9c <.label7757>:
    3c9c:	eb 00                	jmp    3c9e <.label7758>

0000000000003c9e <.label7758>:
    3c9e:	eb 00                	jmp    3ca0 <.label7759>

0000000000003ca0 <.label7759>:
    3ca0:	eb 00                	jmp    3ca2 <.label7760>

0000000000003ca2 <.label7760>:
    3ca2:	eb 00                	jmp    3ca4 <.label7761>

0000000000003ca4 <.label7761>:
    3ca4:	eb 00                	jmp    3ca6 <.label7762>

0000000000003ca6 <.label7762>:
    3ca6:	eb 00                	jmp    3ca8 <.label7763>

0000000000003ca8 <.label7763>:
    3ca8:	eb 00                	jmp    3caa <.label7764>

0000000000003caa <.label7764>:
    3caa:	eb 00                	jmp    3cac <.label7765>

0000000000003cac <.label7765>:
    3cac:	eb 00                	jmp    3cae <.label7766>

0000000000003cae <.label7766>:
    3cae:	eb 00                	jmp    3cb0 <.label7767>

0000000000003cb0 <.label7767>:
    3cb0:	eb 00                	jmp    3cb2 <.label7768>

0000000000003cb2 <.label7768>:
    3cb2:	eb 00                	jmp    3cb4 <.label7769>

0000000000003cb4 <.label7769>:
    3cb4:	eb 00                	jmp    3cb6 <.label7770>

0000000000003cb6 <.label7770>:
    3cb6:	eb 00                	jmp    3cb8 <.label7771>

0000000000003cb8 <.label7771>:
    3cb8:	eb 00                	jmp    3cba <.label7772>

0000000000003cba <.label7772>:
    3cba:	eb 00                	jmp    3cbc <.label7773>

0000000000003cbc <.label7773>:
    3cbc:	eb 00                	jmp    3cbe <.label7774>

0000000000003cbe <.label7774>:
    3cbe:	eb 00                	jmp    3cc0 <.label7775>

0000000000003cc0 <.label7775>:
    3cc0:	eb 00                	jmp    3cc2 <.label7776>

0000000000003cc2 <.label7776>:
    3cc2:	eb 00                	jmp    3cc4 <.label7777>

0000000000003cc4 <.label7777>:
    3cc4:	eb 00                	jmp    3cc6 <.label7778>

0000000000003cc6 <.label7778>:
    3cc6:	eb 00                	jmp    3cc8 <.label7779>

0000000000003cc8 <.label7779>:
    3cc8:	eb 00                	jmp    3cca <.label7780>

0000000000003cca <.label7780>:
    3cca:	eb 00                	jmp    3ccc <.label7781>

0000000000003ccc <.label7781>:
    3ccc:	eb 00                	jmp    3cce <.label7782>

0000000000003cce <.label7782>:
    3cce:	eb 00                	jmp    3cd0 <.label7783>

0000000000003cd0 <.label7783>:
    3cd0:	eb 00                	jmp    3cd2 <.label7784>

0000000000003cd2 <.label7784>:
    3cd2:	eb 00                	jmp    3cd4 <.label7785>

0000000000003cd4 <.label7785>:
    3cd4:	eb 00                	jmp    3cd6 <.label7786>

0000000000003cd6 <.label7786>:
    3cd6:	eb 00                	jmp    3cd8 <.label7787>

0000000000003cd8 <.label7787>:
    3cd8:	eb 00                	jmp    3cda <.label7788>

0000000000003cda <.label7788>:
    3cda:	eb 00                	jmp    3cdc <.label7789>

0000000000003cdc <.label7789>:
    3cdc:	eb 00                	jmp    3cde <.label7790>

0000000000003cde <.label7790>:
    3cde:	eb 00                	jmp    3ce0 <.label7791>

0000000000003ce0 <.label7791>:
    3ce0:	eb 00                	jmp    3ce2 <.label7792>

0000000000003ce2 <.label7792>:
    3ce2:	eb 00                	jmp    3ce4 <.label7793>

0000000000003ce4 <.label7793>:
    3ce4:	eb 00                	jmp    3ce6 <.label7794>

0000000000003ce6 <.label7794>:
    3ce6:	eb 00                	jmp    3ce8 <.label7795>

0000000000003ce8 <.label7795>:
    3ce8:	eb 00                	jmp    3cea <.label7796>

0000000000003cea <.label7796>:
    3cea:	eb 00                	jmp    3cec <.label7797>

0000000000003cec <.label7797>:
    3cec:	eb 00                	jmp    3cee <.label7798>

0000000000003cee <.label7798>:
    3cee:	eb 00                	jmp    3cf0 <.label7799>

0000000000003cf0 <.label7799>:
    3cf0:	eb 00                	jmp    3cf2 <.label7800>

0000000000003cf2 <.label7800>:
    3cf2:	eb 00                	jmp    3cf4 <.label7801>

0000000000003cf4 <.label7801>:
    3cf4:	eb 00                	jmp    3cf6 <.label7802>

0000000000003cf6 <.label7802>:
    3cf6:	eb 00                	jmp    3cf8 <.label7803>

0000000000003cf8 <.label7803>:
    3cf8:	eb 00                	jmp    3cfa <.label7804>

0000000000003cfa <.label7804>:
    3cfa:	eb 00                	jmp    3cfc <.label7805>

0000000000003cfc <.label7805>:
    3cfc:	eb 00                	jmp    3cfe <.label7806>

0000000000003cfe <.label7806>:
    3cfe:	eb 00                	jmp    3d00 <.label7807>

0000000000003d00 <.label7807>:
    3d00:	eb 00                	jmp    3d02 <.label7808>

0000000000003d02 <.label7808>:
    3d02:	eb 00                	jmp    3d04 <.label7809>

0000000000003d04 <.label7809>:
    3d04:	eb 00                	jmp    3d06 <.label7810>

0000000000003d06 <.label7810>:
    3d06:	eb 00                	jmp    3d08 <.label7811>

0000000000003d08 <.label7811>:
    3d08:	eb 00                	jmp    3d0a <.label7812>

0000000000003d0a <.label7812>:
    3d0a:	eb 00                	jmp    3d0c <.label7813>

0000000000003d0c <.label7813>:
    3d0c:	eb 00                	jmp    3d0e <.label7814>

0000000000003d0e <.label7814>:
    3d0e:	eb 00                	jmp    3d10 <.label7815>

0000000000003d10 <.label7815>:
    3d10:	eb 00                	jmp    3d12 <.label7816>

0000000000003d12 <.label7816>:
    3d12:	eb 00                	jmp    3d14 <.label7817>

0000000000003d14 <.label7817>:
    3d14:	eb 00                	jmp    3d16 <.label7818>

0000000000003d16 <.label7818>:
    3d16:	eb 00                	jmp    3d18 <.label7819>

0000000000003d18 <.label7819>:
    3d18:	eb 00                	jmp    3d1a <.label7820>

0000000000003d1a <.label7820>:
    3d1a:	eb 00                	jmp    3d1c <.label7821>

0000000000003d1c <.label7821>:
    3d1c:	eb 00                	jmp    3d1e <.label7822>

0000000000003d1e <.label7822>:
    3d1e:	eb 00                	jmp    3d20 <.label7823>

0000000000003d20 <.label7823>:
    3d20:	eb 00                	jmp    3d22 <.label7824>

0000000000003d22 <.label7824>:
    3d22:	eb 00                	jmp    3d24 <.label7825>

0000000000003d24 <.label7825>:
    3d24:	eb 00                	jmp    3d26 <.label7826>

0000000000003d26 <.label7826>:
    3d26:	eb 00                	jmp    3d28 <.label7827>

0000000000003d28 <.label7827>:
    3d28:	eb 00                	jmp    3d2a <.label7828>

0000000000003d2a <.label7828>:
    3d2a:	eb 00                	jmp    3d2c <.label7829>

0000000000003d2c <.label7829>:
    3d2c:	eb 00                	jmp    3d2e <.label7830>

0000000000003d2e <.label7830>:
    3d2e:	eb 00                	jmp    3d30 <.label7831>

0000000000003d30 <.label7831>:
    3d30:	eb 00                	jmp    3d32 <.label7832>

0000000000003d32 <.label7832>:
    3d32:	eb 00                	jmp    3d34 <.label7833>

0000000000003d34 <.label7833>:
    3d34:	eb 00                	jmp    3d36 <.label7834>

0000000000003d36 <.label7834>:
    3d36:	eb 00                	jmp    3d38 <.label7835>

0000000000003d38 <.label7835>:
    3d38:	eb 00                	jmp    3d3a <.label7836>

0000000000003d3a <.label7836>:
    3d3a:	eb 00                	jmp    3d3c <.label7837>

0000000000003d3c <.label7837>:
    3d3c:	eb 00                	jmp    3d3e <.label7838>

0000000000003d3e <.label7838>:
    3d3e:	eb 00                	jmp    3d40 <.label7839>

0000000000003d40 <.label7839>:
    3d40:	eb 00                	jmp    3d42 <.label7840>

0000000000003d42 <.label7840>:
    3d42:	eb 00                	jmp    3d44 <.label7841>

0000000000003d44 <.label7841>:
    3d44:	eb 00                	jmp    3d46 <.label7842>

0000000000003d46 <.label7842>:
    3d46:	eb 00                	jmp    3d48 <.label7843>

0000000000003d48 <.label7843>:
    3d48:	eb 00                	jmp    3d4a <.label7844>

0000000000003d4a <.label7844>:
    3d4a:	eb 00                	jmp    3d4c <.label7845>

0000000000003d4c <.label7845>:
    3d4c:	eb 00                	jmp    3d4e <.label7846>

0000000000003d4e <.label7846>:
    3d4e:	eb 00                	jmp    3d50 <.label7847>

0000000000003d50 <.label7847>:
    3d50:	eb 00                	jmp    3d52 <.label7848>

0000000000003d52 <.label7848>:
    3d52:	eb 00                	jmp    3d54 <.label7849>

0000000000003d54 <.label7849>:
    3d54:	eb 00                	jmp    3d56 <.label7850>

0000000000003d56 <.label7850>:
    3d56:	eb 00                	jmp    3d58 <.label7851>

0000000000003d58 <.label7851>:
    3d58:	eb 00                	jmp    3d5a <.label7852>

0000000000003d5a <.label7852>:
    3d5a:	eb 00                	jmp    3d5c <.label7853>

0000000000003d5c <.label7853>:
    3d5c:	eb 00                	jmp    3d5e <.label7854>

0000000000003d5e <.label7854>:
    3d5e:	eb 00                	jmp    3d60 <.label7855>

0000000000003d60 <.label7855>:
    3d60:	eb 00                	jmp    3d62 <.label7856>

0000000000003d62 <.label7856>:
    3d62:	eb 00                	jmp    3d64 <.label7857>

0000000000003d64 <.label7857>:
    3d64:	eb 00                	jmp    3d66 <.label7858>

0000000000003d66 <.label7858>:
    3d66:	eb 00                	jmp    3d68 <.label7859>

0000000000003d68 <.label7859>:
    3d68:	eb 00                	jmp    3d6a <.label7860>

0000000000003d6a <.label7860>:
    3d6a:	eb 00                	jmp    3d6c <.label7861>

0000000000003d6c <.label7861>:
    3d6c:	eb 00                	jmp    3d6e <.label7862>

0000000000003d6e <.label7862>:
    3d6e:	eb 00                	jmp    3d70 <.label7863>

0000000000003d70 <.label7863>:
    3d70:	eb 00                	jmp    3d72 <.label7864>

0000000000003d72 <.label7864>:
    3d72:	eb 00                	jmp    3d74 <.label7865>

0000000000003d74 <.label7865>:
    3d74:	eb 00                	jmp    3d76 <.label7866>

0000000000003d76 <.label7866>:
    3d76:	eb 00                	jmp    3d78 <.label7867>

0000000000003d78 <.label7867>:
    3d78:	eb 00                	jmp    3d7a <.label7868>

0000000000003d7a <.label7868>:
    3d7a:	eb 00                	jmp    3d7c <.label7869>

0000000000003d7c <.label7869>:
    3d7c:	eb 00                	jmp    3d7e <.label7870>

0000000000003d7e <.label7870>:
    3d7e:	eb 00                	jmp    3d80 <.label7871>

0000000000003d80 <.label7871>:
    3d80:	eb 00                	jmp    3d82 <.label7872>

0000000000003d82 <.label7872>:
    3d82:	eb 00                	jmp    3d84 <.label7873>

0000000000003d84 <.label7873>:
    3d84:	eb 00                	jmp    3d86 <.label7874>

0000000000003d86 <.label7874>:
    3d86:	eb 00                	jmp    3d88 <.label7875>

0000000000003d88 <.label7875>:
    3d88:	eb 00                	jmp    3d8a <.label7876>

0000000000003d8a <.label7876>:
    3d8a:	eb 00                	jmp    3d8c <.label7877>

0000000000003d8c <.label7877>:
    3d8c:	eb 00                	jmp    3d8e <.label7878>

0000000000003d8e <.label7878>:
    3d8e:	eb 00                	jmp    3d90 <.label7879>

0000000000003d90 <.label7879>:
    3d90:	eb 00                	jmp    3d92 <.label7880>

0000000000003d92 <.label7880>:
    3d92:	eb 00                	jmp    3d94 <.label7881>

0000000000003d94 <.label7881>:
    3d94:	eb 00                	jmp    3d96 <.label7882>

0000000000003d96 <.label7882>:
    3d96:	eb 00                	jmp    3d98 <.label7883>

0000000000003d98 <.label7883>:
    3d98:	eb 00                	jmp    3d9a <.label7884>

0000000000003d9a <.label7884>:
    3d9a:	eb 00                	jmp    3d9c <.label7885>

0000000000003d9c <.label7885>:
    3d9c:	eb 00                	jmp    3d9e <.label7886>

0000000000003d9e <.label7886>:
    3d9e:	eb 00                	jmp    3da0 <.label7887>

0000000000003da0 <.label7887>:
    3da0:	eb 00                	jmp    3da2 <.label7888>

0000000000003da2 <.label7888>:
    3da2:	eb 00                	jmp    3da4 <.label7889>

0000000000003da4 <.label7889>:
    3da4:	eb 00                	jmp    3da6 <.label7890>

0000000000003da6 <.label7890>:
    3da6:	eb 00                	jmp    3da8 <.label7891>

0000000000003da8 <.label7891>:
    3da8:	eb 00                	jmp    3daa <.label7892>

0000000000003daa <.label7892>:
    3daa:	eb 00                	jmp    3dac <.label7893>

0000000000003dac <.label7893>:
    3dac:	eb 00                	jmp    3dae <.label7894>

0000000000003dae <.label7894>:
    3dae:	eb 00                	jmp    3db0 <.label7895>

0000000000003db0 <.label7895>:
    3db0:	eb 00                	jmp    3db2 <.label7896>

0000000000003db2 <.label7896>:
    3db2:	eb 00                	jmp    3db4 <.label7897>

0000000000003db4 <.label7897>:
    3db4:	eb 00                	jmp    3db6 <.label7898>

0000000000003db6 <.label7898>:
    3db6:	eb 00                	jmp    3db8 <.label7899>

0000000000003db8 <.label7899>:
    3db8:	eb 00                	jmp    3dba <.label7900>

0000000000003dba <.label7900>:
    3dba:	eb 00                	jmp    3dbc <.label7901>

0000000000003dbc <.label7901>:
    3dbc:	eb 00                	jmp    3dbe <.label7902>

0000000000003dbe <.label7902>:
    3dbe:	eb 00                	jmp    3dc0 <.label7903>

0000000000003dc0 <.label7903>:
    3dc0:	eb 00                	jmp    3dc2 <.label7904>

0000000000003dc2 <.label7904>:
    3dc2:	eb 00                	jmp    3dc4 <.label7905>

0000000000003dc4 <.label7905>:
    3dc4:	eb 00                	jmp    3dc6 <.label7906>

0000000000003dc6 <.label7906>:
    3dc6:	eb 00                	jmp    3dc8 <.label7907>

0000000000003dc8 <.label7907>:
    3dc8:	eb 00                	jmp    3dca <.label7908>

0000000000003dca <.label7908>:
    3dca:	eb 00                	jmp    3dcc <.label7909>

0000000000003dcc <.label7909>:
    3dcc:	eb 00                	jmp    3dce <.label7910>

0000000000003dce <.label7910>:
    3dce:	eb 00                	jmp    3dd0 <.label7911>

0000000000003dd0 <.label7911>:
    3dd0:	eb 00                	jmp    3dd2 <.label7912>

0000000000003dd2 <.label7912>:
    3dd2:	eb 00                	jmp    3dd4 <.label7913>

0000000000003dd4 <.label7913>:
    3dd4:	eb 00                	jmp    3dd6 <.label7914>

0000000000003dd6 <.label7914>:
    3dd6:	eb 00                	jmp    3dd8 <.label7915>

0000000000003dd8 <.label7915>:
    3dd8:	eb 00                	jmp    3dda <.label7916>

0000000000003dda <.label7916>:
    3dda:	eb 00                	jmp    3ddc <.label7917>

0000000000003ddc <.label7917>:
    3ddc:	eb 00                	jmp    3dde <.label7918>

0000000000003dde <.label7918>:
    3dde:	eb 00                	jmp    3de0 <.label7919>

0000000000003de0 <.label7919>:
    3de0:	eb 00                	jmp    3de2 <.label7920>

0000000000003de2 <.label7920>:
    3de2:	eb 00                	jmp    3de4 <.label7921>

0000000000003de4 <.label7921>:
    3de4:	eb 00                	jmp    3de6 <.label7922>

0000000000003de6 <.label7922>:
    3de6:	eb 00                	jmp    3de8 <.label7923>

0000000000003de8 <.label7923>:
    3de8:	eb 00                	jmp    3dea <.label7924>

0000000000003dea <.label7924>:
    3dea:	eb 00                	jmp    3dec <.label7925>

0000000000003dec <.label7925>:
    3dec:	eb 00                	jmp    3dee <.label7926>

0000000000003dee <.label7926>:
    3dee:	eb 00                	jmp    3df0 <.label7927>

0000000000003df0 <.label7927>:
    3df0:	eb 00                	jmp    3df2 <.label7928>

0000000000003df2 <.label7928>:
    3df2:	eb 00                	jmp    3df4 <.label7929>

0000000000003df4 <.label7929>:
    3df4:	eb 00                	jmp    3df6 <.label7930>

0000000000003df6 <.label7930>:
    3df6:	eb 00                	jmp    3df8 <.label7931>

0000000000003df8 <.label7931>:
    3df8:	eb 00                	jmp    3dfa <.label7932>

0000000000003dfa <.label7932>:
    3dfa:	eb 00                	jmp    3dfc <.label7933>

0000000000003dfc <.label7933>:
    3dfc:	eb 00                	jmp    3dfe <.label7934>

0000000000003dfe <.label7934>:
    3dfe:	eb 00                	jmp    3e00 <.label7935>

0000000000003e00 <.label7935>:
    3e00:	eb 00                	jmp    3e02 <.label7936>

0000000000003e02 <.label7936>:
    3e02:	eb 00                	jmp    3e04 <.label7937>

0000000000003e04 <.label7937>:
    3e04:	eb 00                	jmp    3e06 <.label7938>

0000000000003e06 <.label7938>:
    3e06:	eb 00                	jmp    3e08 <.label7939>

0000000000003e08 <.label7939>:
    3e08:	eb 00                	jmp    3e0a <.label7940>

0000000000003e0a <.label7940>:
    3e0a:	eb 00                	jmp    3e0c <.label7941>

0000000000003e0c <.label7941>:
    3e0c:	eb 00                	jmp    3e0e <.label7942>

0000000000003e0e <.label7942>:
    3e0e:	eb 00                	jmp    3e10 <.label7943>

0000000000003e10 <.label7943>:
    3e10:	eb 00                	jmp    3e12 <.label7944>

0000000000003e12 <.label7944>:
    3e12:	eb 00                	jmp    3e14 <.label7945>

0000000000003e14 <.label7945>:
    3e14:	eb 00                	jmp    3e16 <.label7946>

0000000000003e16 <.label7946>:
    3e16:	eb 00                	jmp    3e18 <.label7947>

0000000000003e18 <.label7947>:
    3e18:	eb 00                	jmp    3e1a <.label7948>

0000000000003e1a <.label7948>:
    3e1a:	eb 00                	jmp    3e1c <.label7949>

0000000000003e1c <.label7949>:
    3e1c:	eb 00                	jmp    3e1e <.label7950>

0000000000003e1e <.label7950>:
    3e1e:	eb 00                	jmp    3e20 <.label7951>

0000000000003e20 <.label7951>:
    3e20:	eb 00                	jmp    3e22 <.label7952>

0000000000003e22 <.label7952>:
    3e22:	eb 00                	jmp    3e24 <.label7953>

0000000000003e24 <.label7953>:
    3e24:	eb 00                	jmp    3e26 <.label7954>

0000000000003e26 <.label7954>:
    3e26:	eb 00                	jmp    3e28 <.label7955>

0000000000003e28 <.label7955>:
    3e28:	eb 00                	jmp    3e2a <.label7956>

0000000000003e2a <.label7956>:
    3e2a:	eb 00                	jmp    3e2c <.label7957>

0000000000003e2c <.label7957>:
    3e2c:	eb 00                	jmp    3e2e <.label7958>

0000000000003e2e <.label7958>:
    3e2e:	eb 00                	jmp    3e30 <.label7959>

0000000000003e30 <.label7959>:
    3e30:	eb 00                	jmp    3e32 <.label7960>

0000000000003e32 <.label7960>:
    3e32:	eb 00                	jmp    3e34 <.label7961>

0000000000003e34 <.label7961>:
    3e34:	eb 00                	jmp    3e36 <.label7962>

0000000000003e36 <.label7962>:
    3e36:	eb 00                	jmp    3e38 <.label7963>

0000000000003e38 <.label7963>:
    3e38:	eb 00                	jmp    3e3a <.label7964>

0000000000003e3a <.label7964>:
    3e3a:	eb 00                	jmp    3e3c <.label7965>

0000000000003e3c <.label7965>:
    3e3c:	eb 00                	jmp    3e3e <.label7966>

0000000000003e3e <.label7966>:
    3e3e:	eb 00                	jmp    3e40 <.label7967>

0000000000003e40 <.label7967>:
    3e40:	eb 00                	jmp    3e42 <.label7968>

0000000000003e42 <.label7968>:
    3e42:	eb 00                	jmp    3e44 <.label7969>

0000000000003e44 <.label7969>:
    3e44:	eb 00                	jmp    3e46 <.label7970>

0000000000003e46 <.label7970>:
    3e46:	eb 00                	jmp    3e48 <.label7971>

0000000000003e48 <.label7971>:
    3e48:	eb 00                	jmp    3e4a <.label7972>

0000000000003e4a <.label7972>:
    3e4a:	eb 00                	jmp    3e4c <.label7973>

0000000000003e4c <.label7973>:
    3e4c:	eb 00                	jmp    3e4e <.label7974>

0000000000003e4e <.label7974>:
    3e4e:	eb 00                	jmp    3e50 <.label7975>

0000000000003e50 <.label7975>:
    3e50:	eb 00                	jmp    3e52 <.label7976>

0000000000003e52 <.label7976>:
    3e52:	eb 00                	jmp    3e54 <.label7977>

0000000000003e54 <.label7977>:
    3e54:	eb 00                	jmp    3e56 <.label7978>

0000000000003e56 <.label7978>:
    3e56:	eb 00                	jmp    3e58 <.label7979>

0000000000003e58 <.label7979>:
    3e58:	eb 00                	jmp    3e5a <.label7980>

0000000000003e5a <.label7980>:
    3e5a:	eb 00                	jmp    3e5c <.label7981>

0000000000003e5c <.label7981>:
    3e5c:	eb 00                	jmp    3e5e <.label7982>

0000000000003e5e <.label7982>:
    3e5e:	eb 00                	jmp    3e60 <.label7983>

0000000000003e60 <.label7983>:
    3e60:	eb 00                	jmp    3e62 <.label7984>

0000000000003e62 <.label7984>:
    3e62:	eb 00                	jmp    3e64 <.label7985>

0000000000003e64 <.label7985>:
    3e64:	eb 00                	jmp    3e66 <.label7986>

0000000000003e66 <.label7986>:
    3e66:	eb 00                	jmp    3e68 <.label7987>

0000000000003e68 <.label7987>:
    3e68:	eb 00                	jmp    3e6a <.label7988>

0000000000003e6a <.label7988>:
    3e6a:	eb 00                	jmp    3e6c <.label7989>

0000000000003e6c <.label7989>:
    3e6c:	eb 00                	jmp    3e6e <.label7990>

0000000000003e6e <.label7990>:
    3e6e:	eb 00                	jmp    3e70 <.label7991>

0000000000003e70 <.label7991>:
    3e70:	eb 00                	jmp    3e72 <.label7992>

0000000000003e72 <.label7992>:
    3e72:	eb 00                	jmp    3e74 <.label7993>

0000000000003e74 <.label7993>:
    3e74:	eb 00                	jmp    3e76 <.label7994>

0000000000003e76 <.label7994>:
    3e76:	eb 00                	jmp    3e78 <.label7995>

0000000000003e78 <.label7995>:
    3e78:	eb 00                	jmp    3e7a <.label7996>

0000000000003e7a <.label7996>:
    3e7a:	eb 00                	jmp    3e7c <.label7997>

0000000000003e7c <.label7997>:
    3e7c:	eb 00                	jmp    3e7e <.label7998>

0000000000003e7e <.label7998>:
    3e7e:	eb 00                	jmp    3e80 <.label7999>

0000000000003e80 <.label7999>:
    3e80:	eb 00                	jmp    3e82 <.label8000>

0000000000003e82 <.label8000>:
    3e82:	eb 00                	jmp    3e84 <.label8001>

0000000000003e84 <.label8001>:
    3e84:	eb 00                	jmp    3e86 <.label8002>

0000000000003e86 <.label8002>:
    3e86:	eb 00                	jmp    3e88 <.label8003>

0000000000003e88 <.label8003>:
    3e88:	eb 00                	jmp    3e8a <.label8004>

0000000000003e8a <.label8004>:
    3e8a:	eb 00                	jmp    3e8c <.label8005>

0000000000003e8c <.label8005>:
    3e8c:	eb 00                	jmp    3e8e <.label8006>

0000000000003e8e <.label8006>:
    3e8e:	eb 00                	jmp    3e90 <.label8007>

0000000000003e90 <.label8007>:
    3e90:	eb 00                	jmp    3e92 <.label8008>

0000000000003e92 <.label8008>:
    3e92:	eb 00                	jmp    3e94 <.label8009>

0000000000003e94 <.label8009>:
    3e94:	eb 00                	jmp    3e96 <.label8010>

0000000000003e96 <.label8010>:
    3e96:	eb 00                	jmp    3e98 <.label8011>

0000000000003e98 <.label8011>:
    3e98:	eb 00                	jmp    3e9a <.label8012>

0000000000003e9a <.label8012>:
    3e9a:	eb 00                	jmp    3e9c <.label8013>

0000000000003e9c <.label8013>:
    3e9c:	eb 00                	jmp    3e9e <.label8014>

0000000000003e9e <.label8014>:
    3e9e:	eb 00                	jmp    3ea0 <.label8015>

0000000000003ea0 <.label8015>:
    3ea0:	eb 00                	jmp    3ea2 <.label8016>

0000000000003ea2 <.label8016>:
    3ea2:	eb 00                	jmp    3ea4 <.label8017>

0000000000003ea4 <.label8017>:
    3ea4:	eb 00                	jmp    3ea6 <.label8018>

0000000000003ea6 <.label8018>:
    3ea6:	eb 00                	jmp    3ea8 <.label8019>

0000000000003ea8 <.label8019>:
    3ea8:	eb 00                	jmp    3eaa <.label8020>

0000000000003eaa <.label8020>:
    3eaa:	eb 00                	jmp    3eac <.label8021>

0000000000003eac <.label8021>:
    3eac:	eb 00                	jmp    3eae <.label8022>

0000000000003eae <.label8022>:
    3eae:	eb 00                	jmp    3eb0 <.label8023>

0000000000003eb0 <.label8023>:
    3eb0:	eb 00                	jmp    3eb2 <.label8024>

0000000000003eb2 <.label8024>:
    3eb2:	eb 00                	jmp    3eb4 <.label8025>

0000000000003eb4 <.label8025>:
    3eb4:	eb 00                	jmp    3eb6 <.label8026>

0000000000003eb6 <.label8026>:
    3eb6:	eb 00                	jmp    3eb8 <.label8027>

0000000000003eb8 <.label8027>:
    3eb8:	eb 00                	jmp    3eba <.label8028>

0000000000003eba <.label8028>:
    3eba:	eb 00                	jmp    3ebc <.label8029>

0000000000003ebc <.label8029>:
    3ebc:	eb 00                	jmp    3ebe <.label8030>

0000000000003ebe <.label8030>:
    3ebe:	eb 00                	jmp    3ec0 <.label8031>

0000000000003ec0 <.label8031>:
    3ec0:	eb 00                	jmp    3ec2 <.label8032>

0000000000003ec2 <.label8032>:
    3ec2:	eb 00                	jmp    3ec4 <.label8033>

0000000000003ec4 <.label8033>:
    3ec4:	eb 00                	jmp    3ec6 <.label8034>

0000000000003ec6 <.label8034>:
    3ec6:	eb 00                	jmp    3ec8 <.label8035>

0000000000003ec8 <.label8035>:
    3ec8:	eb 00                	jmp    3eca <.label8036>

0000000000003eca <.label8036>:
    3eca:	eb 00                	jmp    3ecc <.label8037>

0000000000003ecc <.label8037>:
    3ecc:	eb 00                	jmp    3ece <.label8038>

0000000000003ece <.label8038>:
    3ece:	eb 00                	jmp    3ed0 <.label8039>

0000000000003ed0 <.label8039>:
    3ed0:	eb 00                	jmp    3ed2 <.label8040>

0000000000003ed2 <.label8040>:
    3ed2:	eb 00                	jmp    3ed4 <.label8041>

0000000000003ed4 <.label8041>:
    3ed4:	eb 00                	jmp    3ed6 <.label8042>

0000000000003ed6 <.label8042>:
    3ed6:	eb 00                	jmp    3ed8 <.label8043>

0000000000003ed8 <.label8043>:
    3ed8:	eb 00                	jmp    3eda <.label8044>

0000000000003eda <.label8044>:
    3eda:	eb 00                	jmp    3edc <.label8045>

0000000000003edc <.label8045>:
    3edc:	eb 00                	jmp    3ede <.label8046>

0000000000003ede <.label8046>:
    3ede:	eb 00                	jmp    3ee0 <.label8047>

0000000000003ee0 <.label8047>:
    3ee0:	eb 00                	jmp    3ee2 <.label8048>

0000000000003ee2 <.label8048>:
    3ee2:	eb 00                	jmp    3ee4 <.label8049>

0000000000003ee4 <.label8049>:
    3ee4:	eb 00                	jmp    3ee6 <.label8050>

0000000000003ee6 <.label8050>:
    3ee6:	eb 00                	jmp    3ee8 <.label8051>

0000000000003ee8 <.label8051>:
    3ee8:	eb 00                	jmp    3eea <.label8052>

0000000000003eea <.label8052>:
    3eea:	eb 00                	jmp    3eec <.label8053>

0000000000003eec <.label8053>:
    3eec:	eb 00                	jmp    3eee <.label8054>

0000000000003eee <.label8054>:
    3eee:	eb 00                	jmp    3ef0 <.label8055>

0000000000003ef0 <.label8055>:
    3ef0:	eb 00                	jmp    3ef2 <.label8056>

0000000000003ef2 <.label8056>:
    3ef2:	eb 00                	jmp    3ef4 <.label8057>

0000000000003ef4 <.label8057>:
    3ef4:	eb 00                	jmp    3ef6 <.label8058>

0000000000003ef6 <.label8058>:
    3ef6:	eb 00                	jmp    3ef8 <.label8059>

0000000000003ef8 <.label8059>:
    3ef8:	eb 00                	jmp    3efa <.label8060>

0000000000003efa <.label8060>:
    3efa:	eb 00                	jmp    3efc <.label8061>

0000000000003efc <.label8061>:
    3efc:	eb 00                	jmp    3efe <.label8062>

0000000000003efe <.label8062>:
    3efe:	eb 00                	jmp    3f00 <.label8063>

0000000000003f00 <.label8063>:
    3f00:	eb 00                	jmp    3f02 <.label8064>

0000000000003f02 <.label8064>:
    3f02:	eb 00                	jmp    3f04 <.label8065>

0000000000003f04 <.label8065>:
    3f04:	eb 00                	jmp    3f06 <.label8066>

0000000000003f06 <.label8066>:
    3f06:	eb 00                	jmp    3f08 <.label8067>

0000000000003f08 <.label8067>:
    3f08:	eb 00                	jmp    3f0a <.label8068>

0000000000003f0a <.label8068>:
    3f0a:	eb 00                	jmp    3f0c <.label8069>

0000000000003f0c <.label8069>:
    3f0c:	eb 00                	jmp    3f0e <.label8070>

0000000000003f0e <.label8070>:
    3f0e:	eb 00                	jmp    3f10 <.label8071>

0000000000003f10 <.label8071>:
    3f10:	eb 00                	jmp    3f12 <.label8072>

0000000000003f12 <.label8072>:
    3f12:	eb 00                	jmp    3f14 <.label8073>

0000000000003f14 <.label8073>:
    3f14:	eb 00                	jmp    3f16 <.label8074>

0000000000003f16 <.label8074>:
    3f16:	eb 00                	jmp    3f18 <.label8075>

0000000000003f18 <.label8075>:
    3f18:	eb 00                	jmp    3f1a <.label8076>

0000000000003f1a <.label8076>:
    3f1a:	eb 00                	jmp    3f1c <.label8077>

0000000000003f1c <.label8077>:
    3f1c:	eb 00                	jmp    3f1e <.label8078>

0000000000003f1e <.label8078>:
    3f1e:	eb 00                	jmp    3f20 <.label8079>

0000000000003f20 <.label8079>:
    3f20:	eb 00                	jmp    3f22 <.label8080>

0000000000003f22 <.label8080>:
    3f22:	eb 00                	jmp    3f24 <.label8081>

0000000000003f24 <.label8081>:
    3f24:	eb 00                	jmp    3f26 <.label8082>

0000000000003f26 <.label8082>:
    3f26:	eb 00                	jmp    3f28 <.label8083>

0000000000003f28 <.label8083>:
    3f28:	eb 00                	jmp    3f2a <.label8084>

0000000000003f2a <.label8084>:
    3f2a:	eb 00                	jmp    3f2c <.label8085>

0000000000003f2c <.label8085>:
    3f2c:	eb 00                	jmp    3f2e <.label8086>

0000000000003f2e <.label8086>:
    3f2e:	eb 00                	jmp    3f30 <.label8087>

0000000000003f30 <.label8087>:
    3f30:	eb 00                	jmp    3f32 <.label8088>

0000000000003f32 <.label8088>:
    3f32:	eb 00                	jmp    3f34 <.label8089>

0000000000003f34 <.label8089>:
    3f34:	eb 00                	jmp    3f36 <.label8090>

0000000000003f36 <.label8090>:
    3f36:	eb 00                	jmp    3f38 <.label8091>

0000000000003f38 <.label8091>:
    3f38:	eb 00                	jmp    3f3a <.label8092>

0000000000003f3a <.label8092>:
    3f3a:	eb 00                	jmp    3f3c <.label8093>

0000000000003f3c <.label8093>:
    3f3c:	eb 00                	jmp    3f3e <.label8094>

0000000000003f3e <.label8094>:
    3f3e:	eb 00                	jmp    3f40 <.label8095>

0000000000003f40 <.label8095>:
    3f40:	eb 00                	jmp    3f42 <.label8096>

0000000000003f42 <.label8096>:
    3f42:	eb 00                	jmp    3f44 <.label8097>

0000000000003f44 <.label8097>:
    3f44:	eb 00                	jmp    3f46 <.label8098>

0000000000003f46 <.label8098>:
    3f46:	eb 00                	jmp    3f48 <.label8099>

0000000000003f48 <.label8099>:
    3f48:	eb 00                	jmp    3f4a <.label8100>

0000000000003f4a <.label8100>:
    3f4a:	eb 00                	jmp    3f4c <.label8101>

0000000000003f4c <.label8101>:
    3f4c:	eb 00                	jmp    3f4e <.label8102>

0000000000003f4e <.label8102>:
    3f4e:	eb 00                	jmp    3f50 <.label8103>

0000000000003f50 <.label8103>:
    3f50:	eb 00                	jmp    3f52 <.label8104>

0000000000003f52 <.label8104>:
    3f52:	eb 00                	jmp    3f54 <.label8105>

0000000000003f54 <.label8105>:
    3f54:	eb 00                	jmp    3f56 <.label8106>

0000000000003f56 <.label8106>:
    3f56:	eb 00                	jmp    3f58 <.label8107>

0000000000003f58 <.label8107>:
    3f58:	eb 00                	jmp    3f5a <.label8108>

0000000000003f5a <.label8108>:
    3f5a:	eb 00                	jmp    3f5c <.label8109>

0000000000003f5c <.label8109>:
    3f5c:	eb 00                	jmp    3f5e <.label8110>

0000000000003f5e <.label8110>:
    3f5e:	eb 00                	jmp    3f60 <.label8111>

0000000000003f60 <.label8111>:
    3f60:	eb 00                	jmp    3f62 <.label8112>

0000000000003f62 <.label8112>:
    3f62:	eb 00                	jmp    3f64 <.label8113>

0000000000003f64 <.label8113>:
    3f64:	eb 00                	jmp    3f66 <.label8114>

0000000000003f66 <.label8114>:
    3f66:	eb 00                	jmp    3f68 <.label8115>

0000000000003f68 <.label8115>:
    3f68:	eb 00                	jmp    3f6a <.label8116>

0000000000003f6a <.label8116>:
    3f6a:	eb 00                	jmp    3f6c <.label8117>

0000000000003f6c <.label8117>:
    3f6c:	eb 00                	jmp    3f6e <.label8118>

0000000000003f6e <.label8118>:
    3f6e:	eb 00                	jmp    3f70 <.label8119>

0000000000003f70 <.label8119>:
    3f70:	eb 00                	jmp    3f72 <.label8120>

0000000000003f72 <.label8120>:
    3f72:	eb 00                	jmp    3f74 <.label8121>

0000000000003f74 <.label8121>:
    3f74:	eb 00                	jmp    3f76 <.label8122>

0000000000003f76 <.label8122>:
    3f76:	eb 00                	jmp    3f78 <.label8123>

0000000000003f78 <.label8123>:
    3f78:	eb 00                	jmp    3f7a <.label8124>

0000000000003f7a <.label8124>:
    3f7a:	eb 00                	jmp    3f7c <.label8125>

0000000000003f7c <.label8125>:
    3f7c:	eb 00                	jmp    3f7e <.label8126>

0000000000003f7e <.label8126>:
    3f7e:	eb 00                	jmp    3f80 <.label8127>

0000000000003f80 <.label8127>:
    3f80:	eb 00                	jmp    3f82 <.label8128>

0000000000003f82 <.label8128>:
    3f82:	eb 00                	jmp    3f84 <.label8129>

0000000000003f84 <.label8129>:
    3f84:	eb 00                	jmp    3f86 <.label8130>

0000000000003f86 <.label8130>:
    3f86:	eb 00                	jmp    3f88 <.label8131>

0000000000003f88 <.label8131>:
    3f88:	eb 00                	jmp    3f8a <.label8132>

0000000000003f8a <.label8132>:
    3f8a:	eb 00                	jmp    3f8c <.label8133>

0000000000003f8c <.label8133>:
    3f8c:	eb 00                	jmp    3f8e <.label8134>

0000000000003f8e <.label8134>:
    3f8e:	eb 00                	jmp    3f90 <.label8135>

0000000000003f90 <.label8135>:
    3f90:	eb 00                	jmp    3f92 <.label8136>

0000000000003f92 <.label8136>:
    3f92:	eb 00                	jmp    3f94 <.label8137>

0000000000003f94 <.label8137>:
    3f94:	eb 00                	jmp    3f96 <.label8138>

0000000000003f96 <.label8138>:
    3f96:	eb 00                	jmp    3f98 <.label8139>

0000000000003f98 <.label8139>:
    3f98:	eb 00                	jmp    3f9a <.label8140>

0000000000003f9a <.label8140>:
    3f9a:	eb 00                	jmp    3f9c <.label8141>

0000000000003f9c <.label8141>:
    3f9c:	eb 00                	jmp    3f9e <.label8142>

0000000000003f9e <.label8142>:
    3f9e:	eb 00                	jmp    3fa0 <.label8143>

0000000000003fa0 <.label8143>:
    3fa0:	eb 00                	jmp    3fa2 <.label8144>

0000000000003fa2 <.label8144>:
    3fa2:	eb 00                	jmp    3fa4 <.label8145>

0000000000003fa4 <.label8145>:
    3fa4:	eb 00                	jmp    3fa6 <.label8146>

0000000000003fa6 <.label8146>:
    3fa6:	eb 00                	jmp    3fa8 <.label8147>

0000000000003fa8 <.label8147>:
    3fa8:	eb 00                	jmp    3faa <.label8148>

0000000000003faa <.label8148>:
    3faa:	eb 00                	jmp    3fac <.label8149>

0000000000003fac <.label8149>:
    3fac:	eb 00                	jmp    3fae <.label8150>

0000000000003fae <.label8150>:
    3fae:	eb 00                	jmp    3fb0 <.label8151>

0000000000003fb0 <.label8151>:
    3fb0:	eb 00                	jmp    3fb2 <.label8152>

0000000000003fb2 <.label8152>:
    3fb2:	eb 00                	jmp    3fb4 <.label8153>

0000000000003fb4 <.label8153>:
    3fb4:	eb 00                	jmp    3fb6 <.label8154>

0000000000003fb6 <.label8154>:
    3fb6:	eb 00                	jmp    3fb8 <.label8155>

0000000000003fb8 <.label8155>:
    3fb8:	eb 00                	jmp    3fba <.label8156>

0000000000003fba <.label8156>:
    3fba:	eb 00                	jmp    3fbc <.label8157>

0000000000003fbc <.label8157>:
    3fbc:	eb 00                	jmp    3fbe <.label8158>

0000000000003fbe <.label8158>:
    3fbe:	eb 00                	jmp    3fc0 <.label8159>

0000000000003fc0 <.label8159>:
    3fc0:	eb 00                	jmp    3fc2 <.label8160>

0000000000003fc2 <.label8160>:
    3fc2:	eb 00                	jmp    3fc4 <.label8161>

0000000000003fc4 <.label8161>:
    3fc4:	eb 00                	jmp    3fc6 <.label8162>

0000000000003fc6 <.label8162>:
    3fc6:	eb 00                	jmp    3fc8 <.label8163>

0000000000003fc8 <.label8163>:
    3fc8:	eb 00                	jmp    3fca <.label8164>

0000000000003fca <.label8164>:
    3fca:	eb 00                	jmp    3fcc <.label8165>

0000000000003fcc <.label8165>:
    3fcc:	eb 00                	jmp    3fce <.label8166>

0000000000003fce <.label8166>:
    3fce:	eb 00                	jmp    3fd0 <.label8167>

0000000000003fd0 <.label8167>:
    3fd0:	eb 00                	jmp    3fd2 <.label8168>

0000000000003fd2 <.label8168>:
    3fd2:	eb 00                	jmp    3fd4 <.label8169>

0000000000003fd4 <.label8169>:
    3fd4:	eb 00                	jmp    3fd6 <.label8170>

0000000000003fd6 <.label8170>:
    3fd6:	eb 00                	jmp    3fd8 <.label8171>

0000000000003fd8 <.label8171>:
    3fd8:	eb 00                	jmp    3fda <.label8172>

0000000000003fda <.label8172>:
    3fda:	eb 00                	jmp    3fdc <.label8173>

0000000000003fdc <.label8173>:
    3fdc:	eb 00                	jmp    3fde <.label8174>

0000000000003fde <.label8174>:
    3fde:	eb 00                	jmp    3fe0 <.label8175>

0000000000003fe0 <.label8175>:
    3fe0:	eb 00                	jmp    3fe2 <.label8176>

0000000000003fe2 <.label8176>:
    3fe2:	eb 00                	jmp    3fe4 <.label8177>

0000000000003fe4 <.label8177>:
    3fe4:	eb 00                	jmp    3fe6 <.label8178>

0000000000003fe6 <.label8178>:
    3fe6:	eb 00                	jmp    3fe8 <.label8179>

0000000000003fe8 <.label8179>:
    3fe8:	eb 00                	jmp    3fea <.label8180>

0000000000003fea <.label8180>:
    3fea:	eb 00                	jmp    3fec <.label8181>

0000000000003fec <.label8181>:
    3fec:	eb 00                	jmp    3fee <.label8182>

0000000000003fee <.label8182>:
    3fee:	eb 00                	jmp    3ff0 <.label8183>

0000000000003ff0 <.label8183>:
    3ff0:	eb 00                	jmp    3ff2 <.label8184>

0000000000003ff2 <.label8184>:
    3ff2:	eb 00                	jmp    3ff4 <.label8185>

0000000000003ff4 <.label8185>:
    3ff4:	eb 00                	jmp    3ff6 <.label8186>

0000000000003ff6 <.label8186>:
    3ff6:	eb 00                	jmp    3ff8 <.label8187>

0000000000003ff8 <.label8187>:
    3ff8:	eb 00                	jmp    3ffa <.label8188>

0000000000003ffa <.label8188>:
    3ffa:	eb 00                	jmp    3ffc <.label8189>

0000000000003ffc <.label8189>:
    3ffc:	eb 00                	jmp    3ffe <.label8190>

0000000000003ffe <.label8190>:
    3ffe:	eb 00                	jmp    4000 <.label8191>

0000000000004000 <.label8191>:
    4000:	eb 00                	jmp    4002 <.label8192>

0000000000004002 <.label8192>:
    4002:	eb 00                	jmp    4004 <.label8193>

0000000000004004 <.label8193>:
    4004:	eb 00                	jmp    4006 <.label8194>

0000000000004006 <.label8194>:
    4006:	eb 00                	jmp    4008 <.label8195>

0000000000004008 <.label8195>:
    4008:	eb 00                	jmp    400a <.label8196>

000000000000400a <.label8196>:
    400a:	eb 00                	jmp    400c <.label8197>

000000000000400c <.label8197>:
    400c:	eb 00                	jmp    400e <.label8198>

000000000000400e <.label8198>:
    400e:	eb 00                	jmp    4010 <.label8199>

0000000000004010 <.label8199>:
    4010:	eb 00                	jmp    4012 <.label8200>

0000000000004012 <.label8200>:
    4012:	eb 00                	jmp    4014 <.label8201>

0000000000004014 <.label8201>:
    4014:	eb 00                	jmp    4016 <.label8202>

0000000000004016 <.label8202>:
    4016:	eb 00                	jmp    4018 <.label8203>

0000000000004018 <.label8203>:
    4018:	eb 00                	jmp    401a <.label8204>

000000000000401a <.label8204>:
    401a:	eb 00                	jmp    401c <.label8205>

000000000000401c <.label8205>:
    401c:	eb 00                	jmp    401e <.label8206>

000000000000401e <.label8206>:
    401e:	eb 00                	jmp    4020 <.label8207>

0000000000004020 <.label8207>:
    4020:	eb 00                	jmp    4022 <.label8208>

0000000000004022 <.label8208>:
    4022:	eb 00                	jmp    4024 <.label8209>

0000000000004024 <.label8209>:
    4024:	eb 00                	jmp    4026 <.label8210>

0000000000004026 <.label8210>:
    4026:	eb 00                	jmp    4028 <.label8211>

0000000000004028 <.label8211>:
    4028:	eb 00                	jmp    402a <.label8212>

000000000000402a <.label8212>:
    402a:	eb 00                	jmp    402c <.label8213>

000000000000402c <.label8213>:
    402c:	eb 00                	jmp    402e <.label8214>

000000000000402e <.label8214>:
    402e:	eb 00                	jmp    4030 <.label8215>

0000000000004030 <.label8215>:
    4030:	eb 00                	jmp    4032 <.label8216>

0000000000004032 <.label8216>:
    4032:	eb 00                	jmp    4034 <.label8217>

0000000000004034 <.label8217>:
    4034:	eb 00                	jmp    4036 <.label8218>

0000000000004036 <.label8218>:
    4036:	eb 00                	jmp    4038 <.label8219>

0000000000004038 <.label8219>:
    4038:	eb 00                	jmp    403a <.label8220>

000000000000403a <.label8220>:
    403a:	eb 00                	jmp    403c <.label8221>

000000000000403c <.label8221>:
    403c:	eb 00                	jmp    403e <.label8222>

000000000000403e <.label8222>:
    403e:	eb 00                	jmp    4040 <.label8223>

0000000000004040 <.label8223>:
    4040:	eb 00                	jmp    4042 <.label8224>

0000000000004042 <.label8224>:
    4042:	eb 00                	jmp    4044 <.label8225>

0000000000004044 <.label8225>:
    4044:	eb 00                	jmp    4046 <.label8226>

0000000000004046 <.label8226>:
    4046:	eb 00                	jmp    4048 <.label8227>

0000000000004048 <.label8227>:
    4048:	eb 00                	jmp    404a <.label8228>

000000000000404a <.label8228>:
    404a:	eb 00                	jmp    404c <.label8229>

000000000000404c <.label8229>:
    404c:	eb 00                	jmp    404e <.label8230>

000000000000404e <.label8230>:
    404e:	eb 00                	jmp    4050 <.label8231>

0000000000004050 <.label8231>:
    4050:	eb 00                	jmp    4052 <.label8232>

0000000000004052 <.label8232>:
    4052:	eb 00                	jmp    4054 <.label8233>

0000000000004054 <.label8233>:
    4054:	eb 00                	jmp    4056 <.label8234>

0000000000004056 <.label8234>:
    4056:	eb 00                	jmp    4058 <.label8235>

0000000000004058 <.label8235>:
    4058:	eb 00                	jmp    405a <.label8236>

000000000000405a <.label8236>:
    405a:	eb 00                	jmp    405c <.label8237>

000000000000405c <.label8237>:
    405c:	eb 00                	jmp    405e <.label8238>

000000000000405e <.label8238>:
    405e:	eb 00                	jmp    4060 <.label8239>

0000000000004060 <.label8239>:
    4060:	eb 00                	jmp    4062 <.label8240>

0000000000004062 <.label8240>:
    4062:	eb 00                	jmp    4064 <.label8241>

0000000000004064 <.label8241>:
    4064:	eb 00                	jmp    4066 <.label8242>

0000000000004066 <.label8242>:
    4066:	eb 00                	jmp    4068 <.label8243>

0000000000004068 <.label8243>:
    4068:	eb 00                	jmp    406a <.label8244>

000000000000406a <.label8244>:
    406a:	eb 00                	jmp    406c <.label8245>

000000000000406c <.label8245>:
    406c:	eb 00                	jmp    406e <.label8246>

000000000000406e <.label8246>:
    406e:	eb 00                	jmp    4070 <.label8247>

0000000000004070 <.label8247>:
    4070:	eb 00                	jmp    4072 <.label8248>

0000000000004072 <.label8248>:
    4072:	eb 00                	jmp    4074 <.label8249>

0000000000004074 <.label8249>:
    4074:	eb 00                	jmp    4076 <.label8250>

0000000000004076 <.label8250>:
    4076:	eb 00                	jmp    4078 <.label8251>

0000000000004078 <.label8251>:
    4078:	eb 00                	jmp    407a <.label8252>

000000000000407a <.label8252>:
    407a:	eb 00                	jmp    407c <.label8253>

000000000000407c <.label8253>:
    407c:	eb 00                	jmp    407e <.label8254>

000000000000407e <.label8254>:
    407e:	eb 00                	jmp    4080 <.label8255>

0000000000004080 <.label8255>:
    4080:	eb 00                	jmp    4082 <.label8256>

0000000000004082 <.label8256>:
    4082:	eb 00                	jmp    4084 <.label8257>

0000000000004084 <.label8257>:
    4084:	eb 00                	jmp    4086 <.label8258>

0000000000004086 <.label8258>:
    4086:	eb 00                	jmp    4088 <.label8259>

0000000000004088 <.label8259>:
    4088:	eb 00                	jmp    408a <.label8260>

000000000000408a <.label8260>:
    408a:	eb 00                	jmp    408c <.label8261>

000000000000408c <.label8261>:
    408c:	eb 00                	jmp    408e <.label8262>

000000000000408e <.label8262>:
    408e:	eb 00                	jmp    4090 <.label8263>

0000000000004090 <.label8263>:
    4090:	eb 00                	jmp    4092 <.label8264>

0000000000004092 <.label8264>:
    4092:	eb 00                	jmp    4094 <.label8265>

0000000000004094 <.label8265>:
    4094:	eb 00                	jmp    4096 <.label8266>

0000000000004096 <.label8266>:
    4096:	eb 00                	jmp    4098 <.label8267>

0000000000004098 <.label8267>:
    4098:	eb 00                	jmp    409a <.label8268>

000000000000409a <.label8268>:
    409a:	eb 00                	jmp    409c <.label8269>

000000000000409c <.label8269>:
    409c:	eb 00                	jmp    409e <.label8270>

000000000000409e <.label8270>:
    409e:	eb 00                	jmp    40a0 <.label8271>

00000000000040a0 <.label8271>:
    40a0:	eb 00                	jmp    40a2 <.label8272>

00000000000040a2 <.label8272>:
    40a2:	eb 00                	jmp    40a4 <.label8273>

00000000000040a4 <.label8273>:
    40a4:	eb 00                	jmp    40a6 <.label8274>

00000000000040a6 <.label8274>:
    40a6:	eb 00                	jmp    40a8 <.label8275>

00000000000040a8 <.label8275>:
    40a8:	eb 00                	jmp    40aa <.label8276>

00000000000040aa <.label8276>:
    40aa:	eb 00                	jmp    40ac <.label8277>

00000000000040ac <.label8277>:
    40ac:	eb 00                	jmp    40ae <.label8278>

00000000000040ae <.label8278>:
    40ae:	eb 00                	jmp    40b0 <.label8279>

00000000000040b0 <.label8279>:
    40b0:	eb 00                	jmp    40b2 <.label8280>

00000000000040b2 <.label8280>:
    40b2:	eb 00                	jmp    40b4 <.label8281>

00000000000040b4 <.label8281>:
    40b4:	eb 00                	jmp    40b6 <.label8282>

00000000000040b6 <.label8282>:
    40b6:	eb 00                	jmp    40b8 <.label8283>

00000000000040b8 <.label8283>:
    40b8:	eb 00                	jmp    40ba <.label8284>

00000000000040ba <.label8284>:
    40ba:	eb 00                	jmp    40bc <.label8285>

00000000000040bc <.label8285>:
    40bc:	eb 00                	jmp    40be <.label8286>

00000000000040be <.label8286>:
    40be:	eb 00                	jmp    40c0 <.label8287>

00000000000040c0 <.label8287>:
    40c0:	eb 00                	jmp    40c2 <.label8288>

00000000000040c2 <.label8288>:
    40c2:	eb 00                	jmp    40c4 <.label8289>

00000000000040c4 <.label8289>:
    40c4:	eb 00                	jmp    40c6 <.label8290>

00000000000040c6 <.label8290>:
    40c6:	eb 00                	jmp    40c8 <.label8291>

00000000000040c8 <.label8291>:
    40c8:	eb 00                	jmp    40ca <.label8292>

00000000000040ca <.label8292>:
    40ca:	eb 00                	jmp    40cc <.label8293>

00000000000040cc <.label8293>:
    40cc:	eb 00                	jmp    40ce <.label8294>

00000000000040ce <.label8294>:
    40ce:	eb 00                	jmp    40d0 <.label8295>

00000000000040d0 <.label8295>:
    40d0:	eb 00                	jmp    40d2 <.label8296>

00000000000040d2 <.label8296>:
    40d2:	eb 00                	jmp    40d4 <.label8297>

00000000000040d4 <.label8297>:
    40d4:	eb 00                	jmp    40d6 <.label8298>

00000000000040d6 <.label8298>:
    40d6:	eb 00                	jmp    40d8 <.label8299>

00000000000040d8 <.label8299>:
    40d8:	eb 00                	jmp    40da <.label8300>

00000000000040da <.label8300>:
    40da:	eb 00                	jmp    40dc <.label8301>

00000000000040dc <.label8301>:
    40dc:	eb 00                	jmp    40de <.label8302>

00000000000040de <.label8302>:
    40de:	eb 00                	jmp    40e0 <.label8303>

00000000000040e0 <.label8303>:
    40e0:	eb 00                	jmp    40e2 <.label8304>

00000000000040e2 <.label8304>:
    40e2:	eb 00                	jmp    40e4 <.label8305>

00000000000040e4 <.label8305>:
    40e4:	eb 00                	jmp    40e6 <.label8306>

00000000000040e6 <.label8306>:
    40e6:	eb 00                	jmp    40e8 <.label8307>

00000000000040e8 <.label8307>:
    40e8:	eb 00                	jmp    40ea <.label8308>

00000000000040ea <.label8308>:
    40ea:	eb 00                	jmp    40ec <.label8309>

00000000000040ec <.label8309>:
    40ec:	eb 00                	jmp    40ee <.label8310>

00000000000040ee <.label8310>:
    40ee:	eb 00                	jmp    40f0 <.label8311>

00000000000040f0 <.label8311>:
    40f0:	eb 00                	jmp    40f2 <.label8312>

00000000000040f2 <.label8312>:
    40f2:	eb 00                	jmp    40f4 <.label8313>

00000000000040f4 <.label8313>:
    40f4:	eb 00                	jmp    40f6 <.label8314>

00000000000040f6 <.label8314>:
    40f6:	eb 00                	jmp    40f8 <.label8315>

00000000000040f8 <.label8315>:
    40f8:	eb 00                	jmp    40fa <.label8316>

00000000000040fa <.label8316>:
    40fa:	eb 00                	jmp    40fc <.label8317>

00000000000040fc <.label8317>:
    40fc:	eb 00                	jmp    40fe <.label8318>

00000000000040fe <.label8318>:
    40fe:	eb 00                	jmp    4100 <.label8319>

0000000000004100 <.label8319>:
    4100:	eb 00                	jmp    4102 <.label8320>

0000000000004102 <.label8320>:
    4102:	eb 00                	jmp    4104 <.label8321>

0000000000004104 <.label8321>:
    4104:	eb 00                	jmp    4106 <.label8322>

0000000000004106 <.label8322>:
    4106:	eb 00                	jmp    4108 <.label8323>

0000000000004108 <.label8323>:
    4108:	eb 00                	jmp    410a <.label8324>

000000000000410a <.label8324>:
    410a:	eb 00                	jmp    410c <.label8325>

000000000000410c <.label8325>:
    410c:	eb 00                	jmp    410e <.label8326>

000000000000410e <.label8326>:
    410e:	eb 00                	jmp    4110 <.label8327>

0000000000004110 <.label8327>:
    4110:	eb 00                	jmp    4112 <.label8328>

0000000000004112 <.label8328>:
    4112:	eb 00                	jmp    4114 <.label8329>

0000000000004114 <.label8329>:
    4114:	eb 00                	jmp    4116 <.label8330>

0000000000004116 <.label8330>:
    4116:	eb 00                	jmp    4118 <.label8331>

0000000000004118 <.label8331>:
    4118:	eb 00                	jmp    411a <.label8332>

000000000000411a <.label8332>:
    411a:	eb 00                	jmp    411c <.label8333>

000000000000411c <.label8333>:
    411c:	eb 00                	jmp    411e <.label8334>

000000000000411e <.label8334>:
    411e:	eb 00                	jmp    4120 <.label8335>

0000000000004120 <.label8335>:
    4120:	eb 00                	jmp    4122 <.label8336>

0000000000004122 <.label8336>:
    4122:	eb 00                	jmp    4124 <.label8337>

0000000000004124 <.label8337>:
    4124:	eb 00                	jmp    4126 <.label8338>

0000000000004126 <.label8338>:
    4126:	eb 00                	jmp    4128 <.label8339>

0000000000004128 <.label8339>:
    4128:	eb 00                	jmp    412a <.label8340>

000000000000412a <.label8340>:
    412a:	eb 00                	jmp    412c <.label8341>

000000000000412c <.label8341>:
    412c:	eb 00                	jmp    412e <.label8342>

000000000000412e <.label8342>:
    412e:	eb 00                	jmp    4130 <.label8343>

0000000000004130 <.label8343>:
    4130:	eb 00                	jmp    4132 <.label8344>

0000000000004132 <.label8344>:
    4132:	eb 00                	jmp    4134 <.label8345>

0000000000004134 <.label8345>:
    4134:	eb 00                	jmp    4136 <.label8346>

0000000000004136 <.label8346>:
    4136:	eb 00                	jmp    4138 <.label8347>

0000000000004138 <.label8347>:
    4138:	eb 00                	jmp    413a <.label8348>

000000000000413a <.label8348>:
    413a:	eb 00                	jmp    413c <.label8349>

000000000000413c <.label8349>:
    413c:	eb 00                	jmp    413e <.label8350>

000000000000413e <.label8350>:
    413e:	eb 00                	jmp    4140 <.label8351>

0000000000004140 <.label8351>:
    4140:	eb 00                	jmp    4142 <.label8352>

0000000000004142 <.label8352>:
    4142:	eb 00                	jmp    4144 <.label8353>

0000000000004144 <.label8353>:
    4144:	eb 00                	jmp    4146 <.label8354>

0000000000004146 <.label8354>:
    4146:	eb 00                	jmp    4148 <.label8355>

0000000000004148 <.label8355>:
    4148:	eb 00                	jmp    414a <.label8356>

000000000000414a <.label8356>:
    414a:	eb 00                	jmp    414c <.label8357>

000000000000414c <.label8357>:
    414c:	eb 00                	jmp    414e <.label8358>

000000000000414e <.label8358>:
    414e:	eb 00                	jmp    4150 <.label8359>

0000000000004150 <.label8359>:
    4150:	eb 00                	jmp    4152 <.label8360>

0000000000004152 <.label8360>:
    4152:	eb 00                	jmp    4154 <.label8361>

0000000000004154 <.label8361>:
    4154:	eb 00                	jmp    4156 <.label8362>

0000000000004156 <.label8362>:
    4156:	eb 00                	jmp    4158 <.label8363>

0000000000004158 <.label8363>:
    4158:	eb 00                	jmp    415a <.label8364>

000000000000415a <.label8364>:
    415a:	eb 00                	jmp    415c <.label8365>

000000000000415c <.label8365>:
    415c:	eb 00                	jmp    415e <.label8366>

000000000000415e <.label8366>:
    415e:	eb 00                	jmp    4160 <.label8367>

0000000000004160 <.label8367>:
    4160:	eb 00                	jmp    4162 <.label8368>

0000000000004162 <.label8368>:
    4162:	eb 00                	jmp    4164 <.label8369>

0000000000004164 <.label8369>:
    4164:	eb 00                	jmp    4166 <.label8370>

0000000000004166 <.label8370>:
    4166:	eb 00                	jmp    4168 <.label8371>

0000000000004168 <.label8371>:
    4168:	eb 00                	jmp    416a <.label8372>

000000000000416a <.label8372>:
    416a:	eb 00                	jmp    416c <.label8373>

000000000000416c <.label8373>:
    416c:	eb 00                	jmp    416e <.label8374>

000000000000416e <.label8374>:
    416e:	eb 00                	jmp    4170 <.label8375>

0000000000004170 <.label8375>:
    4170:	eb 00                	jmp    4172 <.label8376>

0000000000004172 <.label8376>:
    4172:	eb 00                	jmp    4174 <.label8377>

0000000000004174 <.label8377>:
    4174:	eb 00                	jmp    4176 <.label8378>

0000000000004176 <.label8378>:
    4176:	eb 00                	jmp    4178 <.label8379>

0000000000004178 <.label8379>:
    4178:	eb 00                	jmp    417a <.label8380>

000000000000417a <.label8380>:
    417a:	eb 00                	jmp    417c <.label8381>

000000000000417c <.label8381>:
    417c:	eb 00                	jmp    417e <.label8382>

000000000000417e <.label8382>:
    417e:	eb 00                	jmp    4180 <.label8383>

0000000000004180 <.label8383>:
    4180:	eb 00                	jmp    4182 <.label8384>

0000000000004182 <.label8384>:
    4182:	eb 00                	jmp    4184 <.label8385>

0000000000004184 <.label8385>:
    4184:	eb 00                	jmp    4186 <.label8386>

0000000000004186 <.label8386>:
    4186:	eb 00                	jmp    4188 <.label8387>

0000000000004188 <.label8387>:
    4188:	eb 00                	jmp    418a <.label8388>

000000000000418a <.label8388>:
    418a:	eb 00                	jmp    418c <.label8389>

000000000000418c <.label8389>:
    418c:	eb 00                	jmp    418e <.label8390>

000000000000418e <.label8390>:
    418e:	eb 00                	jmp    4190 <.label8391>

0000000000004190 <.label8391>:
    4190:	eb 00                	jmp    4192 <.label8392>

0000000000004192 <.label8392>:
    4192:	eb 00                	jmp    4194 <.label8393>

0000000000004194 <.label8393>:
    4194:	eb 00                	jmp    4196 <.label8394>

0000000000004196 <.label8394>:
    4196:	eb 00                	jmp    4198 <.label8395>

0000000000004198 <.label8395>:
    4198:	eb 00                	jmp    419a <.label8396>

000000000000419a <.label8396>:
    419a:	eb 00                	jmp    419c <.label8397>

000000000000419c <.label8397>:
    419c:	eb 00                	jmp    419e <.label8398>

000000000000419e <.label8398>:
    419e:	eb 00                	jmp    41a0 <.label8399>

00000000000041a0 <.label8399>:
    41a0:	eb 00                	jmp    41a2 <.label8400>

00000000000041a2 <.label8400>:
    41a2:	eb 00                	jmp    41a4 <.label8401>

00000000000041a4 <.label8401>:
    41a4:	eb 00                	jmp    41a6 <.label8402>

00000000000041a6 <.label8402>:
    41a6:	eb 00                	jmp    41a8 <.label8403>

00000000000041a8 <.label8403>:
    41a8:	eb 00                	jmp    41aa <.label8404>

00000000000041aa <.label8404>:
    41aa:	eb 00                	jmp    41ac <.label8405>

00000000000041ac <.label8405>:
    41ac:	eb 00                	jmp    41ae <.label8406>

00000000000041ae <.label8406>:
    41ae:	eb 00                	jmp    41b0 <.label8407>

00000000000041b0 <.label8407>:
    41b0:	eb 00                	jmp    41b2 <.label8408>

00000000000041b2 <.label8408>:
    41b2:	eb 00                	jmp    41b4 <.label8409>

00000000000041b4 <.label8409>:
    41b4:	eb 00                	jmp    41b6 <.label8410>

00000000000041b6 <.label8410>:
    41b6:	eb 00                	jmp    41b8 <.label8411>

00000000000041b8 <.label8411>:
    41b8:	eb 00                	jmp    41ba <.label8412>

00000000000041ba <.label8412>:
    41ba:	eb 00                	jmp    41bc <.label8413>

00000000000041bc <.label8413>:
    41bc:	eb 00                	jmp    41be <.label8414>

00000000000041be <.label8414>:
    41be:	eb 00                	jmp    41c0 <.label8415>

00000000000041c0 <.label8415>:
    41c0:	eb 00                	jmp    41c2 <.label8416>

00000000000041c2 <.label8416>:
    41c2:	eb 00                	jmp    41c4 <.label8417>

00000000000041c4 <.label8417>:
    41c4:	eb 00                	jmp    41c6 <.label8418>

00000000000041c6 <.label8418>:
    41c6:	eb 00                	jmp    41c8 <.label8419>

00000000000041c8 <.label8419>:
    41c8:	eb 00                	jmp    41ca <.label8420>

00000000000041ca <.label8420>:
    41ca:	eb 00                	jmp    41cc <.label8421>

00000000000041cc <.label8421>:
    41cc:	eb 00                	jmp    41ce <.label8422>

00000000000041ce <.label8422>:
    41ce:	eb 00                	jmp    41d0 <.label8423>

00000000000041d0 <.label8423>:
    41d0:	eb 00                	jmp    41d2 <.label8424>

00000000000041d2 <.label8424>:
    41d2:	eb 00                	jmp    41d4 <.label8425>

00000000000041d4 <.label8425>:
    41d4:	eb 00                	jmp    41d6 <.label8426>

00000000000041d6 <.label8426>:
    41d6:	eb 00                	jmp    41d8 <.label8427>

00000000000041d8 <.label8427>:
    41d8:	eb 00                	jmp    41da <.label8428>

00000000000041da <.label8428>:
    41da:	eb 00                	jmp    41dc <.label8429>

00000000000041dc <.label8429>:
    41dc:	eb 00                	jmp    41de <.label8430>

00000000000041de <.label8430>:
    41de:	eb 00                	jmp    41e0 <.label8431>

00000000000041e0 <.label8431>:
    41e0:	eb 00                	jmp    41e2 <.label8432>

00000000000041e2 <.label8432>:
    41e2:	eb 00                	jmp    41e4 <.label8433>

00000000000041e4 <.label8433>:
    41e4:	eb 00                	jmp    41e6 <.label8434>

00000000000041e6 <.label8434>:
    41e6:	eb 00                	jmp    41e8 <.label8435>

00000000000041e8 <.label8435>:
    41e8:	eb 00                	jmp    41ea <.label8436>

00000000000041ea <.label8436>:
    41ea:	eb 00                	jmp    41ec <.label8437>

00000000000041ec <.label8437>:
    41ec:	eb 00                	jmp    41ee <.label8438>

00000000000041ee <.label8438>:
    41ee:	eb 00                	jmp    41f0 <.label8439>

00000000000041f0 <.label8439>:
    41f0:	eb 00                	jmp    41f2 <.label8440>

00000000000041f2 <.label8440>:
    41f2:	eb 00                	jmp    41f4 <.label8441>

00000000000041f4 <.label8441>:
    41f4:	eb 00                	jmp    41f6 <.label8442>

00000000000041f6 <.label8442>:
    41f6:	eb 00                	jmp    41f8 <.label8443>

00000000000041f8 <.label8443>:
    41f8:	eb 00                	jmp    41fa <.label8444>

00000000000041fa <.label8444>:
    41fa:	eb 00                	jmp    41fc <.label8445>

00000000000041fc <.label8445>:
    41fc:	eb 00                	jmp    41fe <.label8446>

00000000000041fe <.label8446>:
    41fe:	eb 00                	jmp    4200 <.label8447>

0000000000004200 <.label8447>:
    4200:	eb 00                	jmp    4202 <.label8448>

0000000000004202 <.label8448>:
    4202:	eb 00                	jmp    4204 <.label8449>

0000000000004204 <.label8449>:
    4204:	eb 00                	jmp    4206 <.label8450>

0000000000004206 <.label8450>:
    4206:	eb 00                	jmp    4208 <.label8451>

0000000000004208 <.label8451>:
    4208:	eb 00                	jmp    420a <.label8452>

000000000000420a <.label8452>:
    420a:	eb 00                	jmp    420c <.label8453>

000000000000420c <.label8453>:
    420c:	eb 00                	jmp    420e <.label8454>

000000000000420e <.label8454>:
    420e:	eb 00                	jmp    4210 <.label8455>

0000000000004210 <.label8455>:
    4210:	eb 00                	jmp    4212 <.label8456>

0000000000004212 <.label8456>:
    4212:	eb 00                	jmp    4214 <.label8457>

0000000000004214 <.label8457>:
    4214:	eb 00                	jmp    4216 <.label8458>

0000000000004216 <.label8458>:
    4216:	eb 00                	jmp    4218 <.label8459>

0000000000004218 <.label8459>:
    4218:	eb 00                	jmp    421a <.label8460>

000000000000421a <.label8460>:
    421a:	eb 00                	jmp    421c <.label8461>

000000000000421c <.label8461>:
    421c:	eb 00                	jmp    421e <.label8462>

000000000000421e <.label8462>:
    421e:	eb 00                	jmp    4220 <.label8463>

0000000000004220 <.label8463>:
    4220:	eb 00                	jmp    4222 <.label8464>

0000000000004222 <.label8464>:
    4222:	eb 00                	jmp    4224 <.label8465>

0000000000004224 <.label8465>:
    4224:	eb 00                	jmp    4226 <.label8466>

0000000000004226 <.label8466>:
    4226:	eb 00                	jmp    4228 <.label8467>

0000000000004228 <.label8467>:
    4228:	eb 00                	jmp    422a <.label8468>

000000000000422a <.label8468>:
    422a:	eb 00                	jmp    422c <.label8469>

000000000000422c <.label8469>:
    422c:	eb 00                	jmp    422e <.label8470>

000000000000422e <.label8470>:
    422e:	eb 00                	jmp    4230 <.label8471>

0000000000004230 <.label8471>:
    4230:	eb 00                	jmp    4232 <.label8472>

0000000000004232 <.label8472>:
    4232:	eb 00                	jmp    4234 <.label8473>

0000000000004234 <.label8473>:
    4234:	eb 00                	jmp    4236 <.label8474>

0000000000004236 <.label8474>:
    4236:	eb 00                	jmp    4238 <.label8475>

0000000000004238 <.label8475>:
    4238:	eb 00                	jmp    423a <.label8476>

000000000000423a <.label8476>:
    423a:	eb 00                	jmp    423c <.label8477>

000000000000423c <.label8477>:
    423c:	eb 00                	jmp    423e <.label8478>

000000000000423e <.label8478>:
    423e:	eb 00                	jmp    4240 <.label8479>

0000000000004240 <.label8479>:
    4240:	eb 00                	jmp    4242 <.label8480>

0000000000004242 <.label8480>:
    4242:	eb 00                	jmp    4244 <.label8481>

0000000000004244 <.label8481>:
    4244:	eb 00                	jmp    4246 <.label8482>

0000000000004246 <.label8482>:
    4246:	eb 00                	jmp    4248 <.label8483>

0000000000004248 <.label8483>:
    4248:	eb 00                	jmp    424a <.label8484>

000000000000424a <.label8484>:
    424a:	eb 00                	jmp    424c <.label8485>

000000000000424c <.label8485>:
    424c:	eb 00                	jmp    424e <.label8486>

000000000000424e <.label8486>:
    424e:	eb 00                	jmp    4250 <.label8487>

0000000000004250 <.label8487>:
    4250:	eb 00                	jmp    4252 <.label8488>

0000000000004252 <.label8488>:
    4252:	eb 00                	jmp    4254 <.label8489>

0000000000004254 <.label8489>:
    4254:	eb 00                	jmp    4256 <.label8490>

0000000000004256 <.label8490>:
    4256:	eb 00                	jmp    4258 <.label8491>

0000000000004258 <.label8491>:
    4258:	eb 00                	jmp    425a <.label8492>

000000000000425a <.label8492>:
    425a:	eb 00                	jmp    425c <.label8493>

000000000000425c <.label8493>:
    425c:	eb 00                	jmp    425e <.label8494>

000000000000425e <.label8494>:
    425e:	eb 00                	jmp    4260 <.label8495>

0000000000004260 <.label8495>:
    4260:	eb 00                	jmp    4262 <.label8496>

0000000000004262 <.label8496>:
    4262:	eb 00                	jmp    4264 <.label8497>

0000000000004264 <.label8497>:
    4264:	eb 00                	jmp    4266 <.label8498>

0000000000004266 <.label8498>:
    4266:	eb 00                	jmp    4268 <.label8499>

0000000000004268 <.label8499>:
    4268:	eb 00                	jmp    426a <.label8500>

000000000000426a <.label8500>:
    426a:	eb 00                	jmp    426c <.label8501>

000000000000426c <.label8501>:
    426c:	eb 00                	jmp    426e <.label8502>

000000000000426e <.label8502>:
    426e:	eb 00                	jmp    4270 <.label8503>

0000000000004270 <.label8503>:
    4270:	eb 00                	jmp    4272 <.label8504>

0000000000004272 <.label8504>:
    4272:	eb 00                	jmp    4274 <.label8505>

0000000000004274 <.label8505>:
    4274:	eb 00                	jmp    4276 <.label8506>

0000000000004276 <.label8506>:
    4276:	eb 00                	jmp    4278 <.label8507>

0000000000004278 <.label8507>:
    4278:	eb 00                	jmp    427a <.label8508>

000000000000427a <.label8508>:
    427a:	eb 00                	jmp    427c <.label8509>

000000000000427c <.label8509>:
    427c:	eb 00                	jmp    427e <.label8510>

000000000000427e <.label8510>:
    427e:	eb 00                	jmp    4280 <.label8511>

0000000000004280 <.label8511>:
    4280:	eb 00                	jmp    4282 <.label8512>

0000000000004282 <.label8512>:
    4282:	eb 00                	jmp    4284 <.label8513>

0000000000004284 <.label8513>:
    4284:	eb 00                	jmp    4286 <.label8514>

0000000000004286 <.label8514>:
    4286:	eb 00                	jmp    4288 <.label8515>

0000000000004288 <.label8515>:
    4288:	eb 00                	jmp    428a <.label8516>

000000000000428a <.label8516>:
    428a:	eb 00                	jmp    428c <.label8517>

000000000000428c <.label8517>:
    428c:	eb 00                	jmp    428e <.label8518>

000000000000428e <.label8518>:
    428e:	eb 00                	jmp    4290 <.label8519>

0000000000004290 <.label8519>:
    4290:	eb 00                	jmp    4292 <.label8520>

0000000000004292 <.label8520>:
    4292:	eb 00                	jmp    4294 <.label8521>

0000000000004294 <.label8521>:
    4294:	eb 00                	jmp    4296 <.label8522>

0000000000004296 <.label8522>:
    4296:	eb 00                	jmp    4298 <.label8523>

0000000000004298 <.label8523>:
    4298:	eb 00                	jmp    429a <.label8524>

000000000000429a <.label8524>:
    429a:	eb 00                	jmp    429c <.label8525>

000000000000429c <.label8525>:
    429c:	eb 00                	jmp    429e <.label8526>

000000000000429e <.label8526>:
    429e:	eb 00                	jmp    42a0 <.label8527>

00000000000042a0 <.label8527>:
    42a0:	eb 00                	jmp    42a2 <.label8528>

00000000000042a2 <.label8528>:
    42a2:	eb 00                	jmp    42a4 <.label8529>

00000000000042a4 <.label8529>:
    42a4:	eb 00                	jmp    42a6 <.label8530>

00000000000042a6 <.label8530>:
    42a6:	eb 00                	jmp    42a8 <.label8531>

00000000000042a8 <.label8531>:
    42a8:	eb 00                	jmp    42aa <.label8532>

00000000000042aa <.label8532>:
    42aa:	eb 00                	jmp    42ac <.label8533>

00000000000042ac <.label8533>:
    42ac:	eb 00                	jmp    42ae <.label8534>

00000000000042ae <.label8534>:
    42ae:	eb 00                	jmp    42b0 <.label8535>

00000000000042b0 <.label8535>:
    42b0:	eb 00                	jmp    42b2 <.label8536>

00000000000042b2 <.label8536>:
    42b2:	eb 00                	jmp    42b4 <.label8537>

00000000000042b4 <.label8537>:
    42b4:	eb 00                	jmp    42b6 <.label8538>

00000000000042b6 <.label8538>:
    42b6:	eb 00                	jmp    42b8 <.label8539>

00000000000042b8 <.label8539>:
    42b8:	eb 00                	jmp    42ba <.label8540>

00000000000042ba <.label8540>:
    42ba:	eb 00                	jmp    42bc <.label8541>

00000000000042bc <.label8541>:
    42bc:	eb 00                	jmp    42be <.label8542>

00000000000042be <.label8542>:
    42be:	eb 00                	jmp    42c0 <.label8543>

00000000000042c0 <.label8543>:
    42c0:	eb 00                	jmp    42c2 <.label8544>

00000000000042c2 <.label8544>:
    42c2:	eb 00                	jmp    42c4 <.label8545>

00000000000042c4 <.label8545>:
    42c4:	eb 00                	jmp    42c6 <.label8546>

00000000000042c6 <.label8546>:
    42c6:	eb 00                	jmp    42c8 <.label8547>

00000000000042c8 <.label8547>:
    42c8:	eb 00                	jmp    42ca <.label8548>

00000000000042ca <.label8548>:
    42ca:	eb 00                	jmp    42cc <.label8549>

00000000000042cc <.label8549>:
    42cc:	eb 00                	jmp    42ce <.label8550>

00000000000042ce <.label8550>:
    42ce:	eb 00                	jmp    42d0 <.label8551>

00000000000042d0 <.label8551>:
    42d0:	eb 00                	jmp    42d2 <.label8552>

00000000000042d2 <.label8552>:
    42d2:	eb 00                	jmp    42d4 <.label8553>

00000000000042d4 <.label8553>:
    42d4:	eb 00                	jmp    42d6 <.label8554>

00000000000042d6 <.label8554>:
    42d6:	eb 00                	jmp    42d8 <.label8555>

00000000000042d8 <.label8555>:
    42d8:	eb 00                	jmp    42da <.label8556>

00000000000042da <.label8556>:
    42da:	eb 00                	jmp    42dc <.label8557>

00000000000042dc <.label8557>:
    42dc:	eb 00                	jmp    42de <.label8558>

00000000000042de <.label8558>:
    42de:	eb 00                	jmp    42e0 <.label8559>

00000000000042e0 <.label8559>:
    42e0:	eb 00                	jmp    42e2 <.label8560>

00000000000042e2 <.label8560>:
    42e2:	eb 00                	jmp    42e4 <.label8561>

00000000000042e4 <.label8561>:
    42e4:	eb 00                	jmp    42e6 <.label8562>

00000000000042e6 <.label8562>:
    42e6:	eb 00                	jmp    42e8 <.label8563>

00000000000042e8 <.label8563>:
    42e8:	eb 00                	jmp    42ea <.label8564>

00000000000042ea <.label8564>:
    42ea:	eb 00                	jmp    42ec <.label8565>

00000000000042ec <.label8565>:
    42ec:	eb 00                	jmp    42ee <.label8566>

00000000000042ee <.label8566>:
    42ee:	eb 00                	jmp    42f0 <.label8567>

00000000000042f0 <.label8567>:
    42f0:	eb 00                	jmp    42f2 <.label8568>

00000000000042f2 <.label8568>:
    42f2:	eb 00                	jmp    42f4 <.label8569>

00000000000042f4 <.label8569>:
    42f4:	eb 00                	jmp    42f6 <.label8570>

00000000000042f6 <.label8570>:
    42f6:	eb 00                	jmp    42f8 <.label8571>

00000000000042f8 <.label8571>:
    42f8:	eb 00                	jmp    42fa <.label8572>

00000000000042fa <.label8572>:
    42fa:	eb 00                	jmp    42fc <.label8573>

00000000000042fc <.label8573>:
    42fc:	eb 00                	jmp    42fe <.label8574>

00000000000042fe <.label8574>:
    42fe:	eb 00                	jmp    4300 <.label8575>

0000000000004300 <.label8575>:
    4300:	eb 00                	jmp    4302 <.label8576>

0000000000004302 <.label8576>:
    4302:	eb 00                	jmp    4304 <.label8577>

0000000000004304 <.label8577>:
    4304:	eb 00                	jmp    4306 <.label8578>

0000000000004306 <.label8578>:
    4306:	eb 00                	jmp    4308 <.label8579>

0000000000004308 <.label8579>:
    4308:	eb 00                	jmp    430a <.label8580>

000000000000430a <.label8580>:
    430a:	eb 00                	jmp    430c <.label8581>

000000000000430c <.label8581>:
    430c:	eb 00                	jmp    430e <.label8582>

000000000000430e <.label8582>:
    430e:	eb 00                	jmp    4310 <.label8583>

0000000000004310 <.label8583>:
    4310:	eb 00                	jmp    4312 <.label8584>

0000000000004312 <.label8584>:
    4312:	eb 00                	jmp    4314 <.label8585>

0000000000004314 <.label8585>:
    4314:	eb 00                	jmp    4316 <.label8586>

0000000000004316 <.label8586>:
    4316:	eb 00                	jmp    4318 <.label8587>

0000000000004318 <.label8587>:
    4318:	eb 00                	jmp    431a <.label8588>

000000000000431a <.label8588>:
    431a:	eb 00                	jmp    431c <.label8589>

000000000000431c <.label8589>:
    431c:	eb 00                	jmp    431e <.label8590>

000000000000431e <.label8590>:
    431e:	eb 00                	jmp    4320 <.label8591>

0000000000004320 <.label8591>:
    4320:	eb 00                	jmp    4322 <.label8592>

0000000000004322 <.label8592>:
    4322:	eb 00                	jmp    4324 <.label8593>

0000000000004324 <.label8593>:
    4324:	eb 00                	jmp    4326 <.label8594>

0000000000004326 <.label8594>:
    4326:	eb 00                	jmp    4328 <.label8595>

0000000000004328 <.label8595>:
    4328:	eb 00                	jmp    432a <.label8596>

000000000000432a <.label8596>:
    432a:	eb 00                	jmp    432c <.label8597>

000000000000432c <.label8597>:
    432c:	eb 00                	jmp    432e <.label8598>

000000000000432e <.label8598>:
    432e:	eb 00                	jmp    4330 <.label8599>

0000000000004330 <.label8599>:
    4330:	eb 00                	jmp    4332 <.label8600>

0000000000004332 <.label8600>:
    4332:	eb 00                	jmp    4334 <.label8601>

0000000000004334 <.label8601>:
    4334:	eb 00                	jmp    4336 <.label8602>

0000000000004336 <.label8602>:
    4336:	eb 00                	jmp    4338 <.label8603>

0000000000004338 <.label8603>:
    4338:	eb 00                	jmp    433a <.label8604>

000000000000433a <.label8604>:
    433a:	eb 00                	jmp    433c <.label8605>

000000000000433c <.label8605>:
    433c:	eb 00                	jmp    433e <.label8606>

000000000000433e <.label8606>:
    433e:	eb 00                	jmp    4340 <.label8607>

0000000000004340 <.label8607>:
    4340:	eb 00                	jmp    4342 <.label8608>

0000000000004342 <.label8608>:
    4342:	eb 00                	jmp    4344 <.label8609>

0000000000004344 <.label8609>:
    4344:	eb 00                	jmp    4346 <.label8610>

0000000000004346 <.label8610>:
    4346:	eb 00                	jmp    4348 <.label8611>

0000000000004348 <.label8611>:
    4348:	eb 00                	jmp    434a <.label8612>

000000000000434a <.label8612>:
    434a:	eb 00                	jmp    434c <.label8613>

000000000000434c <.label8613>:
    434c:	eb 00                	jmp    434e <.label8614>

000000000000434e <.label8614>:
    434e:	eb 00                	jmp    4350 <.label8615>

0000000000004350 <.label8615>:
    4350:	eb 00                	jmp    4352 <.label8616>

0000000000004352 <.label8616>:
    4352:	eb 00                	jmp    4354 <.label8617>

0000000000004354 <.label8617>:
    4354:	eb 00                	jmp    4356 <.label8618>

0000000000004356 <.label8618>:
    4356:	eb 00                	jmp    4358 <.label8619>

0000000000004358 <.label8619>:
    4358:	eb 00                	jmp    435a <.label8620>

000000000000435a <.label8620>:
    435a:	eb 00                	jmp    435c <.label8621>

000000000000435c <.label8621>:
    435c:	eb 00                	jmp    435e <.label8622>

000000000000435e <.label8622>:
    435e:	eb 00                	jmp    4360 <.label8623>

0000000000004360 <.label8623>:
    4360:	eb 00                	jmp    4362 <.label8624>

0000000000004362 <.label8624>:
    4362:	eb 00                	jmp    4364 <.label8625>

0000000000004364 <.label8625>:
    4364:	eb 00                	jmp    4366 <.label8626>

0000000000004366 <.label8626>:
    4366:	eb 00                	jmp    4368 <.label8627>

0000000000004368 <.label8627>:
    4368:	eb 00                	jmp    436a <.label8628>

000000000000436a <.label8628>:
    436a:	eb 00                	jmp    436c <.label8629>

000000000000436c <.label8629>:
    436c:	eb 00                	jmp    436e <.label8630>

000000000000436e <.label8630>:
    436e:	eb 00                	jmp    4370 <.label8631>

0000000000004370 <.label8631>:
    4370:	eb 00                	jmp    4372 <.label8632>

0000000000004372 <.label8632>:
    4372:	eb 00                	jmp    4374 <.label8633>

0000000000004374 <.label8633>:
    4374:	eb 00                	jmp    4376 <.label8634>

0000000000004376 <.label8634>:
    4376:	eb 00                	jmp    4378 <.label8635>

0000000000004378 <.label8635>:
    4378:	eb 00                	jmp    437a <.label8636>

000000000000437a <.label8636>:
    437a:	eb 00                	jmp    437c <.label8637>

000000000000437c <.label8637>:
    437c:	eb 00                	jmp    437e <.label8638>

000000000000437e <.label8638>:
    437e:	eb 00                	jmp    4380 <.label8639>

0000000000004380 <.label8639>:
    4380:	eb 00                	jmp    4382 <.label8640>

0000000000004382 <.label8640>:
    4382:	eb 00                	jmp    4384 <.label8641>

0000000000004384 <.label8641>:
    4384:	eb 00                	jmp    4386 <.label8642>

0000000000004386 <.label8642>:
    4386:	eb 00                	jmp    4388 <.label8643>

0000000000004388 <.label8643>:
    4388:	eb 00                	jmp    438a <.label8644>

000000000000438a <.label8644>:
    438a:	eb 00                	jmp    438c <.label8645>

000000000000438c <.label8645>:
    438c:	eb 00                	jmp    438e <.label8646>

000000000000438e <.label8646>:
    438e:	eb 00                	jmp    4390 <.label8647>

0000000000004390 <.label8647>:
    4390:	eb 00                	jmp    4392 <.label8648>

0000000000004392 <.label8648>:
    4392:	eb 00                	jmp    4394 <.label8649>

0000000000004394 <.label8649>:
    4394:	eb 00                	jmp    4396 <.label8650>

0000000000004396 <.label8650>:
    4396:	eb 00                	jmp    4398 <.label8651>

0000000000004398 <.label8651>:
    4398:	eb 00                	jmp    439a <.label8652>

000000000000439a <.label8652>:
    439a:	eb 00                	jmp    439c <.label8653>

000000000000439c <.label8653>:
    439c:	eb 00                	jmp    439e <.label8654>

000000000000439e <.label8654>:
    439e:	eb 00                	jmp    43a0 <.label8655>

00000000000043a0 <.label8655>:
    43a0:	eb 00                	jmp    43a2 <.label8656>

00000000000043a2 <.label8656>:
    43a2:	eb 00                	jmp    43a4 <.label8657>

00000000000043a4 <.label8657>:
    43a4:	eb 00                	jmp    43a6 <.label8658>

00000000000043a6 <.label8658>:
    43a6:	eb 00                	jmp    43a8 <.label8659>

00000000000043a8 <.label8659>:
    43a8:	eb 00                	jmp    43aa <.label8660>

00000000000043aa <.label8660>:
    43aa:	eb 00                	jmp    43ac <.label8661>

00000000000043ac <.label8661>:
    43ac:	eb 00                	jmp    43ae <.label8662>

00000000000043ae <.label8662>:
    43ae:	eb 00                	jmp    43b0 <.label8663>

00000000000043b0 <.label8663>:
    43b0:	eb 00                	jmp    43b2 <.label8664>

00000000000043b2 <.label8664>:
    43b2:	eb 00                	jmp    43b4 <.label8665>

00000000000043b4 <.label8665>:
    43b4:	eb 00                	jmp    43b6 <.label8666>

00000000000043b6 <.label8666>:
    43b6:	eb 00                	jmp    43b8 <.label8667>

00000000000043b8 <.label8667>:
    43b8:	eb 00                	jmp    43ba <.label8668>

00000000000043ba <.label8668>:
    43ba:	eb 00                	jmp    43bc <.label8669>

00000000000043bc <.label8669>:
    43bc:	eb 00                	jmp    43be <.label8670>

00000000000043be <.label8670>:
    43be:	eb 00                	jmp    43c0 <.label8671>

00000000000043c0 <.label8671>:
    43c0:	eb 00                	jmp    43c2 <.label8672>

00000000000043c2 <.label8672>:
    43c2:	eb 00                	jmp    43c4 <.label8673>

00000000000043c4 <.label8673>:
    43c4:	eb 00                	jmp    43c6 <.label8674>

00000000000043c6 <.label8674>:
    43c6:	eb 00                	jmp    43c8 <.label8675>

00000000000043c8 <.label8675>:
    43c8:	eb 00                	jmp    43ca <.label8676>

00000000000043ca <.label8676>:
    43ca:	eb 00                	jmp    43cc <.label8677>

00000000000043cc <.label8677>:
    43cc:	eb 00                	jmp    43ce <.label8678>

00000000000043ce <.label8678>:
    43ce:	eb 00                	jmp    43d0 <.label8679>

00000000000043d0 <.label8679>:
    43d0:	eb 00                	jmp    43d2 <.label8680>

00000000000043d2 <.label8680>:
    43d2:	eb 00                	jmp    43d4 <.label8681>

00000000000043d4 <.label8681>:
    43d4:	eb 00                	jmp    43d6 <.label8682>

00000000000043d6 <.label8682>:
    43d6:	eb 00                	jmp    43d8 <.label8683>

00000000000043d8 <.label8683>:
    43d8:	eb 00                	jmp    43da <.label8684>

00000000000043da <.label8684>:
    43da:	eb 00                	jmp    43dc <.label8685>

00000000000043dc <.label8685>:
    43dc:	eb 00                	jmp    43de <.label8686>

00000000000043de <.label8686>:
    43de:	eb 00                	jmp    43e0 <.label8687>

00000000000043e0 <.label8687>:
    43e0:	eb 00                	jmp    43e2 <.label8688>

00000000000043e2 <.label8688>:
    43e2:	eb 00                	jmp    43e4 <.label8689>

00000000000043e4 <.label8689>:
    43e4:	eb 00                	jmp    43e6 <.label8690>

00000000000043e6 <.label8690>:
    43e6:	eb 00                	jmp    43e8 <.label8691>

00000000000043e8 <.label8691>:
    43e8:	eb 00                	jmp    43ea <.label8692>

00000000000043ea <.label8692>:
    43ea:	eb 00                	jmp    43ec <.label8693>

00000000000043ec <.label8693>:
    43ec:	eb 00                	jmp    43ee <.label8694>

00000000000043ee <.label8694>:
    43ee:	eb 00                	jmp    43f0 <.label8695>

00000000000043f0 <.label8695>:
    43f0:	eb 00                	jmp    43f2 <.label8696>

00000000000043f2 <.label8696>:
    43f2:	eb 00                	jmp    43f4 <.label8697>

00000000000043f4 <.label8697>:
    43f4:	eb 00                	jmp    43f6 <.label8698>

00000000000043f6 <.label8698>:
    43f6:	eb 00                	jmp    43f8 <.label8699>

00000000000043f8 <.label8699>:
    43f8:	eb 00                	jmp    43fa <.label8700>

00000000000043fa <.label8700>:
    43fa:	eb 00                	jmp    43fc <.label8701>

00000000000043fc <.label8701>:
    43fc:	eb 00                	jmp    43fe <.label8702>

00000000000043fe <.label8702>:
    43fe:	eb 00                	jmp    4400 <.label8703>

0000000000004400 <.label8703>:
    4400:	eb 00                	jmp    4402 <.label8704>

0000000000004402 <.label8704>:
    4402:	eb 00                	jmp    4404 <.label8705>

0000000000004404 <.label8705>:
    4404:	eb 00                	jmp    4406 <.label8706>

0000000000004406 <.label8706>:
    4406:	eb 00                	jmp    4408 <.label8707>

0000000000004408 <.label8707>:
    4408:	eb 00                	jmp    440a <.label8708>

000000000000440a <.label8708>:
    440a:	eb 00                	jmp    440c <.label8709>

000000000000440c <.label8709>:
    440c:	eb 00                	jmp    440e <.label8710>

000000000000440e <.label8710>:
    440e:	eb 00                	jmp    4410 <.label8711>

0000000000004410 <.label8711>:
    4410:	eb 00                	jmp    4412 <.label8712>

0000000000004412 <.label8712>:
    4412:	eb 00                	jmp    4414 <.label8713>

0000000000004414 <.label8713>:
    4414:	eb 00                	jmp    4416 <.label8714>

0000000000004416 <.label8714>:
    4416:	eb 00                	jmp    4418 <.label8715>

0000000000004418 <.label8715>:
    4418:	eb 00                	jmp    441a <.label8716>

000000000000441a <.label8716>:
    441a:	eb 00                	jmp    441c <.label8717>

000000000000441c <.label8717>:
    441c:	eb 00                	jmp    441e <.label8718>

000000000000441e <.label8718>:
    441e:	eb 00                	jmp    4420 <.label8719>

0000000000004420 <.label8719>:
    4420:	eb 00                	jmp    4422 <.label8720>

0000000000004422 <.label8720>:
    4422:	eb 00                	jmp    4424 <.label8721>

0000000000004424 <.label8721>:
    4424:	eb 00                	jmp    4426 <.label8722>

0000000000004426 <.label8722>:
    4426:	eb 00                	jmp    4428 <.label8723>

0000000000004428 <.label8723>:
    4428:	eb 00                	jmp    442a <.label8724>

000000000000442a <.label8724>:
    442a:	eb 00                	jmp    442c <.label8725>

000000000000442c <.label8725>:
    442c:	eb 00                	jmp    442e <.label8726>

000000000000442e <.label8726>:
    442e:	eb 00                	jmp    4430 <.label8727>

0000000000004430 <.label8727>:
    4430:	eb 00                	jmp    4432 <.label8728>

0000000000004432 <.label8728>:
    4432:	eb 00                	jmp    4434 <.label8729>

0000000000004434 <.label8729>:
    4434:	eb 00                	jmp    4436 <.label8730>

0000000000004436 <.label8730>:
    4436:	eb 00                	jmp    4438 <.label8731>

0000000000004438 <.label8731>:
    4438:	eb 00                	jmp    443a <.label8732>

000000000000443a <.label8732>:
    443a:	eb 00                	jmp    443c <.label8733>

000000000000443c <.label8733>:
    443c:	eb 00                	jmp    443e <.label8734>

000000000000443e <.label8734>:
    443e:	eb 00                	jmp    4440 <.label8735>

0000000000004440 <.label8735>:
    4440:	eb 00                	jmp    4442 <.label8736>

0000000000004442 <.label8736>:
    4442:	eb 00                	jmp    4444 <.label8737>

0000000000004444 <.label8737>:
    4444:	eb 00                	jmp    4446 <.label8738>

0000000000004446 <.label8738>:
    4446:	eb 00                	jmp    4448 <.label8739>

0000000000004448 <.label8739>:
    4448:	eb 00                	jmp    444a <.label8740>

000000000000444a <.label8740>:
    444a:	eb 00                	jmp    444c <.label8741>

000000000000444c <.label8741>:
    444c:	eb 00                	jmp    444e <.label8742>

000000000000444e <.label8742>:
    444e:	eb 00                	jmp    4450 <.label8743>

0000000000004450 <.label8743>:
    4450:	eb 00                	jmp    4452 <.label8744>

0000000000004452 <.label8744>:
    4452:	eb 00                	jmp    4454 <.label8745>

0000000000004454 <.label8745>:
    4454:	eb 00                	jmp    4456 <.label8746>

0000000000004456 <.label8746>:
    4456:	eb 00                	jmp    4458 <.label8747>

0000000000004458 <.label8747>:
    4458:	eb 00                	jmp    445a <.label8748>

000000000000445a <.label8748>:
    445a:	eb 00                	jmp    445c <.label8749>

000000000000445c <.label8749>:
    445c:	eb 00                	jmp    445e <.label8750>

000000000000445e <.label8750>:
    445e:	eb 00                	jmp    4460 <.label8751>

0000000000004460 <.label8751>:
    4460:	eb 00                	jmp    4462 <.label8752>

0000000000004462 <.label8752>:
    4462:	eb 00                	jmp    4464 <.label8753>

0000000000004464 <.label8753>:
    4464:	eb 00                	jmp    4466 <.label8754>

0000000000004466 <.label8754>:
    4466:	eb 00                	jmp    4468 <.label8755>

0000000000004468 <.label8755>:
    4468:	eb 00                	jmp    446a <.label8756>

000000000000446a <.label8756>:
    446a:	eb 00                	jmp    446c <.label8757>

000000000000446c <.label8757>:
    446c:	eb 00                	jmp    446e <.label8758>

000000000000446e <.label8758>:
    446e:	eb 00                	jmp    4470 <.label8759>

0000000000004470 <.label8759>:
    4470:	eb 00                	jmp    4472 <.label8760>

0000000000004472 <.label8760>:
    4472:	eb 00                	jmp    4474 <.label8761>

0000000000004474 <.label8761>:
    4474:	eb 00                	jmp    4476 <.label8762>

0000000000004476 <.label8762>:
    4476:	eb 00                	jmp    4478 <.label8763>

0000000000004478 <.label8763>:
    4478:	eb 00                	jmp    447a <.label8764>

000000000000447a <.label8764>:
    447a:	eb 00                	jmp    447c <.label8765>

000000000000447c <.label8765>:
    447c:	eb 00                	jmp    447e <.label8766>

000000000000447e <.label8766>:
    447e:	eb 00                	jmp    4480 <.label8767>

0000000000004480 <.label8767>:
    4480:	eb 00                	jmp    4482 <.label8768>

0000000000004482 <.label8768>:
    4482:	eb 00                	jmp    4484 <.label8769>

0000000000004484 <.label8769>:
    4484:	eb 00                	jmp    4486 <.label8770>

0000000000004486 <.label8770>:
    4486:	eb 00                	jmp    4488 <.label8771>

0000000000004488 <.label8771>:
    4488:	eb 00                	jmp    448a <.label8772>

000000000000448a <.label8772>:
    448a:	eb 00                	jmp    448c <.label8773>

000000000000448c <.label8773>:
    448c:	eb 00                	jmp    448e <.label8774>

000000000000448e <.label8774>:
    448e:	eb 00                	jmp    4490 <.label8775>

0000000000004490 <.label8775>:
    4490:	eb 00                	jmp    4492 <.label8776>

0000000000004492 <.label8776>:
    4492:	eb 00                	jmp    4494 <.label8777>

0000000000004494 <.label8777>:
    4494:	eb 00                	jmp    4496 <.label8778>

0000000000004496 <.label8778>:
    4496:	eb 00                	jmp    4498 <.label8779>

0000000000004498 <.label8779>:
    4498:	eb 00                	jmp    449a <.label8780>

000000000000449a <.label8780>:
    449a:	eb 00                	jmp    449c <.label8781>

000000000000449c <.label8781>:
    449c:	eb 00                	jmp    449e <.label8782>

000000000000449e <.label8782>:
    449e:	eb 00                	jmp    44a0 <.label8783>

00000000000044a0 <.label8783>:
    44a0:	eb 00                	jmp    44a2 <.label8784>

00000000000044a2 <.label8784>:
    44a2:	eb 00                	jmp    44a4 <.label8785>

00000000000044a4 <.label8785>:
    44a4:	eb 00                	jmp    44a6 <.label8786>

00000000000044a6 <.label8786>:
    44a6:	eb 00                	jmp    44a8 <.label8787>

00000000000044a8 <.label8787>:
    44a8:	eb 00                	jmp    44aa <.label8788>

00000000000044aa <.label8788>:
    44aa:	eb 00                	jmp    44ac <.label8789>

00000000000044ac <.label8789>:
    44ac:	eb 00                	jmp    44ae <.label8790>

00000000000044ae <.label8790>:
    44ae:	eb 00                	jmp    44b0 <.label8791>

00000000000044b0 <.label8791>:
    44b0:	eb 00                	jmp    44b2 <.label8792>

00000000000044b2 <.label8792>:
    44b2:	eb 00                	jmp    44b4 <.label8793>

00000000000044b4 <.label8793>:
    44b4:	eb 00                	jmp    44b6 <.label8794>

00000000000044b6 <.label8794>:
    44b6:	eb 00                	jmp    44b8 <.label8795>

00000000000044b8 <.label8795>:
    44b8:	eb 00                	jmp    44ba <.label8796>

00000000000044ba <.label8796>:
    44ba:	eb 00                	jmp    44bc <.label8797>

00000000000044bc <.label8797>:
    44bc:	eb 00                	jmp    44be <.label8798>

00000000000044be <.label8798>:
    44be:	eb 00                	jmp    44c0 <.label8799>

00000000000044c0 <.label8799>:
    44c0:	eb 00                	jmp    44c2 <.label8800>

00000000000044c2 <.label8800>:
    44c2:	eb 00                	jmp    44c4 <.label8801>

00000000000044c4 <.label8801>:
    44c4:	eb 00                	jmp    44c6 <.label8802>

00000000000044c6 <.label8802>:
    44c6:	eb 00                	jmp    44c8 <.label8803>

00000000000044c8 <.label8803>:
    44c8:	eb 00                	jmp    44ca <.label8804>

00000000000044ca <.label8804>:
    44ca:	eb 00                	jmp    44cc <.label8805>

00000000000044cc <.label8805>:
    44cc:	eb 00                	jmp    44ce <.label8806>

00000000000044ce <.label8806>:
    44ce:	eb 00                	jmp    44d0 <.label8807>

00000000000044d0 <.label8807>:
    44d0:	eb 00                	jmp    44d2 <.label8808>

00000000000044d2 <.label8808>:
    44d2:	eb 00                	jmp    44d4 <.label8809>

00000000000044d4 <.label8809>:
    44d4:	eb 00                	jmp    44d6 <.label8810>

00000000000044d6 <.label8810>:
    44d6:	eb 00                	jmp    44d8 <.label8811>

00000000000044d8 <.label8811>:
    44d8:	eb 00                	jmp    44da <.label8812>

00000000000044da <.label8812>:
    44da:	eb 00                	jmp    44dc <.label8813>

00000000000044dc <.label8813>:
    44dc:	eb 00                	jmp    44de <.label8814>

00000000000044de <.label8814>:
    44de:	eb 00                	jmp    44e0 <.label8815>

00000000000044e0 <.label8815>:
    44e0:	eb 00                	jmp    44e2 <.label8816>

00000000000044e2 <.label8816>:
    44e2:	eb 00                	jmp    44e4 <.label8817>

00000000000044e4 <.label8817>:
    44e4:	eb 00                	jmp    44e6 <.label8818>

00000000000044e6 <.label8818>:
    44e6:	eb 00                	jmp    44e8 <.label8819>

00000000000044e8 <.label8819>:
    44e8:	eb 00                	jmp    44ea <.label8820>

00000000000044ea <.label8820>:
    44ea:	eb 00                	jmp    44ec <.label8821>

00000000000044ec <.label8821>:
    44ec:	eb 00                	jmp    44ee <.label8822>

00000000000044ee <.label8822>:
    44ee:	eb 00                	jmp    44f0 <.label8823>

00000000000044f0 <.label8823>:
    44f0:	eb 00                	jmp    44f2 <.label8824>

00000000000044f2 <.label8824>:
    44f2:	eb 00                	jmp    44f4 <.label8825>

00000000000044f4 <.label8825>:
    44f4:	eb 00                	jmp    44f6 <.label8826>

00000000000044f6 <.label8826>:
    44f6:	eb 00                	jmp    44f8 <.label8827>

00000000000044f8 <.label8827>:
    44f8:	eb 00                	jmp    44fa <.label8828>

00000000000044fa <.label8828>:
    44fa:	eb 00                	jmp    44fc <.label8829>

00000000000044fc <.label8829>:
    44fc:	eb 00                	jmp    44fe <.label8830>

00000000000044fe <.label8830>:
    44fe:	eb 00                	jmp    4500 <.label8831>

0000000000004500 <.label8831>:
    4500:	eb 00                	jmp    4502 <.label8832>

0000000000004502 <.label8832>:
    4502:	eb 00                	jmp    4504 <.label8833>

0000000000004504 <.label8833>:
    4504:	eb 00                	jmp    4506 <.label8834>

0000000000004506 <.label8834>:
    4506:	eb 00                	jmp    4508 <.label8835>

0000000000004508 <.label8835>:
    4508:	eb 00                	jmp    450a <.label8836>

000000000000450a <.label8836>:
    450a:	eb 00                	jmp    450c <.label8837>

000000000000450c <.label8837>:
    450c:	eb 00                	jmp    450e <.label8838>

000000000000450e <.label8838>:
    450e:	eb 00                	jmp    4510 <.label8839>

0000000000004510 <.label8839>:
    4510:	eb 00                	jmp    4512 <.label8840>

0000000000004512 <.label8840>:
    4512:	eb 00                	jmp    4514 <.label8841>

0000000000004514 <.label8841>:
    4514:	eb 00                	jmp    4516 <.label8842>

0000000000004516 <.label8842>:
    4516:	eb 00                	jmp    4518 <.label8843>

0000000000004518 <.label8843>:
    4518:	eb 00                	jmp    451a <.label8844>

000000000000451a <.label8844>:
    451a:	eb 00                	jmp    451c <.label8845>

000000000000451c <.label8845>:
    451c:	eb 00                	jmp    451e <.label8846>

000000000000451e <.label8846>:
    451e:	eb 00                	jmp    4520 <.label8847>

0000000000004520 <.label8847>:
    4520:	eb 00                	jmp    4522 <.label8848>

0000000000004522 <.label8848>:
    4522:	eb 00                	jmp    4524 <.label8849>

0000000000004524 <.label8849>:
    4524:	eb 00                	jmp    4526 <.label8850>

0000000000004526 <.label8850>:
    4526:	eb 00                	jmp    4528 <.label8851>

0000000000004528 <.label8851>:
    4528:	eb 00                	jmp    452a <.label8852>

000000000000452a <.label8852>:
    452a:	eb 00                	jmp    452c <.label8853>

000000000000452c <.label8853>:
    452c:	eb 00                	jmp    452e <.label8854>

000000000000452e <.label8854>:
    452e:	eb 00                	jmp    4530 <.label8855>

0000000000004530 <.label8855>:
    4530:	eb 00                	jmp    4532 <.label8856>

0000000000004532 <.label8856>:
    4532:	eb 00                	jmp    4534 <.label8857>

0000000000004534 <.label8857>:
    4534:	eb 00                	jmp    4536 <.label8858>

0000000000004536 <.label8858>:
    4536:	eb 00                	jmp    4538 <.label8859>

0000000000004538 <.label8859>:
    4538:	eb 00                	jmp    453a <.label8860>

000000000000453a <.label8860>:
    453a:	eb 00                	jmp    453c <.label8861>

000000000000453c <.label8861>:
    453c:	eb 00                	jmp    453e <.label8862>

000000000000453e <.label8862>:
    453e:	eb 00                	jmp    4540 <.label8863>

0000000000004540 <.label8863>:
    4540:	eb 00                	jmp    4542 <.label8864>

0000000000004542 <.label8864>:
    4542:	eb 00                	jmp    4544 <.label8865>

0000000000004544 <.label8865>:
    4544:	eb 00                	jmp    4546 <.label8866>

0000000000004546 <.label8866>:
    4546:	eb 00                	jmp    4548 <.label8867>

0000000000004548 <.label8867>:
    4548:	eb 00                	jmp    454a <.label8868>

000000000000454a <.label8868>:
    454a:	eb 00                	jmp    454c <.label8869>

000000000000454c <.label8869>:
    454c:	eb 00                	jmp    454e <.label8870>

000000000000454e <.label8870>:
    454e:	eb 00                	jmp    4550 <.label8871>

0000000000004550 <.label8871>:
    4550:	eb 00                	jmp    4552 <.label8872>

0000000000004552 <.label8872>:
    4552:	eb 00                	jmp    4554 <.label8873>

0000000000004554 <.label8873>:
    4554:	eb 00                	jmp    4556 <.label8874>

0000000000004556 <.label8874>:
    4556:	eb 00                	jmp    4558 <.label8875>

0000000000004558 <.label8875>:
    4558:	eb 00                	jmp    455a <.label8876>

000000000000455a <.label8876>:
    455a:	eb 00                	jmp    455c <.label8877>

000000000000455c <.label8877>:
    455c:	eb 00                	jmp    455e <.label8878>

000000000000455e <.label8878>:
    455e:	eb 00                	jmp    4560 <.label8879>

0000000000004560 <.label8879>:
    4560:	eb 00                	jmp    4562 <.label8880>

0000000000004562 <.label8880>:
    4562:	eb 00                	jmp    4564 <.label8881>

0000000000004564 <.label8881>:
    4564:	eb 00                	jmp    4566 <.label8882>

0000000000004566 <.label8882>:
    4566:	eb 00                	jmp    4568 <.label8883>

0000000000004568 <.label8883>:
    4568:	eb 00                	jmp    456a <.label8884>

000000000000456a <.label8884>:
    456a:	eb 00                	jmp    456c <.label8885>

000000000000456c <.label8885>:
    456c:	eb 00                	jmp    456e <.label8886>

000000000000456e <.label8886>:
    456e:	eb 00                	jmp    4570 <.label8887>

0000000000004570 <.label8887>:
    4570:	eb 00                	jmp    4572 <.label8888>

0000000000004572 <.label8888>:
    4572:	eb 00                	jmp    4574 <.label8889>

0000000000004574 <.label8889>:
    4574:	eb 00                	jmp    4576 <.label8890>

0000000000004576 <.label8890>:
    4576:	eb 00                	jmp    4578 <.label8891>

0000000000004578 <.label8891>:
    4578:	eb 00                	jmp    457a <.label8892>

000000000000457a <.label8892>:
    457a:	eb 00                	jmp    457c <.label8893>

000000000000457c <.label8893>:
    457c:	eb 00                	jmp    457e <.label8894>

000000000000457e <.label8894>:
    457e:	eb 00                	jmp    4580 <.label8895>

0000000000004580 <.label8895>:
    4580:	eb 00                	jmp    4582 <.label8896>

0000000000004582 <.label8896>:
    4582:	eb 00                	jmp    4584 <.label8897>

0000000000004584 <.label8897>:
    4584:	eb 00                	jmp    4586 <.label8898>

0000000000004586 <.label8898>:
    4586:	eb 00                	jmp    4588 <.label8899>

0000000000004588 <.label8899>:
    4588:	eb 00                	jmp    458a <.label8900>

000000000000458a <.label8900>:
    458a:	eb 00                	jmp    458c <.label8901>

000000000000458c <.label8901>:
    458c:	eb 00                	jmp    458e <.label8902>

000000000000458e <.label8902>:
    458e:	eb 00                	jmp    4590 <.label8903>

0000000000004590 <.label8903>:
    4590:	eb 00                	jmp    4592 <.label8904>

0000000000004592 <.label8904>:
    4592:	eb 00                	jmp    4594 <.label8905>

0000000000004594 <.label8905>:
    4594:	eb 00                	jmp    4596 <.label8906>

0000000000004596 <.label8906>:
    4596:	eb 00                	jmp    4598 <.label8907>

0000000000004598 <.label8907>:
    4598:	eb 00                	jmp    459a <.label8908>

000000000000459a <.label8908>:
    459a:	eb 00                	jmp    459c <.label8909>

000000000000459c <.label8909>:
    459c:	eb 00                	jmp    459e <.label8910>

000000000000459e <.label8910>:
    459e:	eb 00                	jmp    45a0 <.label8911>

00000000000045a0 <.label8911>:
    45a0:	eb 00                	jmp    45a2 <.label8912>

00000000000045a2 <.label8912>:
    45a2:	eb 00                	jmp    45a4 <.label8913>

00000000000045a4 <.label8913>:
    45a4:	eb 00                	jmp    45a6 <.label8914>

00000000000045a6 <.label8914>:
    45a6:	eb 00                	jmp    45a8 <.label8915>

00000000000045a8 <.label8915>:
    45a8:	eb 00                	jmp    45aa <.label8916>

00000000000045aa <.label8916>:
    45aa:	eb 00                	jmp    45ac <.label8917>

00000000000045ac <.label8917>:
    45ac:	eb 00                	jmp    45ae <.label8918>

00000000000045ae <.label8918>:
    45ae:	eb 00                	jmp    45b0 <.label8919>

00000000000045b0 <.label8919>:
    45b0:	eb 00                	jmp    45b2 <.label8920>

00000000000045b2 <.label8920>:
    45b2:	eb 00                	jmp    45b4 <.label8921>

00000000000045b4 <.label8921>:
    45b4:	eb 00                	jmp    45b6 <.label8922>

00000000000045b6 <.label8922>:
    45b6:	eb 00                	jmp    45b8 <.label8923>

00000000000045b8 <.label8923>:
    45b8:	eb 00                	jmp    45ba <.label8924>

00000000000045ba <.label8924>:
    45ba:	eb 00                	jmp    45bc <.label8925>

00000000000045bc <.label8925>:
    45bc:	eb 00                	jmp    45be <.label8926>

00000000000045be <.label8926>:
    45be:	eb 00                	jmp    45c0 <.label8927>

00000000000045c0 <.label8927>:
    45c0:	eb 00                	jmp    45c2 <.label8928>

00000000000045c2 <.label8928>:
    45c2:	eb 00                	jmp    45c4 <.label8929>

00000000000045c4 <.label8929>:
    45c4:	eb 00                	jmp    45c6 <.label8930>

00000000000045c6 <.label8930>:
    45c6:	eb 00                	jmp    45c8 <.label8931>

00000000000045c8 <.label8931>:
    45c8:	eb 00                	jmp    45ca <.label8932>

00000000000045ca <.label8932>:
    45ca:	eb 00                	jmp    45cc <.label8933>

00000000000045cc <.label8933>:
    45cc:	eb 00                	jmp    45ce <.label8934>

00000000000045ce <.label8934>:
    45ce:	eb 00                	jmp    45d0 <.label8935>

00000000000045d0 <.label8935>:
    45d0:	eb 00                	jmp    45d2 <.label8936>

00000000000045d2 <.label8936>:
    45d2:	eb 00                	jmp    45d4 <.label8937>

00000000000045d4 <.label8937>:
    45d4:	eb 00                	jmp    45d6 <.label8938>

00000000000045d6 <.label8938>:
    45d6:	eb 00                	jmp    45d8 <.label8939>

00000000000045d8 <.label8939>:
    45d8:	eb 00                	jmp    45da <.label8940>

00000000000045da <.label8940>:
    45da:	eb 00                	jmp    45dc <.label8941>

00000000000045dc <.label8941>:
    45dc:	eb 00                	jmp    45de <.label8942>

00000000000045de <.label8942>:
    45de:	eb 00                	jmp    45e0 <.label8943>

00000000000045e0 <.label8943>:
    45e0:	eb 00                	jmp    45e2 <.label8944>

00000000000045e2 <.label8944>:
    45e2:	eb 00                	jmp    45e4 <.label8945>

00000000000045e4 <.label8945>:
    45e4:	eb 00                	jmp    45e6 <.label8946>

00000000000045e6 <.label8946>:
    45e6:	eb 00                	jmp    45e8 <.label8947>

00000000000045e8 <.label8947>:
    45e8:	eb 00                	jmp    45ea <.label8948>

00000000000045ea <.label8948>:
    45ea:	eb 00                	jmp    45ec <.label8949>

00000000000045ec <.label8949>:
    45ec:	eb 00                	jmp    45ee <.label8950>

00000000000045ee <.label8950>:
    45ee:	eb 00                	jmp    45f0 <.label8951>

00000000000045f0 <.label8951>:
    45f0:	eb 00                	jmp    45f2 <.label8952>

00000000000045f2 <.label8952>:
    45f2:	eb 00                	jmp    45f4 <.label8953>

00000000000045f4 <.label8953>:
    45f4:	eb 00                	jmp    45f6 <.label8954>

00000000000045f6 <.label8954>:
    45f6:	eb 00                	jmp    45f8 <.label8955>

00000000000045f8 <.label8955>:
    45f8:	eb 00                	jmp    45fa <.label8956>

00000000000045fa <.label8956>:
    45fa:	eb 00                	jmp    45fc <.label8957>

00000000000045fc <.label8957>:
    45fc:	eb 00                	jmp    45fe <.label8958>

00000000000045fe <.label8958>:
    45fe:	eb 00                	jmp    4600 <.label8959>

0000000000004600 <.label8959>:
    4600:	eb 00                	jmp    4602 <.label8960>

0000000000004602 <.label8960>:
    4602:	eb 00                	jmp    4604 <.label8961>

0000000000004604 <.label8961>:
    4604:	eb 00                	jmp    4606 <.label8962>

0000000000004606 <.label8962>:
    4606:	eb 00                	jmp    4608 <.label8963>

0000000000004608 <.label8963>:
    4608:	eb 00                	jmp    460a <.label8964>

000000000000460a <.label8964>:
    460a:	eb 00                	jmp    460c <.label8965>

000000000000460c <.label8965>:
    460c:	eb 00                	jmp    460e <.label8966>

000000000000460e <.label8966>:
    460e:	eb 00                	jmp    4610 <.label8967>

0000000000004610 <.label8967>:
    4610:	eb 00                	jmp    4612 <.label8968>

0000000000004612 <.label8968>:
    4612:	eb 00                	jmp    4614 <.label8969>

0000000000004614 <.label8969>:
    4614:	eb 00                	jmp    4616 <.label8970>

0000000000004616 <.label8970>:
    4616:	eb 00                	jmp    4618 <.label8971>

0000000000004618 <.label8971>:
    4618:	eb 00                	jmp    461a <.label8972>

000000000000461a <.label8972>:
    461a:	eb 00                	jmp    461c <.label8973>

000000000000461c <.label8973>:
    461c:	eb 00                	jmp    461e <.label8974>

000000000000461e <.label8974>:
    461e:	eb 00                	jmp    4620 <.label8975>

0000000000004620 <.label8975>:
    4620:	eb 00                	jmp    4622 <.label8976>

0000000000004622 <.label8976>:
    4622:	eb 00                	jmp    4624 <.label8977>

0000000000004624 <.label8977>:
    4624:	eb 00                	jmp    4626 <.label8978>

0000000000004626 <.label8978>:
    4626:	eb 00                	jmp    4628 <.label8979>

0000000000004628 <.label8979>:
    4628:	eb 00                	jmp    462a <.label8980>

000000000000462a <.label8980>:
    462a:	eb 00                	jmp    462c <.label8981>

000000000000462c <.label8981>:
    462c:	eb 00                	jmp    462e <.label8982>

000000000000462e <.label8982>:
    462e:	eb 00                	jmp    4630 <.label8983>

0000000000004630 <.label8983>:
    4630:	eb 00                	jmp    4632 <.label8984>

0000000000004632 <.label8984>:
    4632:	eb 00                	jmp    4634 <.label8985>

0000000000004634 <.label8985>:
    4634:	eb 00                	jmp    4636 <.label8986>

0000000000004636 <.label8986>:
    4636:	eb 00                	jmp    4638 <.label8987>

0000000000004638 <.label8987>:
    4638:	eb 00                	jmp    463a <.label8988>

000000000000463a <.label8988>:
    463a:	eb 00                	jmp    463c <.label8989>

000000000000463c <.label8989>:
    463c:	eb 00                	jmp    463e <.label8990>

000000000000463e <.label8990>:
    463e:	eb 00                	jmp    4640 <.label8991>

0000000000004640 <.label8991>:
    4640:	eb 00                	jmp    4642 <.label8992>

0000000000004642 <.label8992>:
    4642:	eb 00                	jmp    4644 <.label8993>

0000000000004644 <.label8993>:
    4644:	eb 00                	jmp    4646 <.label8994>

0000000000004646 <.label8994>:
    4646:	eb 00                	jmp    4648 <.label8995>

0000000000004648 <.label8995>:
    4648:	eb 00                	jmp    464a <.label8996>

000000000000464a <.label8996>:
    464a:	eb 00                	jmp    464c <.label8997>

000000000000464c <.label8997>:
    464c:	eb 00                	jmp    464e <.label8998>

000000000000464e <.label8998>:
    464e:	eb 00                	jmp    4650 <.label8999>

0000000000004650 <.label8999>:
    4650:	eb 00                	jmp    4652 <.label9000>

0000000000004652 <.label9000>:
    4652:	eb 00                	jmp    4654 <.label9001>

0000000000004654 <.label9001>:
    4654:	eb 00                	jmp    4656 <.label9002>

0000000000004656 <.label9002>:
    4656:	eb 00                	jmp    4658 <.label9003>

0000000000004658 <.label9003>:
    4658:	eb 00                	jmp    465a <.label9004>

000000000000465a <.label9004>:
    465a:	eb 00                	jmp    465c <.label9005>

000000000000465c <.label9005>:
    465c:	eb 00                	jmp    465e <.label9006>

000000000000465e <.label9006>:
    465e:	eb 00                	jmp    4660 <.label9007>

0000000000004660 <.label9007>:
    4660:	eb 00                	jmp    4662 <.label9008>

0000000000004662 <.label9008>:
    4662:	eb 00                	jmp    4664 <.label9009>

0000000000004664 <.label9009>:
    4664:	eb 00                	jmp    4666 <.label9010>

0000000000004666 <.label9010>:
    4666:	eb 00                	jmp    4668 <.label9011>

0000000000004668 <.label9011>:
    4668:	eb 00                	jmp    466a <.label9012>

000000000000466a <.label9012>:
    466a:	eb 00                	jmp    466c <.label9013>

000000000000466c <.label9013>:
    466c:	eb 00                	jmp    466e <.label9014>

000000000000466e <.label9014>:
    466e:	eb 00                	jmp    4670 <.label9015>

0000000000004670 <.label9015>:
    4670:	eb 00                	jmp    4672 <.label9016>

0000000000004672 <.label9016>:
    4672:	eb 00                	jmp    4674 <.label9017>

0000000000004674 <.label9017>:
    4674:	eb 00                	jmp    4676 <.label9018>

0000000000004676 <.label9018>:
    4676:	eb 00                	jmp    4678 <.label9019>

0000000000004678 <.label9019>:
    4678:	eb 00                	jmp    467a <.label9020>

000000000000467a <.label9020>:
    467a:	eb 00                	jmp    467c <.label9021>

000000000000467c <.label9021>:
    467c:	eb 00                	jmp    467e <.label9022>

000000000000467e <.label9022>:
    467e:	eb 00                	jmp    4680 <.label9023>

0000000000004680 <.label9023>:
    4680:	eb 00                	jmp    4682 <.label9024>

0000000000004682 <.label9024>:
    4682:	eb 00                	jmp    4684 <.label9025>

0000000000004684 <.label9025>:
    4684:	eb 00                	jmp    4686 <.label9026>

0000000000004686 <.label9026>:
    4686:	eb 00                	jmp    4688 <.label9027>

0000000000004688 <.label9027>:
    4688:	eb 00                	jmp    468a <.label9028>

000000000000468a <.label9028>:
    468a:	eb 00                	jmp    468c <.label9029>

000000000000468c <.label9029>:
    468c:	eb 00                	jmp    468e <.label9030>

000000000000468e <.label9030>:
    468e:	eb 00                	jmp    4690 <.label9031>

0000000000004690 <.label9031>:
    4690:	eb 00                	jmp    4692 <.label9032>

0000000000004692 <.label9032>:
    4692:	eb 00                	jmp    4694 <.label9033>

0000000000004694 <.label9033>:
    4694:	eb 00                	jmp    4696 <.label9034>

0000000000004696 <.label9034>:
    4696:	eb 00                	jmp    4698 <.label9035>

0000000000004698 <.label9035>:
    4698:	eb 00                	jmp    469a <.label9036>

000000000000469a <.label9036>:
    469a:	eb 00                	jmp    469c <.label9037>

000000000000469c <.label9037>:
    469c:	eb 00                	jmp    469e <.label9038>

000000000000469e <.label9038>:
    469e:	eb 00                	jmp    46a0 <.label9039>

00000000000046a0 <.label9039>:
    46a0:	eb 00                	jmp    46a2 <.label9040>

00000000000046a2 <.label9040>:
    46a2:	eb 00                	jmp    46a4 <.label9041>

00000000000046a4 <.label9041>:
    46a4:	eb 00                	jmp    46a6 <.label9042>

00000000000046a6 <.label9042>:
    46a6:	eb 00                	jmp    46a8 <.label9043>

00000000000046a8 <.label9043>:
    46a8:	eb 00                	jmp    46aa <.label9044>

00000000000046aa <.label9044>:
    46aa:	eb 00                	jmp    46ac <.label9045>

00000000000046ac <.label9045>:
    46ac:	eb 00                	jmp    46ae <.label9046>

00000000000046ae <.label9046>:
    46ae:	eb 00                	jmp    46b0 <.label9047>

00000000000046b0 <.label9047>:
    46b0:	eb 00                	jmp    46b2 <.label9048>

00000000000046b2 <.label9048>:
    46b2:	eb 00                	jmp    46b4 <.label9049>

00000000000046b4 <.label9049>:
    46b4:	eb 00                	jmp    46b6 <.label9050>

00000000000046b6 <.label9050>:
    46b6:	eb 00                	jmp    46b8 <.label9051>

00000000000046b8 <.label9051>:
    46b8:	eb 00                	jmp    46ba <.label9052>

00000000000046ba <.label9052>:
    46ba:	eb 00                	jmp    46bc <.label9053>

00000000000046bc <.label9053>:
    46bc:	eb 00                	jmp    46be <.label9054>

00000000000046be <.label9054>:
    46be:	eb 00                	jmp    46c0 <.label9055>

00000000000046c0 <.label9055>:
    46c0:	eb 00                	jmp    46c2 <.label9056>

00000000000046c2 <.label9056>:
    46c2:	eb 00                	jmp    46c4 <.label9057>

00000000000046c4 <.label9057>:
    46c4:	eb 00                	jmp    46c6 <.label9058>

00000000000046c6 <.label9058>:
    46c6:	eb 00                	jmp    46c8 <.label9059>

00000000000046c8 <.label9059>:
    46c8:	eb 00                	jmp    46ca <.label9060>

00000000000046ca <.label9060>:
    46ca:	eb 00                	jmp    46cc <.label9061>

00000000000046cc <.label9061>:
    46cc:	eb 00                	jmp    46ce <.label9062>

00000000000046ce <.label9062>:
    46ce:	eb 00                	jmp    46d0 <.label9063>

00000000000046d0 <.label9063>:
    46d0:	eb 00                	jmp    46d2 <.label9064>

00000000000046d2 <.label9064>:
    46d2:	eb 00                	jmp    46d4 <.label9065>

00000000000046d4 <.label9065>:
    46d4:	eb 00                	jmp    46d6 <.label9066>

00000000000046d6 <.label9066>:
    46d6:	eb 00                	jmp    46d8 <.label9067>

00000000000046d8 <.label9067>:
    46d8:	eb 00                	jmp    46da <.label9068>

00000000000046da <.label9068>:
    46da:	eb 00                	jmp    46dc <.label9069>

00000000000046dc <.label9069>:
    46dc:	eb 00                	jmp    46de <.label9070>

00000000000046de <.label9070>:
    46de:	eb 00                	jmp    46e0 <.label9071>

00000000000046e0 <.label9071>:
    46e0:	eb 00                	jmp    46e2 <.label9072>

00000000000046e2 <.label9072>:
    46e2:	eb 00                	jmp    46e4 <.label9073>

00000000000046e4 <.label9073>:
    46e4:	eb 00                	jmp    46e6 <.label9074>

00000000000046e6 <.label9074>:
    46e6:	eb 00                	jmp    46e8 <.label9075>

00000000000046e8 <.label9075>:
    46e8:	eb 00                	jmp    46ea <.label9076>

00000000000046ea <.label9076>:
    46ea:	eb 00                	jmp    46ec <.label9077>

00000000000046ec <.label9077>:
    46ec:	eb 00                	jmp    46ee <.label9078>

00000000000046ee <.label9078>:
    46ee:	eb 00                	jmp    46f0 <.label9079>

00000000000046f0 <.label9079>:
    46f0:	eb 00                	jmp    46f2 <.label9080>

00000000000046f2 <.label9080>:
    46f2:	eb 00                	jmp    46f4 <.label9081>

00000000000046f4 <.label9081>:
    46f4:	eb 00                	jmp    46f6 <.label9082>

00000000000046f6 <.label9082>:
    46f6:	eb 00                	jmp    46f8 <.label9083>

00000000000046f8 <.label9083>:
    46f8:	eb 00                	jmp    46fa <.label9084>

00000000000046fa <.label9084>:
    46fa:	eb 00                	jmp    46fc <.label9085>

00000000000046fc <.label9085>:
    46fc:	eb 00                	jmp    46fe <.label9086>

00000000000046fe <.label9086>:
    46fe:	eb 00                	jmp    4700 <.label9087>

0000000000004700 <.label9087>:
    4700:	eb 00                	jmp    4702 <.label9088>

0000000000004702 <.label9088>:
    4702:	eb 00                	jmp    4704 <.label9089>

0000000000004704 <.label9089>:
    4704:	eb 00                	jmp    4706 <.label9090>

0000000000004706 <.label9090>:
    4706:	eb 00                	jmp    4708 <.label9091>

0000000000004708 <.label9091>:
    4708:	eb 00                	jmp    470a <.label9092>

000000000000470a <.label9092>:
    470a:	eb 00                	jmp    470c <.label9093>

000000000000470c <.label9093>:
    470c:	eb 00                	jmp    470e <.label9094>

000000000000470e <.label9094>:
    470e:	eb 00                	jmp    4710 <.label9095>

0000000000004710 <.label9095>:
    4710:	eb 00                	jmp    4712 <.label9096>

0000000000004712 <.label9096>:
    4712:	eb 00                	jmp    4714 <.label9097>

0000000000004714 <.label9097>:
    4714:	eb 00                	jmp    4716 <.label9098>

0000000000004716 <.label9098>:
    4716:	eb 00                	jmp    4718 <.label9099>

0000000000004718 <.label9099>:
    4718:	eb 00                	jmp    471a <.label9100>

000000000000471a <.label9100>:
    471a:	eb 00                	jmp    471c <.label9101>

000000000000471c <.label9101>:
    471c:	eb 00                	jmp    471e <.label9102>

000000000000471e <.label9102>:
    471e:	eb 00                	jmp    4720 <.label9103>

0000000000004720 <.label9103>:
    4720:	eb 00                	jmp    4722 <.label9104>

0000000000004722 <.label9104>:
    4722:	eb 00                	jmp    4724 <.label9105>

0000000000004724 <.label9105>:
    4724:	eb 00                	jmp    4726 <.label9106>

0000000000004726 <.label9106>:
    4726:	eb 00                	jmp    4728 <.label9107>

0000000000004728 <.label9107>:
    4728:	eb 00                	jmp    472a <.label9108>

000000000000472a <.label9108>:
    472a:	eb 00                	jmp    472c <.label9109>

000000000000472c <.label9109>:
    472c:	eb 00                	jmp    472e <.label9110>

000000000000472e <.label9110>:
    472e:	eb 00                	jmp    4730 <.label9111>

0000000000004730 <.label9111>:
    4730:	eb 00                	jmp    4732 <.label9112>

0000000000004732 <.label9112>:
    4732:	eb 00                	jmp    4734 <.label9113>

0000000000004734 <.label9113>:
    4734:	eb 00                	jmp    4736 <.label9114>

0000000000004736 <.label9114>:
    4736:	eb 00                	jmp    4738 <.label9115>

0000000000004738 <.label9115>:
    4738:	eb 00                	jmp    473a <.label9116>

000000000000473a <.label9116>:
    473a:	eb 00                	jmp    473c <.label9117>

000000000000473c <.label9117>:
    473c:	eb 00                	jmp    473e <.label9118>

000000000000473e <.label9118>:
    473e:	eb 00                	jmp    4740 <.label9119>

0000000000004740 <.label9119>:
    4740:	eb 00                	jmp    4742 <.label9120>

0000000000004742 <.label9120>:
    4742:	eb 00                	jmp    4744 <.label9121>

0000000000004744 <.label9121>:
    4744:	eb 00                	jmp    4746 <.label9122>

0000000000004746 <.label9122>:
    4746:	eb 00                	jmp    4748 <.label9123>

0000000000004748 <.label9123>:
    4748:	eb 00                	jmp    474a <.label9124>

000000000000474a <.label9124>:
    474a:	eb 00                	jmp    474c <.label9125>

000000000000474c <.label9125>:
    474c:	eb 00                	jmp    474e <.label9126>

000000000000474e <.label9126>:
    474e:	eb 00                	jmp    4750 <.label9127>

0000000000004750 <.label9127>:
    4750:	eb 00                	jmp    4752 <.label9128>

0000000000004752 <.label9128>:
    4752:	eb 00                	jmp    4754 <.label9129>

0000000000004754 <.label9129>:
    4754:	eb 00                	jmp    4756 <.label9130>

0000000000004756 <.label9130>:
    4756:	eb 00                	jmp    4758 <.label9131>

0000000000004758 <.label9131>:
    4758:	eb 00                	jmp    475a <.label9132>

000000000000475a <.label9132>:
    475a:	eb 00                	jmp    475c <.label9133>

000000000000475c <.label9133>:
    475c:	eb 00                	jmp    475e <.label9134>

000000000000475e <.label9134>:
    475e:	eb 00                	jmp    4760 <.label9135>

0000000000004760 <.label9135>:
    4760:	eb 00                	jmp    4762 <.label9136>

0000000000004762 <.label9136>:
    4762:	eb 00                	jmp    4764 <.label9137>

0000000000004764 <.label9137>:
    4764:	eb 00                	jmp    4766 <.label9138>

0000000000004766 <.label9138>:
    4766:	eb 00                	jmp    4768 <.label9139>

0000000000004768 <.label9139>:
    4768:	eb 00                	jmp    476a <.label9140>

000000000000476a <.label9140>:
    476a:	eb 00                	jmp    476c <.label9141>

000000000000476c <.label9141>:
    476c:	eb 00                	jmp    476e <.label9142>

000000000000476e <.label9142>:
    476e:	eb 00                	jmp    4770 <.label9143>

0000000000004770 <.label9143>:
    4770:	eb 00                	jmp    4772 <.label9144>

0000000000004772 <.label9144>:
    4772:	eb 00                	jmp    4774 <.label9145>

0000000000004774 <.label9145>:
    4774:	eb 00                	jmp    4776 <.label9146>

0000000000004776 <.label9146>:
    4776:	eb 00                	jmp    4778 <.label9147>

0000000000004778 <.label9147>:
    4778:	eb 00                	jmp    477a <.label9148>

000000000000477a <.label9148>:
    477a:	eb 00                	jmp    477c <.label9149>

000000000000477c <.label9149>:
    477c:	eb 00                	jmp    477e <.label9150>

000000000000477e <.label9150>:
    477e:	eb 00                	jmp    4780 <.label9151>

0000000000004780 <.label9151>:
    4780:	eb 00                	jmp    4782 <.label9152>

0000000000004782 <.label9152>:
    4782:	eb 00                	jmp    4784 <.label9153>

0000000000004784 <.label9153>:
    4784:	eb 00                	jmp    4786 <.label9154>

0000000000004786 <.label9154>:
    4786:	eb 00                	jmp    4788 <.label9155>

0000000000004788 <.label9155>:
    4788:	eb 00                	jmp    478a <.label9156>

000000000000478a <.label9156>:
    478a:	eb 00                	jmp    478c <.label9157>

000000000000478c <.label9157>:
    478c:	eb 00                	jmp    478e <.label9158>

000000000000478e <.label9158>:
    478e:	eb 00                	jmp    4790 <.label9159>

0000000000004790 <.label9159>:
    4790:	eb 00                	jmp    4792 <.label9160>

0000000000004792 <.label9160>:
    4792:	eb 00                	jmp    4794 <.label9161>

0000000000004794 <.label9161>:
    4794:	eb 00                	jmp    4796 <.label9162>

0000000000004796 <.label9162>:
    4796:	eb 00                	jmp    4798 <.label9163>

0000000000004798 <.label9163>:
    4798:	eb 00                	jmp    479a <.label9164>

000000000000479a <.label9164>:
    479a:	eb 00                	jmp    479c <.label9165>

000000000000479c <.label9165>:
    479c:	eb 00                	jmp    479e <.label9166>

000000000000479e <.label9166>:
    479e:	eb 00                	jmp    47a0 <.label9167>

00000000000047a0 <.label9167>:
    47a0:	eb 00                	jmp    47a2 <.label9168>

00000000000047a2 <.label9168>:
    47a2:	eb 00                	jmp    47a4 <.label9169>

00000000000047a4 <.label9169>:
    47a4:	eb 00                	jmp    47a6 <.label9170>

00000000000047a6 <.label9170>:
    47a6:	eb 00                	jmp    47a8 <.label9171>

00000000000047a8 <.label9171>:
    47a8:	eb 00                	jmp    47aa <.label9172>

00000000000047aa <.label9172>:
    47aa:	eb 00                	jmp    47ac <.label9173>

00000000000047ac <.label9173>:
    47ac:	eb 00                	jmp    47ae <.label9174>

00000000000047ae <.label9174>:
    47ae:	eb 00                	jmp    47b0 <.label9175>

00000000000047b0 <.label9175>:
    47b0:	eb 00                	jmp    47b2 <.label9176>

00000000000047b2 <.label9176>:
    47b2:	eb 00                	jmp    47b4 <.label9177>

00000000000047b4 <.label9177>:
    47b4:	eb 00                	jmp    47b6 <.label9178>

00000000000047b6 <.label9178>:
    47b6:	eb 00                	jmp    47b8 <.label9179>

00000000000047b8 <.label9179>:
    47b8:	eb 00                	jmp    47ba <.label9180>

00000000000047ba <.label9180>:
    47ba:	eb 00                	jmp    47bc <.label9181>

00000000000047bc <.label9181>:
    47bc:	eb 00                	jmp    47be <.label9182>

00000000000047be <.label9182>:
    47be:	eb 00                	jmp    47c0 <.label9183>

00000000000047c0 <.label9183>:
    47c0:	eb 00                	jmp    47c2 <.label9184>

00000000000047c2 <.label9184>:
    47c2:	eb 00                	jmp    47c4 <.label9185>

00000000000047c4 <.label9185>:
    47c4:	eb 00                	jmp    47c6 <.label9186>

00000000000047c6 <.label9186>:
    47c6:	eb 00                	jmp    47c8 <.label9187>

00000000000047c8 <.label9187>:
    47c8:	eb 00                	jmp    47ca <.label9188>

00000000000047ca <.label9188>:
    47ca:	eb 00                	jmp    47cc <.label9189>

00000000000047cc <.label9189>:
    47cc:	eb 00                	jmp    47ce <.label9190>

00000000000047ce <.label9190>:
    47ce:	eb 00                	jmp    47d0 <.label9191>

00000000000047d0 <.label9191>:
    47d0:	eb 00                	jmp    47d2 <.label9192>

00000000000047d2 <.label9192>:
    47d2:	eb 00                	jmp    47d4 <.label9193>

00000000000047d4 <.label9193>:
    47d4:	eb 00                	jmp    47d6 <.label9194>

00000000000047d6 <.label9194>:
    47d6:	eb 00                	jmp    47d8 <.label9195>

00000000000047d8 <.label9195>:
    47d8:	eb 00                	jmp    47da <.label9196>

00000000000047da <.label9196>:
    47da:	eb 00                	jmp    47dc <.label9197>

00000000000047dc <.label9197>:
    47dc:	eb 00                	jmp    47de <.label9198>

00000000000047de <.label9198>:
    47de:	eb 00                	jmp    47e0 <.label9199>

00000000000047e0 <.label9199>:
    47e0:	eb 00                	jmp    47e2 <.label9200>

00000000000047e2 <.label9200>:
    47e2:	eb 00                	jmp    47e4 <.label9201>

00000000000047e4 <.label9201>:
    47e4:	eb 00                	jmp    47e6 <.label9202>

00000000000047e6 <.label9202>:
    47e6:	eb 00                	jmp    47e8 <.label9203>

00000000000047e8 <.label9203>:
    47e8:	eb 00                	jmp    47ea <.label9204>

00000000000047ea <.label9204>:
    47ea:	eb 00                	jmp    47ec <.label9205>

00000000000047ec <.label9205>:
    47ec:	eb 00                	jmp    47ee <.label9206>

00000000000047ee <.label9206>:
    47ee:	eb 00                	jmp    47f0 <.label9207>

00000000000047f0 <.label9207>:
    47f0:	eb 00                	jmp    47f2 <.label9208>

00000000000047f2 <.label9208>:
    47f2:	eb 00                	jmp    47f4 <.label9209>

00000000000047f4 <.label9209>:
    47f4:	eb 00                	jmp    47f6 <.label9210>

00000000000047f6 <.label9210>:
    47f6:	eb 00                	jmp    47f8 <.label9211>

00000000000047f8 <.label9211>:
    47f8:	eb 00                	jmp    47fa <.label9212>

00000000000047fa <.label9212>:
    47fa:	eb 00                	jmp    47fc <.label9213>

00000000000047fc <.label9213>:
    47fc:	eb 00                	jmp    47fe <.label9214>

00000000000047fe <.label9214>:
    47fe:	eb 00                	jmp    4800 <.label9215>

0000000000004800 <.label9215>:
    4800:	eb 00                	jmp    4802 <.label9216>

0000000000004802 <.label9216>:
    4802:	eb 00                	jmp    4804 <.label9217>

0000000000004804 <.label9217>:
    4804:	eb 00                	jmp    4806 <.label9218>

0000000000004806 <.label9218>:
    4806:	eb 00                	jmp    4808 <.label9219>

0000000000004808 <.label9219>:
    4808:	eb 00                	jmp    480a <.label9220>

000000000000480a <.label9220>:
    480a:	eb 00                	jmp    480c <.label9221>

000000000000480c <.label9221>:
    480c:	eb 00                	jmp    480e <.label9222>

000000000000480e <.label9222>:
    480e:	eb 00                	jmp    4810 <.label9223>

0000000000004810 <.label9223>:
    4810:	eb 00                	jmp    4812 <.label9224>

0000000000004812 <.label9224>:
    4812:	eb 00                	jmp    4814 <.label9225>

0000000000004814 <.label9225>:
    4814:	eb 00                	jmp    4816 <.label9226>

0000000000004816 <.label9226>:
    4816:	eb 00                	jmp    4818 <.label9227>

0000000000004818 <.label9227>:
    4818:	eb 00                	jmp    481a <.label9228>

000000000000481a <.label9228>:
    481a:	eb 00                	jmp    481c <.label9229>

000000000000481c <.label9229>:
    481c:	eb 00                	jmp    481e <.label9230>

000000000000481e <.label9230>:
    481e:	eb 00                	jmp    4820 <.label9231>

0000000000004820 <.label9231>:
    4820:	eb 00                	jmp    4822 <.label9232>

0000000000004822 <.label9232>:
    4822:	eb 00                	jmp    4824 <.label9233>

0000000000004824 <.label9233>:
    4824:	eb 00                	jmp    4826 <.label9234>

0000000000004826 <.label9234>:
    4826:	eb 00                	jmp    4828 <.label9235>

0000000000004828 <.label9235>:
    4828:	eb 00                	jmp    482a <.label9236>

000000000000482a <.label9236>:
    482a:	eb 00                	jmp    482c <.label9237>

000000000000482c <.label9237>:
    482c:	eb 00                	jmp    482e <.label9238>

000000000000482e <.label9238>:
    482e:	eb 00                	jmp    4830 <.label9239>

0000000000004830 <.label9239>:
    4830:	eb 00                	jmp    4832 <.label9240>

0000000000004832 <.label9240>:
    4832:	eb 00                	jmp    4834 <.label9241>

0000000000004834 <.label9241>:
    4834:	eb 00                	jmp    4836 <.label9242>

0000000000004836 <.label9242>:
    4836:	eb 00                	jmp    4838 <.label9243>

0000000000004838 <.label9243>:
    4838:	eb 00                	jmp    483a <.label9244>

000000000000483a <.label9244>:
    483a:	eb 00                	jmp    483c <.label9245>

000000000000483c <.label9245>:
    483c:	eb 00                	jmp    483e <.label9246>

000000000000483e <.label9246>:
    483e:	eb 00                	jmp    4840 <.label9247>

0000000000004840 <.label9247>:
    4840:	eb 00                	jmp    4842 <.label9248>

0000000000004842 <.label9248>:
    4842:	eb 00                	jmp    4844 <.label9249>

0000000000004844 <.label9249>:
    4844:	eb 00                	jmp    4846 <.label9250>

0000000000004846 <.label9250>:
    4846:	eb 00                	jmp    4848 <.label9251>

0000000000004848 <.label9251>:
    4848:	eb 00                	jmp    484a <.label9252>

000000000000484a <.label9252>:
    484a:	eb 00                	jmp    484c <.label9253>

000000000000484c <.label9253>:
    484c:	eb 00                	jmp    484e <.label9254>

000000000000484e <.label9254>:
    484e:	eb 00                	jmp    4850 <.label9255>

0000000000004850 <.label9255>:
    4850:	eb 00                	jmp    4852 <.label9256>

0000000000004852 <.label9256>:
    4852:	eb 00                	jmp    4854 <.label9257>

0000000000004854 <.label9257>:
    4854:	eb 00                	jmp    4856 <.label9258>

0000000000004856 <.label9258>:
    4856:	eb 00                	jmp    4858 <.label9259>

0000000000004858 <.label9259>:
    4858:	eb 00                	jmp    485a <.label9260>

000000000000485a <.label9260>:
    485a:	eb 00                	jmp    485c <.label9261>

000000000000485c <.label9261>:
    485c:	eb 00                	jmp    485e <.label9262>

000000000000485e <.label9262>:
    485e:	eb 00                	jmp    4860 <.label9263>

0000000000004860 <.label9263>:
    4860:	eb 00                	jmp    4862 <.label9264>

0000000000004862 <.label9264>:
    4862:	eb 00                	jmp    4864 <.label9265>

0000000000004864 <.label9265>:
    4864:	eb 00                	jmp    4866 <.label9266>

0000000000004866 <.label9266>:
    4866:	eb 00                	jmp    4868 <.label9267>

0000000000004868 <.label9267>:
    4868:	eb 00                	jmp    486a <.label9268>

000000000000486a <.label9268>:
    486a:	eb 00                	jmp    486c <.label9269>

000000000000486c <.label9269>:
    486c:	eb 00                	jmp    486e <.label9270>

000000000000486e <.label9270>:
    486e:	eb 00                	jmp    4870 <.label9271>

0000000000004870 <.label9271>:
    4870:	eb 00                	jmp    4872 <.label9272>

0000000000004872 <.label9272>:
    4872:	eb 00                	jmp    4874 <.label9273>

0000000000004874 <.label9273>:
    4874:	eb 00                	jmp    4876 <.label9274>

0000000000004876 <.label9274>:
    4876:	eb 00                	jmp    4878 <.label9275>

0000000000004878 <.label9275>:
    4878:	eb 00                	jmp    487a <.label9276>

000000000000487a <.label9276>:
    487a:	eb 00                	jmp    487c <.label9277>

000000000000487c <.label9277>:
    487c:	eb 00                	jmp    487e <.label9278>

000000000000487e <.label9278>:
    487e:	eb 00                	jmp    4880 <.label9279>

0000000000004880 <.label9279>:
    4880:	eb 00                	jmp    4882 <.label9280>

0000000000004882 <.label9280>:
    4882:	eb 00                	jmp    4884 <.label9281>

0000000000004884 <.label9281>:
    4884:	eb 00                	jmp    4886 <.label9282>

0000000000004886 <.label9282>:
    4886:	eb 00                	jmp    4888 <.label9283>

0000000000004888 <.label9283>:
    4888:	eb 00                	jmp    488a <.label9284>

000000000000488a <.label9284>:
    488a:	eb 00                	jmp    488c <.label9285>

000000000000488c <.label9285>:
    488c:	eb 00                	jmp    488e <.label9286>

000000000000488e <.label9286>:
    488e:	eb 00                	jmp    4890 <.label9287>

0000000000004890 <.label9287>:
    4890:	eb 00                	jmp    4892 <.label9288>

0000000000004892 <.label9288>:
    4892:	eb 00                	jmp    4894 <.label9289>

0000000000004894 <.label9289>:
    4894:	eb 00                	jmp    4896 <.label9290>

0000000000004896 <.label9290>:
    4896:	eb 00                	jmp    4898 <.label9291>

0000000000004898 <.label9291>:
    4898:	eb 00                	jmp    489a <.label9292>

000000000000489a <.label9292>:
    489a:	eb 00                	jmp    489c <.label9293>

000000000000489c <.label9293>:
    489c:	eb 00                	jmp    489e <.label9294>

000000000000489e <.label9294>:
    489e:	eb 00                	jmp    48a0 <.label9295>

00000000000048a0 <.label9295>:
    48a0:	eb 00                	jmp    48a2 <.label9296>

00000000000048a2 <.label9296>:
    48a2:	eb 00                	jmp    48a4 <.label9297>

00000000000048a4 <.label9297>:
    48a4:	eb 00                	jmp    48a6 <.label9298>

00000000000048a6 <.label9298>:
    48a6:	eb 00                	jmp    48a8 <.label9299>

00000000000048a8 <.label9299>:
    48a8:	eb 00                	jmp    48aa <.label9300>

00000000000048aa <.label9300>:
    48aa:	eb 00                	jmp    48ac <.label9301>

00000000000048ac <.label9301>:
    48ac:	eb 00                	jmp    48ae <.label9302>

00000000000048ae <.label9302>:
    48ae:	eb 00                	jmp    48b0 <.label9303>

00000000000048b0 <.label9303>:
    48b0:	eb 00                	jmp    48b2 <.label9304>

00000000000048b2 <.label9304>:
    48b2:	eb 00                	jmp    48b4 <.label9305>

00000000000048b4 <.label9305>:
    48b4:	eb 00                	jmp    48b6 <.label9306>

00000000000048b6 <.label9306>:
    48b6:	eb 00                	jmp    48b8 <.label9307>

00000000000048b8 <.label9307>:
    48b8:	eb 00                	jmp    48ba <.label9308>

00000000000048ba <.label9308>:
    48ba:	eb 00                	jmp    48bc <.label9309>

00000000000048bc <.label9309>:
    48bc:	eb 00                	jmp    48be <.label9310>

00000000000048be <.label9310>:
    48be:	eb 00                	jmp    48c0 <.label9311>

00000000000048c0 <.label9311>:
    48c0:	eb 00                	jmp    48c2 <.label9312>

00000000000048c2 <.label9312>:
    48c2:	eb 00                	jmp    48c4 <.label9313>

00000000000048c4 <.label9313>:
    48c4:	eb 00                	jmp    48c6 <.label9314>

00000000000048c6 <.label9314>:
    48c6:	eb 00                	jmp    48c8 <.label9315>

00000000000048c8 <.label9315>:
    48c8:	eb 00                	jmp    48ca <.label9316>

00000000000048ca <.label9316>:
    48ca:	eb 00                	jmp    48cc <.label9317>

00000000000048cc <.label9317>:
    48cc:	eb 00                	jmp    48ce <.label9318>

00000000000048ce <.label9318>:
    48ce:	eb 00                	jmp    48d0 <.label9319>

00000000000048d0 <.label9319>:
    48d0:	eb 00                	jmp    48d2 <.label9320>

00000000000048d2 <.label9320>:
    48d2:	eb 00                	jmp    48d4 <.label9321>

00000000000048d4 <.label9321>:
    48d4:	eb 00                	jmp    48d6 <.label9322>

00000000000048d6 <.label9322>:
    48d6:	eb 00                	jmp    48d8 <.label9323>

00000000000048d8 <.label9323>:
    48d8:	eb 00                	jmp    48da <.label9324>

00000000000048da <.label9324>:
    48da:	eb 00                	jmp    48dc <.label9325>

00000000000048dc <.label9325>:
    48dc:	eb 00                	jmp    48de <.label9326>

00000000000048de <.label9326>:
    48de:	eb 00                	jmp    48e0 <.label9327>

00000000000048e0 <.label9327>:
    48e0:	eb 00                	jmp    48e2 <.label9328>

00000000000048e2 <.label9328>:
    48e2:	eb 00                	jmp    48e4 <.label9329>

00000000000048e4 <.label9329>:
    48e4:	eb 00                	jmp    48e6 <.label9330>

00000000000048e6 <.label9330>:
    48e6:	eb 00                	jmp    48e8 <.label9331>

00000000000048e8 <.label9331>:
    48e8:	eb 00                	jmp    48ea <.label9332>

00000000000048ea <.label9332>:
    48ea:	eb 00                	jmp    48ec <.label9333>

00000000000048ec <.label9333>:
    48ec:	eb 00                	jmp    48ee <.label9334>

00000000000048ee <.label9334>:
    48ee:	eb 00                	jmp    48f0 <.label9335>

00000000000048f0 <.label9335>:
    48f0:	eb 00                	jmp    48f2 <.label9336>

00000000000048f2 <.label9336>:
    48f2:	eb 00                	jmp    48f4 <.label9337>

00000000000048f4 <.label9337>:
    48f4:	eb 00                	jmp    48f6 <.label9338>

00000000000048f6 <.label9338>:
    48f6:	eb 00                	jmp    48f8 <.label9339>

00000000000048f8 <.label9339>:
    48f8:	eb 00                	jmp    48fa <.label9340>

00000000000048fa <.label9340>:
    48fa:	eb 00                	jmp    48fc <.label9341>

00000000000048fc <.label9341>:
    48fc:	eb 00                	jmp    48fe <.label9342>

00000000000048fe <.label9342>:
    48fe:	eb 00                	jmp    4900 <.label9343>

0000000000004900 <.label9343>:
    4900:	eb 00                	jmp    4902 <.label9344>

0000000000004902 <.label9344>:
    4902:	eb 00                	jmp    4904 <.label9345>

0000000000004904 <.label9345>:
    4904:	eb 00                	jmp    4906 <.label9346>

0000000000004906 <.label9346>:
    4906:	eb 00                	jmp    4908 <.label9347>

0000000000004908 <.label9347>:
    4908:	eb 00                	jmp    490a <.label9348>

000000000000490a <.label9348>:
    490a:	eb 00                	jmp    490c <.label9349>

000000000000490c <.label9349>:
    490c:	eb 00                	jmp    490e <.label9350>

000000000000490e <.label9350>:
    490e:	eb 00                	jmp    4910 <.label9351>

0000000000004910 <.label9351>:
    4910:	eb 00                	jmp    4912 <.label9352>

0000000000004912 <.label9352>:
    4912:	eb 00                	jmp    4914 <.label9353>

0000000000004914 <.label9353>:
    4914:	eb 00                	jmp    4916 <.label9354>

0000000000004916 <.label9354>:
    4916:	eb 00                	jmp    4918 <.label9355>

0000000000004918 <.label9355>:
    4918:	eb 00                	jmp    491a <.label9356>

000000000000491a <.label9356>:
    491a:	eb 00                	jmp    491c <.label9357>

000000000000491c <.label9357>:
    491c:	eb 00                	jmp    491e <.label9358>

000000000000491e <.label9358>:
    491e:	eb 00                	jmp    4920 <.label9359>

0000000000004920 <.label9359>:
    4920:	eb 00                	jmp    4922 <.label9360>

0000000000004922 <.label9360>:
    4922:	eb 00                	jmp    4924 <.label9361>

0000000000004924 <.label9361>:
    4924:	eb 00                	jmp    4926 <.label9362>

0000000000004926 <.label9362>:
    4926:	eb 00                	jmp    4928 <.label9363>

0000000000004928 <.label9363>:
    4928:	eb 00                	jmp    492a <.label9364>

000000000000492a <.label9364>:
    492a:	eb 00                	jmp    492c <.label9365>

000000000000492c <.label9365>:
    492c:	eb 00                	jmp    492e <.label9366>

000000000000492e <.label9366>:
    492e:	eb 00                	jmp    4930 <.label9367>

0000000000004930 <.label9367>:
    4930:	eb 00                	jmp    4932 <.label9368>

0000000000004932 <.label9368>:
    4932:	eb 00                	jmp    4934 <.label9369>

0000000000004934 <.label9369>:
    4934:	eb 00                	jmp    4936 <.label9370>

0000000000004936 <.label9370>:
    4936:	eb 00                	jmp    4938 <.label9371>

0000000000004938 <.label9371>:
    4938:	eb 00                	jmp    493a <.label9372>

000000000000493a <.label9372>:
    493a:	eb 00                	jmp    493c <.label9373>

000000000000493c <.label9373>:
    493c:	eb 00                	jmp    493e <.label9374>

000000000000493e <.label9374>:
    493e:	eb 00                	jmp    4940 <.label9375>

0000000000004940 <.label9375>:
    4940:	eb 00                	jmp    4942 <.label9376>

0000000000004942 <.label9376>:
    4942:	eb 00                	jmp    4944 <.label9377>

0000000000004944 <.label9377>:
    4944:	eb 00                	jmp    4946 <.label9378>

0000000000004946 <.label9378>:
    4946:	eb 00                	jmp    4948 <.label9379>

0000000000004948 <.label9379>:
    4948:	eb 00                	jmp    494a <.label9380>

000000000000494a <.label9380>:
    494a:	eb 00                	jmp    494c <.label9381>

000000000000494c <.label9381>:
    494c:	eb 00                	jmp    494e <.label9382>

000000000000494e <.label9382>:
    494e:	eb 00                	jmp    4950 <.label9383>

0000000000004950 <.label9383>:
    4950:	eb 00                	jmp    4952 <.label9384>

0000000000004952 <.label9384>:
    4952:	eb 00                	jmp    4954 <.label9385>

0000000000004954 <.label9385>:
    4954:	eb 00                	jmp    4956 <.label9386>

0000000000004956 <.label9386>:
    4956:	eb 00                	jmp    4958 <.label9387>

0000000000004958 <.label9387>:
    4958:	eb 00                	jmp    495a <.label9388>

000000000000495a <.label9388>:
    495a:	eb 00                	jmp    495c <.label9389>

000000000000495c <.label9389>:
    495c:	eb 00                	jmp    495e <.label9390>

000000000000495e <.label9390>:
    495e:	eb 00                	jmp    4960 <.label9391>

0000000000004960 <.label9391>:
    4960:	eb 00                	jmp    4962 <.label9392>

0000000000004962 <.label9392>:
    4962:	eb 00                	jmp    4964 <.label9393>

0000000000004964 <.label9393>:
    4964:	eb 00                	jmp    4966 <.label9394>

0000000000004966 <.label9394>:
    4966:	eb 00                	jmp    4968 <.label9395>

0000000000004968 <.label9395>:
    4968:	eb 00                	jmp    496a <.label9396>

000000000000496a <.label9396>:
    496a:	eb 00                	jmp    496c <.label9397>

000000000000496c <.label9397>:
    496c:	eb 00                	jmp    496e <.label9398>

000000000000496e <.label9398>:
    496e:	eb 00                	jmp    4970 <.label9399>

0000000000004970 <.label9399>:
    4970:	eb 00                	jmp    4972 <.label9400>

0000000000004972 <.label9400>:
    4972:	eb 00                	jmp    4974 <.label9401>

0000000000004974 <.label9401>:
    4974:	eb 00                	jmp    4976 <.label9402>

0000000000004976 <.label9402>:
    4976:	eb 00                	jmp    4978 <.label9403>

0000000000004978 <.label9403>:
    4978:	eb 00                	jmp    497a <.label9404>

000000000000497a <.label9404>:
    497a:	eb 00                	jmp    497c <.label9405>

000000000000497c <.label9405>:
    497c:	eb 00                	jmp    497e <.label9406>

000000000000497e <.label9406>:
    497e:	eb 00                	jmp    4980 <.label9407>

0000000000004980 <.label9407>:
    4980:	eb 00                	jmp    4982 <.label9408>

0000000000004982 <.label9408>:
    4982:	eb 00                	jmp    4984 <.label9409>

0000000000004984 <.label9409>:
    4984:	eb 00                	jmp    4986 <.label9410>

0000000000004986 <.label9410>:
    4986:	eb 00                	jmp    4988 <.label9411>

0000000000004988 <.label9411>:
    4988:	eb 00                	jmp    498a <.label9412>

000000000000498a <.label9412>:
    498a:	eb 00                	jmp    498c <.label9413>

000000000000498c <.label9413>:
    498c:	eb 00                	jmp    498e <.label9414>

000000000000498e <.label9414>:
    498e:	eb 00                	jmp    4990 <.label9415>

0000000000004990 <.label9415>:
    4990:	eb 00                	jmp    4992 <.label9416>

0000000000004992 <.label9416>:
    4992:	eb 00                	jmp    4994 <.label9417>

0000000000004994 <.label9417>:
    4994:	eb 00                	jmp    4996 <.label9418>

0000000000004996 <.label9418>:
    4996:	eb 00                	jmp    4998 <.label9419>

0000000000004998 <.label9419>:
    4998:	eb 00                	jmp    499a <.label9420>

000000000000499a <.label9420>:
    499a:	eb 00                	jmp    499c <.label9421>

000000000000499c <.label9421>:
    499c:	eb 00                	jmp    499e <.label9422>

000000000000499e <.label9422>:
    499e:	eb 00                	jmp    49a0 <.label9423>

00000000000049a0 <.label9423>:
    49a0:	eb 00                	jmp    49a2 <.label9424>

00000000000049a2 <.label9424>:
    49a2:	eb 00                	jmp    49a4 <.label9425>

00000000000049a4 <.label9425>:
    49a4:	eb 00                	jmp    49a6 <.label9426>

00000000000049a6 <.label9426>:
    49a6:	eb 00                	jmp    49a8 <.label9427>

00000000000049a8 <.label9427>:
    49a8:	eb 00                	jmp    49aa <.label9428>

00000000000049aa <.label9428>:
    49aa:	eb 00                	jmp    49ac <.label9429>

00000000000049ac <.label9429>:
    49ac:	eb 00                	jmp    49ae <.label9430>

00000000000049ae <.label9430>:
    49ae:	eb 00                	jmp    49b0 <.label9431>

00000000000049b0 <.label9431>:
    49b0:	eb 00                	jmp    49b2 <.label9432>

00000000000049b2 <.label9432>:
    49b2:	eb 00                	jmp    49b4 <.label9433>

00000000000049b4 <.label9433>:
    49b4:	eb 00                	jmp    49b6 <.label9434>

00000000000049b6 <.label9434>:
    49b6:	eb 00                	jmp    49b8 <.label9435>

00000000000049b8 <.label9435>:
    49b8:	eb 00                	jmp    49ba <.label9436>

00000000000049ba <.label9436>:
    49ba:	eb 00                	jmp    49bc <.label9437>

00000000000049bc <.label9437>:
    49bc:	eb 00                	jmp    49be <.label9438>

00000000000049be <.label9438>:
    49be:	eb 00                	jmp    49c0 <.label9439>

00000000000049c0 <.label9439>:
    49c0:	eb 00                	jmp    49c2 <.label9440>

00000000000049c2 <.label9440>:
    49c2:	eb 00                	jmp    49c4 <.label9441>

00000000000049c4 <.label9441>:
    49c4:	eb 00                	jmp    49c6 <.label9442>

00000000000049c6 <.label9442>:
    49c6:	eb 00                	jmp    49c8 <.label9443>

00000000000049c8 <.label9443>:
    49c8:	eb 00                	jmp    49ca <.label9444>

00000000000049ca <.label9444>:
    49ca:	eb 00                	jmp    49cc <.label9445>

00000000000049cc <.label9445>:
    49cc:	eb 00                	jmp    49ce <.label9446>

00000000000049ce <.label9446>:
    49ce:	eb 00                	jmp    49d0 <.label9447>

00000000000049d0 <.label9447>:
    49d0:	eb 00                	jmp    49d2 <.label9448>

00000000000049d2 <.label9448>:
    49d2:	eb 00                	jmp    49d4 <.label9449>

00000000000049d4 <.label9449>:
    49d4:	eb 00                	jmp    49d6 <.label9450>

00000000000049d6 <.label9450>:
    49d6:	eb 00                	jmp    49d8 <.label9451>

00000000000049d8 <.label9451>:
    49d8:	eb 00                	jmp    49da <.label9452>

00000000000049da <.label9452>:
    49da:	eb 00                	jmp    49dc <.label9453>

00000000000049dc <.label9453>:
    49dc:	eb 00                	jmp    49de <.label9454>

00000000000049de <.label9454>:
    49de:	eb 00                	jmp    49e0 <.label9455>

00000000000049e0 <.label9455>:
    49e0:	eb 00                	jmp    49e2 <.label9456>

00000000000049e2 <.label9456>:
    49e2:	eb 00                	jmp    49e4 <.label9457>

00000000000049e4 <.label9457>:
    49e4:	eb 00                	jmp    49e6 <.label9458>

00000000000049e6 <.label9458>:
    49e6:	eb 00                	jmp    49e8 <.label9459>

00000000000049e8 <.label9459>:
    49e8:	eb 00                	jmp    49ea <.label9460>

00000000000049ea <.label9460>:
    49ea:	eb 00                	jmp    49ec <.label9461>

00000000000049ec <.label9461>:
    49ec:	eb 00                	jmp    49ee <.label9462>

00000000000049ee <.label9462>:
    49ee:	eb 00                	jmp    49f0 <.label9463>

00000000000049f0 <.label9463>:
    49f0:	eb 00                	jmp    49f2 <.label9464>

00000000000049f2 <.label9464>:
    49f2:	eb 00                	jmp    49f4 <.label9465>

00000000000049f4 <.label9465>:
    49f4:	eb 00                	jmp    49f6 <.label9466>

00000000000049f6 <.label9466>:
    49f6:	eb 00                	jmp    49f8 <.label9467>

00000000000049f8 <.label9467>:
    49f8:	eb 00                	jmp    49fa <.label9468>

00000000000049fa <.label9468>:
    49fa:	eb 00                	jmp    49fc <.label9469>

00000000000049fc <.label9469>:
    49fc:	eb 00                	jmp    49fe <.label9470>

00000000000049fe <.label9470>:
    49fe:	eb 00                	jmp    4a00 <.label9471>

0000000000004a00 <.label9471>:
    4a00:	eb 00                	jmp    4a02 <.label9472>

0000000000004a02 <.label9472>:
    4a02:	eb 00                	jmp    4a04 <.label9473>

0000000000004a04 <.label9473>:
    4a04:	eb 00                	jmp    4a06 <.label9474>

0000000000004a06 <.label9474>:
    4a06:	eb 00                	jmp    4a08 <.label9475>

0000000000004a08 <.label9475>:
    4a08:	eb 00                	jmp    4a0a <.label9476>

0000000000004a0a <.label9476>:
    4a0a:	eb 00                	jmp    4a0c <.label9477>

0000000000004a0c <.label9477>:
    4a0c:	eb 00                	jmp    4a0e <.label9478>

0000000000004a0e <.label9478>:
    4a0e:	eb 00                	jmp    4a10 <.label9479>

0000000000004a10 <.label9479>:
    4a10:	eb 00                	jmp    4a12 <.label9480>

0000000000004a12 <.label9480>:
    4a12:	eb 00                	jmp    4a14 <.label9481>

0000000000004a14 <.label9481>:
    4a14:	eb 00                	jmp    4a16 <.label9482>

0000000000004a16 <.label9482>:
    4a16:	eb 00                	jmp    4a18 <.label9483>

0000000000004a18 <.label9483>:
    4a18:	eb 00                	jmp    4a1a <.label9484>

0000000000004a1a <.label9484>:
    4a1a:	eb 00                	jmp    4a1c <.label9485>

0000000000004a1c <.label9485>:
    4a1c:	eb 00                	jmp    4a1e <.label9486>

0000000000004a1e <.label9486>:
    4a1e:	eb 00                	jmp    4a20 <.label9487>

0000000000004a20 <.label9487>:
    4a20:	eb 00                	jmp    4a22 <.label9488>

0000000000004a22 <.label9488>:
    4a22:	eb 00                	jmp    4a24 <.label9489>

0000000000004a24 <.label9489>:
    4a24:	eb 00                	jmp    4a26 <.label9490>

0000000000004a26 <.label9490>:
    4a26:	eb 00                	jmp    4a28 <.label9491>

0000000000004a28 <.label9491>:
    4a28:	eb 00                	jmp    4a2a <.label9492>

0000000000004a2a <.label9492>:
    4a2a:	eb 00                	jmp    4a2c <.label9493>

0000000000004a2c <.label9493>:
    4a2c:	eb 00                	jmp    4a2e <.label9494>

0000000000004a2e <.label9494>:
    4a2e:	eb 00                	jmp    4a30 <.label9495>

0000000000004a30 <.label9495>:
    4a30:	eb 00                	jmp    4a32 <.label9496>

0000000000004a32 <.label9496>:
    4a32:	eb 00                	jmp    4a34 <.label9497>

0000000000004a34 <.label9497>:
    4a34:	eb 00                	jmp    4a36 <.label9498>

0000000000004a36 <.label9498>:
    4a36:	eb 00                	jmp    4a38 <.label9499>

0000000000004a38 <.label9499>:
    4a38:	eb 00                	jmp    4a3a <.label9500>

0000000000004a3a <.label9500>:
    4a3a:	eb 00                	jmp    4a3c <.label9501>

0000000000004a3c <.label9501>:
    4a3c:	eb 00                	jmp    4a3e <.label9502>

0000000000004a3e <.label9502>:
    4a3e:	eb 00                	jmp    4a40 <.label9503>

0000000000004a40 <.label9503>:
    4a40:	eb 00                	jmp    4a42 <.label9504>

0000000000004a42 <.label9504>:
    4a42:	eb 00                	jmp    4a44 <.label9505>

0000000000004a44 <.label9505>:
    4a44:	eb 00                	jmp    4a46 <.label9506>

0000000000004a46 <.label9506>:
    4a46:	eb 00                	jmp    4a48 <.label9507>

0000000000004a48 <.label9507>:
    4a48:	eb 00                	jmp    4a4a <.label9508>

0000000000004a4a <.label9508>:
    4a4a:	eb 00                	jmp    4a4c <.label9509>

0000000000004a4c <.label9509>:
    4a4c:	eb 00                	jmp    4a4e <.label9510>

0000000000004a4e <.label9510>:
    4a4e:	eb 00                	jmp    4a50 <.label9511>

0000000000004a50 <.label9511>:
    4a50:	eb 00                	jmp    4a52 <.label9512>

0000000000004a52 <.label9512>:
    4a52:	eb 00                	jmp    4a54 <.label9513>

0000000000004a54 <.label9513>:
    4a54:	eb 00                	jmp    4a56 <.label9514>

0000000000004a56 <.label9514>:
    4a56:	eb 00                	jmp    4a58 <.label9515>

0000000000004a58 <.label9515>:
    4a58:	eb 00                	jmp    4a5a <.label9516>

0000000000004a5a <.label9516>:
    4a5a:	eb 00                	jmp    4a5c <.label9517>

0000000000004a5c <.label9517>:
    4a5c:	eb 00                	jmp    4a5e <.label9518>

0000000000004a5e <.label9518>:
    4a5e:	eb 00                	jmp    4a60 <.label9519>

0000000000004a60 <.label9519>:
    4a60:	eb 00                	jmp    4a62 <.label9520>

0000000000004a62 <.label9520>:
    4a62:	eb 00                	jmp    4a64 <.label9521>

0000000000004a64 <.label9521>:
    4a64:	eb 00                	jmp    4a66 <.label9522>

0000000000004a66 <.label9522>:
    4a66:	eb 00                	jmp    4a68 <.label9523>

0000000000004a68 <.label9523>:
    4a68:	eb 00                	jmp    4a6a <.label9524>

0000000000004a6a <.label9524>:
    4a6a:	eb 00                	jmp    4a6c <.label9525>

0000000000004a6c <.label9525>:
    4a6c:	eb 00                	jmp    4a6e <.label9526>

0000000000004a6e <.label9526>:
    4a6e:	eb 00                	jmp    4a70 <.label9527>

0000000000004a70 <.label9527>:
    4a70:	eb 00                	jmp    4a72 <.label9528>

0000000000004a72 <.label9528>:
    4a72:	eb 00                	jmp    4a74 <.label9529>

0000000000004a74 <.label9529>:
    4a74:	eb 00                	jmp    4a76 <.label9530>

0000000000004a76 <.label9530>:
    4a76:	eb 00                	jmp    4a78 <.label9531>

0000000000004a78 <.label9531>:
    4a78:	eb 00                	jmp    4a7a <.label9532>

0000000000004a7a <.label9532>:
    4a7a:	eb 00                	jmp    4a7c <.label9533>

0000000000004a7c <.label9533>:
    4a7c:	eb 00                	jmp    4a7e <.label9534>

0000000000004a7e <.label9534>:
    4a7e:	eb 00                	jmp    4a80 <.label9535>

0000000000004a80 <.label9535>:
    4a80:	eb 00                	jmp    4a82 <.label9536>

0000000000004a82 <.label9536>:
    4a82:	eb 00                	jmp    4a84 <.label9537>

0000000000004a84 <.label9537>:
    4a84:	eb 00                	jmp    4a86 <.label9538>

0000000000004a86 <.label9538>:
    4a86:	eb 00                	jmp    4a88 <.label9539>

0000000000004a88 <.label9539>:
    4a88:	eb 00                	jmp    4a8a <.label9540>

0000000000004a8a <.label9540>:
    4a8a:	eb 00                	jmp    4a8c <.label9541>

0000000000004a8c <.label9541>:
    4a8c:	eb 00                	jmp    4a8e <.label9542>

0000000000004a8e <.label9542>:
    4a8e:	eb 00                	jmp    4a90 <.label9543>

0000000000004a90 <.label9543>:
    4a90:	eb 00                	jmp    4a92 <.label9544>

0000000000004a92 <.label9544>:
    4a92:	eb 00                	jmp    4a94 <.label9545>

0000000000004a94 <.label9545>:
    4a94:	eb 00                	jmp    4a96 <.label9546>

0000000000004a96 <.label9546>:
    4a96:	eb 00                	jmp    4a98 <.label9547>

0000000000004a98 <.label9547>:
    4a98:	eb 00                	jmp    4a9a <.label9548>

0000000000004a9a <.label9548>:
    4a9a:	eb 00                	jmp    4a9c <.label9549>

0000000000004a9c <.label9549>:
    4a9c:	eb 00                	jmp    4a9e <.label9550>

0000000000004a9e <.label9550>:
    4a9e:	eb 00                	jmp    4aa0 <.label9551>

0000000000004aa0 <.label9551>:
    4aa0:	eb 00                	jmp    4aa2 <.label9552>

0000000000004aa2 <.label9552>:
    4aa2:	eb 00                	jmp    4aa4 <.label9553>

0000000000004aa4 <.label9553>:
    4aa4:	eb 00                	jmp    4aa6 <.label9554>

0000000000004aa6 <.label9554>:
    4aa6:	eb 00                	jmp    4aa8 <.label9555>

0000000000004aa8 <.label9555>:
    4aa8:	eb 00                	jmp    4aaa <.label9556>

0000000000004aaa <.label9556>:
    4aaa:	eb 00                	jmp    4aac <.label9557>

0000000000004aac <.label9557>:
    4aac:	eb 00                	jmp    4aae <.label9558>

0000000000004aae <.label9558>:
    4aae:	eb 00                	jmp    4ab0 <.label9559>

0000000000004ab0 <.label9559>:
    4ab0:	eb 00                	jmp    4ab2 <.label9560>

0000000000004ab2 <.label9560>:
    4ab2:	eb 00                	jmp    4ab4 <.label9561>

0000000000004ab4 <.label9561>:
    4ab4:	eb 00                	jmp    4ab6 <.label9562>

0000000000004ab6 <.label9562>:
    4ab6:	eb 00                	jmp    4ab8 <.label9563>

0000000000004ab8 <.label9563>:
    4ab8:	eb 00                	jmp    4aba <.label9564>

0000000000004aba <.label9564>:
    4aba:	eb 00                	jmp    4abc <.label9565>

0000000000004abc <.label9565>:
    4abc:	eb 00                	jmp    4abe <.label9566>

0000000000004abe <.label9566>:
    4abe:	eb 00                	jmp    4ac0 <.label9567>

0000000000004ac0 <.label9567>:
    4ac0:	eb 00                	jmp    4ac2 <.label9568>

0000000000004ac2 <.label9568>:
    4ac2:	eb 00                	jmp    4ac4 <.label9569>

0000000000004ac4 <.label9569>:
    4ac4:	eb 00                	jmp    4ac6 <.label9570>

0000000000004ac6 <.label9570>:
    4ac6:	eb 00                	jmp    4ac8 <.label9571>

0000000000004ac8 <.label9571>:
    4ac8:	eb 00                	jmp    4aca <.label9572>

0000000000004aca <.label9572>:
    4aca:	eb 00                	jmp    4acc <.label9573>

0000000000004acc <.label9573>:
    4acc:	eb 00                	jmp    4ace <.label9574>

0000000000004ace <.label9574>:
    4ace:	eb 00                	jmp    4ad0 <.label9575>

0000000000004ad0 <.label9575>:
    4ad0:	eb 00                	jmp    4ad2 <.label9576>

0000000000004ad2 <.label9576>:
    4ad2:	eb 00                	jmp    4ad4 <.label9577>

0000000000004ad4 <.label9577>:
    4ad4:	eb 00                	jmp    4ad6 <.label9578>

0000000000004ad6 <.label9578>:
    4ad6:	eb 00                	jmp    4ad8 <.label9579>

0000000000004ad8 <.label9579>:
    4ad8:	eb 00                	jmp    4ada <.label9580>

0000000000004ada <.label9580>:
    4ada:	eb 00                	jmp    4adc <.label9581>

0000000000004adc <.label9581>:
    4adc:	eb 00                	jmp    4ade <.label9582>

0000000000004ade <.label9582>:
    4ade:	eb 00                	jmp    4ae0 <.label9583>

0000000000004ae0 <.label9583>:
    4ae0:	eb 00                	jmp    4ae2 <.label9584>

0000000000004ae2 <.label9584>:
    4ae2:	eb 00                	jmp    4ae4 <.label9585>

0000000000004ae4 <.label9585>:
    4ae4:	eb 00                	jmp    4ae6 <.label9586>

0000000000004ae6 <.label9586>:
    4ae6:	eb 00                	jmp    4ae8 <.label9587>

0000000000004ae8 <.label9587>:
    4ae8:	eb 00                	jmp    4aea <.label9588>

0000000000004aea <.label9588>:
    4aea:	eb 00                	jmp    4aec <.label9589>

0000000000004aec <.label9589>:
    4aec:	eb 00                	jmp    4aee <.label9590>

0000000000004aee <.label9590>:
    4aee:	eb 00                	jmp    4af0 <.label9591>

0000000000004af0 <.label9591>:
    4af0:	eb 00                	jmp    4af2 <.label9592>

0000000000004af2 <.label9592>:
    4af2:	eb 00                	jmp    4af4 <.label9593>

0000000000004af4 <.label9593>:
    4af4:	eb 00                	jmp    4af6 <.label9594>

0000000000004af6 <.label9594>:
    4af6:	eb 00                	jmp    4af8 <.label9595>

0000000000004af8 <.label9595>:
    4af8:	eb 00                	jmp    4afa <.label9596>

0000000000004afa <.label9596>:
    4afa:	eb 00                	jmp    4afc <.label9597>

0000000000004afc <.label9597>:
    4afc:	eb 00                	jmp    4afe <.label9598>

0000000000004afe <.label9598>:
    4afe:	eb 00                	jmp    4b00 <.label9599>

0000000000004b00 <.label9599>:
    4b00:	eb 00                	jmp    4b02 <.label9600>

0000000000004b02 <.label9600>:
    4b02:	eb 00                	jmp    4b04 <.label9601>

0000000000004b04 <.label9601>:
    4b04:	eb 00                	jmp    4b06 <.label9602>

0000000000004b06 <.label9602>:
    4b06:	eb 00                	jmp    4b08 <.label9603>

0000000000004b08 <.label9603>:
    4b08:	eb 00                	jmp    4b0a <.label9604>

0000000000004b0a <.label9604>:
    4b0a:	eb 00                	jmp    4b0c <.label9605>

0000000000004b0c <.label9605>:
    4b0c:	eb 00                	jmp    4b0e <.label9606>

0000000000004b0e <.label9606>:
    4b0e:	eb 00                	jmp    4b10 <.label9607>

0000000000004b10 <.label9607>:
    4b10:	eb 00                	jmp    4b12 <.label9608>

0000000000004b12 <.label9608>:
    4b12:	eb 00                	jmp    4b14 <.label9609>

0000000000004b14 <.label9609>:
    4b14:	eb 00                	jmp    4b16 <.label9610>

0000000000004b16 <.label9610>:
    4b16:	eb 00                	jmp    4b18 <.label9611>

0000000000004b18 <.label9611>:
    4b18:	eb 00                	jmp    4b1a <.label9612>

0000000000004b1a <.label9612>:
    4b1a:	eb 00                	jmp    4b1c <.label9613>

0000000000004b1c <.label9613>:
    4b1c:	eb 00                	jmp    4b1e <.label9614>

0000000000004b1e <.label9614>:
    4b1e:	eb 00                	jmp    4b20 <.label9615>

0000000000004b20 <.label9615>:
    4b20:	eb 00                	jmp    4b22 <.label9616>

0000000000004b22 <.label9616>:
    4b22:	eb 00                	jmp    4b24 <.label9617>

0000000000004b24 <.label9617>:
    4b24:	eb 00                	jmp    4b26 <.label9618>

0000000000004b26 <.label9618>:
    4b26:	eb 00                	jmp    4b28 <.label9619>

0000000000004b28 <.label9619>:
    4b28:	eb 00                	jmp    4b2a <.label9620>

0000000000004b2a <.label9620>:
    4b2a:	eb 00                	jmp    4b2c <.label9621>

0000000000004b2c <.label9621>:
    4b2c:	eb 00                	jmp    4b2e <.label9622>

0000000000004b2e <.label9622>:
    4b2e:	eb 00                	jmp    4b30 <.label9623>

0000000000004b30 <.label9623>:
    4b30:	eb 00                	jmp    4b32 <.label9624>

0000000000004b32 <.label9624>:
    4b32:	eb 00                	jmp    4b34 <.label9625>

0000000000004b34 <.label9625>:
    4b34:	eb 00                	jmp    4b36 <.label9626>

0000000000004b36 <.label9626>:
    4b36:	eb 00                	jmp    4b38 <.label9627>

0000000000004b38 <.label9627>:
    4b38:	eb 00                	jmp    4b3a <.label9628>

0000000000004b3a <.label9628>:
    4b3a:	eb 00                	jmp    4b3c <.label9629>

0000000000004b3c <.label9629>:
    4b3c:	eb 00                	jmp    4b3e <.label9630>

0000000000004b3e <.label9630>:
    4b3e:	eb 00                	jmp    4b40 <.label9631>

0000000000004b40 <.label9631>:
    4b40:	eb 00                	jmp    4b42 <.label9632>

0000000000004b42 <.label9632>:
    4b42:	eb 00                	jmp    4b44 <.label9633>

0000000000004b44 <.label9633>:
    4b44:	eb 00                	jmp    4b46 <.label9634>

0000000000004b46 <.label9634>:
    4b46:	eb 00                	jmp    4b48 <.label9635>

0000000000004b48 <.label9635>:
    4b48:	eb 00                	jmp    4b4a <.label9636>

0000000000004b4a <.label9636>:
    4b4a:	eb 00                	jmp    4b4c <.label9637>

0000000000004b4c <.label9637>:
    4b4c:	eb 00                	jmp    4b4e <.label9638>

0000000000004b4e <.label9638>:
    4b4e:	eb 00                	jmp    4b50 <.label9639>

0000000000004b50 <.label9639>:
    4b50:	eb 00                	jmp    4b52 <.label9640>

0000000000004b52 <.label9640>:
    4b52:	eb 00                	jmp    4b54 <.label9641>

0000000000004b54 <.label9641>:
    4b54:	eb 00                	jmp    4b56 <.label9642>

0000000000004b56 <.label9642>:
    4b56:	eb 00                	jmp    4b58 <.label9643>

0000000000004b58 <.label9643>:
    4b58:	eb 00                	jmp    4b5a <.label9644>

0000000000004b5a <.label9644>:
    4b5a:	eb 00                	jmp    4b5c <.label9645>

0000000000004b5c <.label9645>:
    4b5c:	eb 00                	jmp    4b5e <.label9646>

0000000000004b5e <.label9646>:
    4b5e:	eb 00                	jmp    4b60 <.label9647>

0000000000004b60 <.label9647>:
    4b60:	eb 00                	jmp    4b62 <.label9648>

0000000000004b62 <.label9648>:
    4b62:	eb 00                	jmp    4b64 <.label9649>

0000000000004b64 <.label9649>:
    4b64:	eb 00                	jmp    4b66 <.label9650>

0000000000004b66 <.label9650>:
    4b66:	eb 00                	jmp    4b68 <.label9651>

0000000000004b68 <.label9651>:
    4b68:	eb 00                	jmp    4b6a <.label9652>

0000000000004b6a <.label9652>:
    4b6a:	eb 00                	jmp    4b6c <.label9653>

0000000000004b6c <.label9653>:
    4b6c:	eb 00                	jmp    4b6e <.label9654>

0000000000004b6e <.label9654>:
    4b6e:	eb 00                	jmp    4b70 <.label9655>

0000000000004b70 <.label9655>:
    4b70:	eb 00                	jmp    4b72 <.label9656>

0000000000004b72 <.label9656>:
    4b72:	eb 00                	jmp    4b74 <.label9657>

0000000000004b74 <.label9657>:
    4b74:	eb 00                	jmp    4b76 <.label9658>

0000000000004b76 <.label9658>:
    4b76:	eb 00                	jmp    4b78 <.label9659>

0000000000004b78 <.label9659>:
    4b78:	eb 00                	jmp    4b7a <.label9660>

0000000000004b7a <.label9660>:
    4b7a:	eb 00                	jmp    4b7c <.label9661>

0000000000004b7c <.label9661>:
    4b7c:	eb 00                	jmp    4b7e <.label9662>

0000000000004b7e <.label9662>:
    4b7e:	eb 00                	jmp    4b80 <.label9663>

0000000000004b80 <.label9663>:
    4b80:	eb 00                	jmp    4b82 <.label9664>

0000000000004b82 <.label9664>:
    4b82:	eb 00                	jmp    4b84 <.label9665>

0000000000004b84 <.label9665>:
    4b84:	eb 00                	jmp    4b86 <.label9666>

0000000000004b86 <.label9666>:
    4b86:	eb 00                	jmp    4b88 <.label9667>

0000000000004b88 <.label9667>:
    4b88:	eb 00                	jmp    4b8a <.label9668>

0000000000004b8a <.label9668>:
    4b8a:	eb 00                	jmp    4b8c <.label9669>

0000000000004b8c <.label9669>:
    4b8c:	eb 00                	jmp    4b8e <.label9670>

0000000000004b8e <.label9670>:
    4b8e:	eb 00                	jmp    4b90 <.label9671>

0000000000004b90 <.label9671>:
    4b90:	eb 00                	jmp    4b92 <.label9672>

0000000000004b92 <.label9672>:
    4b92:	eb 00                	jmp    4b94 <.label9673>

0000000000004b94 <.label9673>:
    4b94:	eb 00                	jmp    4b96 <.label9674>

0000000000004b96 <.label9674>:
    4b96:	eb 00                	jmp    4b98 <.label9675>

0000000000004b98 <.label9675>:
    4b98:	eb 00                	jmp    4b9a <.label9676>

0000000000004b9a <.label9676>:
    4b9a:	eb 00                	jmp    4b9c <.label9677>

0000000000004b9c <.label9677>:
    4b9c:	eb 00                	jmp    4b9e <.label9678>

0000000000004b9e <.label9678>:
    4b9e:	eb 00                	jmp    4ba0 <.label9679>

0000000000004ba0 <.label9679>:
    4ba0:	eb 00                	jmp    4ba2 <.label9680>

0000000000004ba2 <.label9680>:
    4ba2:	eb 00                	jmp    4ba4 <.label9681>

0000000000004ba4 <.label9681>:
    4ba4:	eb 00                	jmp    4ba6 <.label9682>

0000000000004ba6 <.label9682>:
    4ba6:	eb 00                	jmp    4ba8 <.label9683>

0000000000004ba8 <.label9683>:
    4ba8:	eb 00                	jmp    4baa <.label9684>

0000000000004baa <.label9684>:
    4baa:	eb 00                	jmp    4bac <.label9685>

0000000000004bac <.label9685>:
    4bac:	eb 00                	jmp    4bae <.label9686>

0000000000004bae <.label9686>:
    4bae:	eb 00                	jmp    4bb0 <.label9687>

0000000000004bb0 <.label9687>:
    4bb0:	eb 00                	jmp    4bb2 <.label9688>

0000000000004bb2 <.label9688>:
    4bb2:	eb 00                	jmp    4bb4 <.label9689>

0000000000004bb4 <.label9689>:
    4bb4:	eb 00                	jmp    4bb6 <.label9690>

0000000000004bb6 <.label9690>:
    4bb6:	eb 00                	jmp    4bb8 <.label9691>

0000000000004bb8 <.label9691>:
    4bb8:	eb 00                	jmp    4bba <.label9692>

0000000000004bba <.label9692>:
    4bba:	eb 00                	jmp    4bbc <.label9693>

0000000000004bbc <.label9693>:
    4bbc:	eb 00                	jmp    4bbe <.label9694>

0000000000004bbe <.label9694>:
    4bbe:	eb 00                	jmp    4bc0 <.label9695>

0000000000004bc0 <.label9695>:
    4bc0:	eb 00                	jmp    4bc2 <.label9696>

0000000000004bc2 <.label9696>:
    4bc2:	eb 00                	jmp    4bc4 <.label9697>

0000000000004bc4 <.label9697>:
    4bc4:	eb 00                	jmp    4bc6 <.label9698>

0000000000004bc6 <.label9698>:
    4bc6:	eb 00                	jmp    4bc8 <.label9699>

0000000000004bc8 <.label9699>:
    4bc8:	eb 00                	jmp    4bca <.label9700>

0000000000004bca <.label9700>:
    4bca:	eb 00                	jmp    4bcc <.label9701>

0000000000004bcc <.label9701>:
    4bcc:	eb 00                	jmp    4bce <.label9702>

0000000000004bce <.label9702>:
    4bce:	eb 00                	jmp    4bd0 <.label9703>

0000000000004bd0 <.label9703>:
    4bd0:	eb 00                	jmp    4bd2 <.label9704>

0000000000004bd2 <.label9704>:
    4bd2:	eb 00                	jmp    4bd4 <.label9705>

0000000000004bd4 <.label9705>:
    4bd4:	eb 00                	jmp    4bd6 <.label9706>

0000000000004bd6 <.label9706>:
    4bd6:	eb 00                	jmp    4bd8 <.label9707>

0000000000004bd8 <.label9707>:
    4bd8:	eb 00                	jmp    4bda <.label9708>

0000000000004bda <.label9708>:
    4bda:	eb 00                	jmp    4bdc <.label9709>

0000000000004bdc <.label9709>:
    4bdc:	eb 00                	jmp    4bde <.label9710>

0000000000004bde <.label9710>:
    4bde:	eb 00                	jmp    4be0 <.label9711>

0000000000004be0 <.label9711>:
    4be0:	eb 00                	jmp    4be2 <.label9712>

0000000000004be2 <.label9712>:
    4be2:	eb 00                	jmp    4be4 <.label9713>

0000000000004be4 <.label9713>:
    4be4:	eb 00                	jmp    4be6 <.label9714>

0000000000004be6 <.label9714>:
    4be6:	eb 00                	jmp    4be8 <.label9715>

0000000000004be8 <.label9715>:
    4be8:	eb 00                	jmp    4bea <.label9716>

0000000000004bea <.label9716>:
    4bea:	eb 00                	jmp    4bec <.label9717>

0000000000004bec <.label9717>:
    4bec:	eb 00                	jmp    4bee <.label9718>

0000000000004bee <.label9718>:
    4bee:	eb 00                	jmp    4bf0 <.label9719>

0000000000004bf0 <.label9719>:
    4bf0:	eb 00                	jmp    4bf2 <.label9720>

0000000000004bf2 <.label9720>:
    4bf2:	eb 00                	jmp    4bf4 <.label9721>

0000000000004bf4 <.label9721>:
    4bf4:	eb 00                	jmp    4bf6 <.label9722>

0000000000004bf6 <.label9722>:
    4bf6:	eb 00                	jmp    4bf8 <.label9723>

0000000000004bf8 <.label9723>:
    4bf8:	eb 00                	jmp    4bfa <.label9724>

0000000000004bfa <.label9724>:
    4bfa:	eb 00                	jmp    4bfc <.label9725>

0000000000004bfc <.label9725>:
    4bfc:	eb 00                	jmp    4bfe <.label9726>

0000000000004bfe <.label9726>:
    4bfe:	eb 00                	jmp    4c00 <.label9727>

0000000000004c00 <.label9727>:
    4c00:	eb 00                	jmp    4c02 <.label9728>

0000000000004c02 <.label9728>:
    4c02:	eb 00                	jmp    4c04 <.label9729>

0000000000004c04 <.label9729>:
    4c04:	eb 00                	jmp    4c06 <.label9730>

0000000000004c06 <.label9730>:
    4c06:	eb 00                	jmp    4c08 <.label9731>

0000000000004c08 <.label9731>:
    4c08:	eb 00                	jmp    4c0a <.label9732>

0000000000004c0a <.label9732>:
    4c0a:	eb 00                	jmp    4c0c <.label9733>

0000000000004c0c <.label9733>:
    4c0c:	eb 00                	jmp    4c0e <.label9734>

0000000000004c0e <.label9734>:
    4c0e:	eb 00                	jmp    4c10 <.label9735>

0000000000004c10 <.label9735>:
    4c10:	eb 00                	jmp    4c12 <.label9736>

0000000000004c12 <.label9736>:
    4c12:	eb 00                	jmp    4c14 <.label9737>

0000000000004c14 <.label9737>:
    4c14:	eb 00                	jmp    4c16 <.label9738>

0000000000004c16 <.label9738>:
    4c16:	eb 00                	jmp    4c18 <.label9739>

0000000000004c18 <.label9739>:
    4c18:	eb 00                	jmp    4c1a <.label9740>

0000000000004c1a <.label9740>:
    4c1a:	eb 00                	jmp    4c1c <.label9741>

0000000000004c1c <.label9741>:
    4c1c:	eb 00                	jmp    4c1e <.label9742>

0000000000004c1e <.label9742>:
    4c1e:	eb 00                	jmp    4c20 <.label9743>

0000000000004c20 <.label9743>:
    4c20:	eb 00                	jmp    4c22 <.label9744>

0000000000004c22 <.label9744>:
    4c22:	eb 00                	jmp    4c24 <.label9745>

0000000000004c24 <.label9745>:
    4c24:	eb 00                	jmp    4c26 <.label9746>

0000000000004c26 <.label9746>:
    4c26:	eb 00                	jmp    4c28 <.label9747>

0000000000004c28 <.label9747>:
    4c28:	eb 00                	jmp    4c2a <.label9748>

0000000000004c2a <.label9748>:
    4c2a:	eb 00                	jmp    4c2c <.label9749>

0000000000004c2c <.label9749>:
    4c2c:	eb 00                	jmp    4c2e <.label9750>

0000000000004c2e <.label9750>:
    4c2e:	eb 00                	jmp    4c30 <.label9751>

0000000000004c30 <.label9751>:
    4c30:	eb 00                	jmp    4c32 <.label9752>

0000000000004c32 <.label9752>:
    4c32:	eb 00                	jmp    4c34 <.label9753>

0000000000004c34 <.label9753>:
    4c34:	eb 00                	jmp    4c36 <.label9754>

0000000000004c36 <.label9754>:
    4c36:	eb 00                	jmp    4c38 <.label9755>

0000000000004c38 <.label9755>:
    4c38:	eb 00                	jmp    4c3a <.label9756>

0000000000004c3a <.label9756>:
    4c3a:	eb 00                	jmp    4c3c <.label9757>

0000000000004c3c <.label9757>:
    4c3c:	eb 00                	jmp    4c3e <.label9758>

0000000000004c3e <.label9758>:
    4c3e:	eb 00                	jmp    4c40 <.label9759>

0000000000004c40 <.label9759>:
    4c40:	eb 00                	jmp    4c42 <.label9760>

0000000000004c42 <.label9760>:
    4c42:	eb 00                	jmp    4c44 <.label9761>

0000000000004c44 <.label9761>:
    4c44:	eb 00                	jmp    4c46 <.label9762>

0000000000004c46 <.label9762>:
    4c46:	eb 00                	jmp    4c48 <.label9763>

0000000000004c48 <.label9763>:
    4c48:	eb 00                	jmp    4c4a <.label9764>

0000000000004c4a <.label9764>:
    4c4a:	eb 00                	jmp    4c4c <.label9765>

0000000000004c4c <.label9765>:
    4c4c:	eb 00                	jmp    4c4e <.label9766>

0000000000004c4e <.label9766>:
    4c4e:	eb 00                	jmp    4c50 <.label9767>

0000000000004c50 <.label9767>:
    4c50:	eb 00                	jmp    4c52 <.label9768>

0000000000004c52 <.label9768>:
    4c52:	eb 00                	jmp    4c54 <.label9769>

0000000000004c54 <.label9769>:
    4c54:	eb 00                	jmp    4c56 <.label9770>

0000000000004c56 <.label9770>:
    4c56:	eb 00                	jmp    4c58 <.label9771>

0000000000004c58 <.label9771>:
    4c58:	eb 00                	jmp    4c5a <.label9772>

0000000000004c5a <.label9772>:
    4c5a:	eb 00                	jmp    4c5c <.label9773>

0000000000004c5c <.label9773>:
    4c5c:	eb 00                	jmp    4c5e <.label9774>

0000000000004c5e <.label9774>:
    4c5e:	eb 00                	jmp    4c60 <.label9775>

0000000000004c60 <.label9775>:
    4c60:	eb 00                	jmp    4c62 <.label9776>

0000000000004c62 <.label9776>:
    4c62:	eb 00                	jmp    4c64 <.label9777>

0000000000004c64 <.label9777>:
    4c64:	eb 00                	jmp    4c66 <.label9778>

0000000000004c66 <.label9778>:
    4c66:	eb 00                	jmp    4c68 <.label9779>

0000000000004c68 <.label9779>:
    4c68:	eb 00                	jmp    4c6a <.label9780>

0000000000004c6a <.label9780>:
    4c6a:	eb 00                	jmp    4c6c <.label9781>

0000000000004c6c <.label9781>:
    4c6c:	eb 00                	jmp    4c6e <.label9782>

0000000000004c6e <.label9782>:
    4c6e:	eb 00                	jmp    4c70 <.label9783>

0000000000004c70 <.label9783>:
    4c70:	eb 00                	jmp    4c72 <.label9784>

0000000000004c72 <.label9784>:
    4c72:	eb 00                	jmp    4c74 <.label9785>

0000000000004c74 <.label9785>:
    4c74:	eb 00                	jmp    4c76 <.label9786>

0000000000004c76 <.label9786>:
    4c76:	eb 00                	jmp    4c78 <.label9787>

0000000000004c78 <.label9787>:
    4c78:	eb 00                	jmp    4c7a <.label9788>

0000000000004c7a <.label9788>:
    4c7a:	eb 00                	jmp    4c7c <.label9789>

0000000000004c7c <.label9789>:
    4c7c:	eb 00                	jmp    4c7e <.label9790>

0000000000004c7e <.label9790>:
    4c7e:	eb 00                	jmp    4c80 <.label9791>

0000000000004c80 <.label9791>:
    4c80:	eb 00                	jmp    4c82 <.label9792>

0000000000004c82 <.label9792>:
    4c82:	eb 00                	jmp    4c84 <.label9793>

0000000000004c84 <.label9793>:
    4c84:	eb 00                	jmp    4c86 <.label9794>

0000000000004c86 <.label9794>:
    4c86:	eb 00                	jmp    4c88 <.label9795>

0000000000004c88 <.label9795>:
    4c88:	eb 00                	jmp    4c8a <.label9796>

0000000000004c8a <.label9796>:
    4c8a:	eb 00                	jmp    4c8c <.label9797>

0000000000004c8c <.label9797>:
    4c8c:	eb 00                	jmp    4c8e <.label9798>

0000000000004c8e <.label9798>:
    4c8e:	eb 00                	jmp    4c90 <.label9799>

0000000000004c90 <.label9799>:
    4c90:	eb 00                	jmp    4c92 <.label9800>

0000000000004c92 <.label9800>:
    4c92:	eb 00                	jmp    4c94 <.label9801>

0000000000004c94 <.label9801>:
    4c94:	eb 00                	jmp    4c96 <.label9802>

0000000000004c96 <.label9802>:
    4c96:	eb 00                	jmp    4c98 <.label9803>

0000000000004c98 <.label9803>:
    4c98:	eb 00                	jmp    4c9a <.label9804>

0000000000004c9a <.label9804>:
    4c9a:	eb 00                	jmp    4c9c <.label9805>

0000000000004c9c <.label9805>:
    4c9c:	eb 00                	jmp    4c9e <.label9806>

0000000000004c9e <.label9806>:
    4c9e:	eb 00                	jmp    4ca0 <.label9807>

0000000000004ca0 <.label9807>:
    4ca0:	eb 00                	jmp    4ca2 <.label9808>

0000000000004ca2 <.label9808>:
    4ca2:	eb 00                	jmp    4ca4 <.label9809>

0000000000004ca4 <.label9809>:
    4ca4:	eb 00                	jmp    4ca6 <.label9810>

0000000000004ca6 <.label9810>:
    4ca6:	eb 00                	jmp    4ca8 <.label9811>

0000000000004ca8 <.label9811>:
    4ca8:	eb 00                	jmp    4caa <.label9812>

0000000000004caa <.label9812>:
    4caa:	eb 00                	jmp    4cac <.label9813>

0000000000004cac <.label9813>:
    4cac:	eb 00                	jmp    4cae <.label9814>

0000000000004cae <.label9814>:
    4cae:	eb 00                	jmp    4cb0 <.label9815>

0000000000004cb0 <.label9815>:
    4cb0:	eb 00                	jmp    4cb2 <.label9816>

0000000000004cb2 <.label9816>:
    4cb2:	eb 00                	jmp    4cb4 <.label9817>

0000000000004cb4 <.label9817>:
    4cb4:	eb 00                	jmp    4cb6 <.label9818>

0000000000004cb6 <.label9818>:
    4cb6:	eb 00                	jmp    4cb8 <.label9819>

0000000000004cb8 <.label9819>:
    4cb8:	eb 00                	jmp    4cba <.label9820>

0000000000004cba <.label9820>:
    4cba:	eb 00                	jmp    4cbc <.label9821>

0000000000004cbc <.label9821>:
    4cbc:	eb 00                	jmp    4cbe <.label9822>

0000000000004cbe <.label9822>:
    4cbe:	eb 00                	jmp    4cc0 <.label9823>

0000000000004cc0 <.label9823>:
    4cc0:	eb 00                	jmp    4cc2 <.label9824>

0000000000004cc2 <.label9824>:
    4cc2:	eb 00                	jmp    4cc4 <.label9825>

0000000000004cc4 <.label9825>:
    4cc4:	eb 00                	jmp    4cc6 <.label9826>

0000000000004cc6 <.label9826>:
    4cc6:	eb 00                	jmp    4cc8 <.label9827>

0000000000004cc8 <.label9827>:
    4cc8:	eb 00                	jmp    4cca <.label9828>

0000000000004cca <.label9828>:
    4cca:	eb 00                	jmp    4ccc <.label9829>

0000000000004ccc <.label9829>:
    4ccc:	eb 00                	jmp    4cce <.label9830>

0000000000004cce <.label9830>:
    4cce:	eb 00                	jmp    4cd0 <.label9831>

0000000000004cd0 <.label9831>:
    4cd0:	eb 00                	jmp    4cd2 <.label9832>

0000000000004cd2 <.label9832>:
    4cd2:	eb 00                	jmp    4cd4 <.label9833>

0000000000004cd4 <.label9833>:
    4cd4:	eb 00                	jmp    4cd6 <.label9834>

0000000000004cd6 <.label9834>:
    4cd6:	eb 00                	jmp    4cd8 <.label9835>

0000000000004cd8 <.label9835>:
    4cd8:	eb 00                	jmp    4cda <.label9836>

0000000000004cda <.label9836>:
    4cda:	eb 00                	jmp    4cdc <.label9837>

0000000000004cdc <.label9837>:
    4cdc:	eb 00                	jmp    4cde <.label9838>

0000000000004cde <.label9838>:
    4cde:	eb 00                	jmp    4ce0 <.label9839>

0000000000004ce0 <.label9839>:
    4ce0:	eb 00                	jmp    4ce2 <.label9840>

0000000000004ce2 <.label9840>:
    4ce2:	eb 00                	jmp    4ce4 <.label9841>

0000000000004ce4 <.label9841>:
    4ce4:	eb 00                	jmp    4ce6 <.label9842>

0000000000004ce6 <.label9842>:
    4ce6:	eb 00                	jmp    4ce8 <.label9843>

0000000000004ce8 <.label9843>:
    4ce8:	eb 00                	jmp    4cea <.label9844>

0000000000004cea <.label9844>:
    4cea:	eb 00                	jmp    4cec <.label9845>

0000000000004cec <.label9845>:
    4cec:	eb 00                	jmp    4cee <.label9846>

0000000000004cee <.label9846>:
    4cee:	eb 00                	jmp    4cf0 <.label9847>

0000000000004cf0 <.label9847>:
    4cf0:	eb 00                	jmp    4cf2 <.label9848>

0000000000004cf2 <.label9848>:
    4cf2:	eb 00                	jmp    4cf4 <.label9849>

0000000000004cf4 <.label9849>:
    4cf4:	eb 00                	jmp    4cf6 <.label9850>

0000000000004cf6 <.label9850>:
    4cf6:	eb 00                	jmp    4cf8 <.label9851>

0000000000004cf8 <.label9851>:
    4cf8:	eb 00                	jmp    4cfa <.label9852>

0000000000004cfa <.label9852>:
    4cfa:	eb 00                	jmp    4cfc <.label9853>

0000000000004cfc <.label9853>:
    4cfc:	eb 00                	jmp    4cfe <.label9854>

0000000000004cfe <.label9854>:
    4cfe:	eb 00                	jmp    4d00 <.label9855>

0000000000004d00 <.label9855>:
    4d00:	eb 00                	jmp    4d02 <.label9856>

0000000000004d02 <.label9856>:
    4d02:	eb 00                	jmp    4d04 <.label9857>

0000000000004d04 <.label9857>:
    4d04:	eb 00                	jmp    4d06 <.label9858>

0000000000004d06 <.label9858>:
    4d06:	eb 00                	jmp    4d08 <.label9859>

0000000000004d08 <.label9859>:
    4d08:	eb 00                	jmp    4d0a <.label9860>

0000000000004d0a <.label9860>:
    4d0a:	eb 00                	jmp    4d0c <.label9861>

0000000000004d0c <.label9861>:
    4d0c:	eb 00                	jmp    4d0e <.label9862>

0000000000004d0e <.label9862>:
    4d0e:	eb 00                	jmp    4d10 <.label9863>

0000000000004d10 <.label9863>:
    4d10:	eb 00                	jmp    4d12 <.label9864>

0000000000004d12 <.label9864>:
    4d12:	eb 00                	jmp    4d14 <.label9865>

0000000000004d14 <.label9865>:
    4d14:	eb 00                	jmp    4d16 <.label9866>

0000000000004d16 <.label9866>:
    4d16:	eb 00                	jmp    4d18 <.label9867>

0000000000004d18 <.label9867>:
    4d18:	eb 00                	jmp    4d1a <.label9868>

0000000000004d1a <.label9868>:
    4d1a:	eb 00                	jmp    4d1c <.label9869>

0000000000004d1c <.label9869>:
    4d1c:	eb 00                	jmp    4d1e <.label9870>

0000000000004d1e <.label9870>:
    4d1e:	eb 00                	jmp    4d20 <.label9871>

0000000000004d20 <.label9871>:
    4d20:	eb 00                	jmp    4d22 <.label9872>

0000000000004d22 <.label9872>:
    4d22:	eb 00                	jmp    4d24 <.label9873>

0000000000004d24 <.label9873>:
    4d24:	eb 00                	jmp    4d26 <.label9874>

0000000000004d26 <.label9874>:
    4d26:	eb 00                	jmp    4d28 <.label9875>

0000000000004d28 <.label9875>:
    4d28:	eb 00                	jmp    4d2a <.label9876>

0000000000004d2a <.label9876>:
    4d2a:	eb 00                	jmp    4d2c <.label9877>

0000000000004d2c <.label9877>:
    4d2c:	eb 00                	jmp    4d2e <.label9878>

0000000000004d2e <.label9878>:
    4d2e:	eb 00                	jmp    4d30 <.label9879>

0000000000004d30 <.label9879>:
    4d30:	eb 00                	jmp    4d32 <.label9880>

0000000000004d32 <.label9880>:
    4d32:	eb 00                	jmp    4d34 <.label9881>

0000000000004d34 <.label9881>:
    4d34:	eb 00                	jmp    4d36 <.label9882>

0000000000004d36 <.label9882>:
    4d36:	eb 00                	jmp    4d38 <.label9883>

0000000000004d38 <.label9883>:
    4d38:	eb 00                	jmp    4d3a <.label9884>

0000000000004d3a <.label9884>:
    4d3a:	eb 00                	jmp    4d3c <.label9885>

0000000000004d3c <.label9885>:
    4d3c:	eb 00                	jmp    4d3e <.label9886>

0000000000004d3e <.label9886>:
    4d3e:	eb 00                	jmp    4d40 <.label9887>

0000000000004d40 <.label9887>:
    4d40:	eb 00                	jmp    4d42 <.label9888>

0000000000004d42 <.label9888>:
    4d42:	eb 00                	jmp    4d44 <.label9889>

0000000000004d44 <.label9889>:
    4d44:	eb 00                	jmp    4d46 <.label9890>

0000000000004d46 <.label9890>:
    4d46:	eb 00                	jmp    4d48 <.label9891>

0000000000004d48 <.label9891>:
    4d48:	eb 00                	jmp    4d4a <.label9892>

0000000000004d4a <.label9892>:
    4d4a:	eb 00                	jmp    4d4c <.label9893>

0000000000004d4c <.label9893>:
    4d4c:	eb 00                	jmp    4d4e <.label9894>

0000000000004d4e <.label9894>:
    4d4e:	eb 00                	jmp    4d50 <.label9895>

0000000000004d50 <.label9895>:
    4d50:	eb 00                	jmp    4d52 <.label9896>

0000000000004d52 <.label9896>:
    4d52:	eb 00                	jmp    4d54 <.label9897>

0000000000004d54 <.label9897>:
    4d54:	eb 00                	jmp    4d56 <.label9898>

0000000000004d56 <.label9898>:
    4d56:	eb 00                	jmp    4d58 <.label9899>

0000000000004d58 <.label9899>:
    4d58:	eb 00                	jmp    4d5a <.label9900>

0000000000004d5a <.label9900>:
    4d5a:	eb 00                	jmp    4d5c <.label9901>

0000000000004d5c <.label9901>:
    4d5c:	eb 00                	jmp    4d5e <.label9902>

0000000000004d5e <.label9902>:
    4d5e:	eb 00                	jmp    4d60 <.label9903>

0000000000004d60 <.label9903>:
    4d60:	eb 00                	jmp    4d62 <.label9904>

0000000000004d62 <.label9904>:
    4d62:	eb 00                	jmp    4d64 <.label9905>

0000000000004d64 <.label9905>:
    4d64:	eb 00                	jmp    4d66 <.label9906>

0000000000004d66 <.label9906>:
    4d66:	eb 00                	jmp    4d68 <.label9907>

0000000000004d68 <.label9907>:
    4d68:	eb 00                	jmp    4d6a <.label9908>

0000000000004d6a <.label9908>:
    4d6a:	eb 00                	jmp    4d6c <.label9909>

0000000000004d6c <.label9909>:
    4d6c:	eb 00                	jmp    4d6e <.label9910>

0000000000004d6e <.label9910>:
    4d6e:	eb 00                	jmp    4d70 <.label9911>

0000000000004d70 <.label9911>:
    4d70:	eb 00                	jmp    4d72 <.label9912>

0000000000004d72 <.label9912>:
    4d72:	eb 00                	jmp    4d74 <.label9913>

0000000000004d74 <.label9913>:
    4d74:	eb 00                	jmp    4d76 <.label9914>

0000000000004d76 <.label9914>:
    4d76:	eb 00                	jmp    4d78 <.label9915>

0000000000004d78 <.label9915>:
    4d78:	eb 00                	jmp    4d7a <.label9916>

0000000000004d7a <.label9916>:
    4d7a:	eb 00                	jmp    4d7c <.label9917>

0000000000004d7c <.label9917>:
    4d7c:	eb 00                	jmp    4d7e <.label9918>

0000000000004d7e <.label9918>:
    4d7e:	eb 00                	jmp    4d80 <.label9919>

0000000000004d80 <.label9919>:
    4d80:	eb 00                	jmp    4d82 <.label9920>

0000000000004d82 <.label9920>:
    4d82:	eb 00                	jmp    4d84 <.label9921>

0000000000004d84 <.label9921>:
    4d84:	eb 00                	jmp    4d86 <.label9922>

0000000000004d86 <.label9922>:
    4d86:	eb 00                	jmp    4d88 <.label9923>

0000000000004d88 <.label9923>:
    4d88:	eb 00                	jmp    4d8a <.label9924>

0000000000004d8a <.label9924>:
    4d8a:	eb 00                	jmp    4d8c <.label9925>

0000000000004d8c <.label9925>:
    4d8c:	eb 00                	jmp    4d8e <.label9926>

0000000000004d8e <.label9926>:
    4d8e:	eb 00                	jmp    4d90 <.label9927>

0000000000004d90 <.label9927>:
    4d90:	eb 00                	jmp    4d92 <.label9928>

0000000000004d92 <.label9928>:
    4d92:	eb 00                	jmp    4d94 <.label9929>

0000000000004d94 <.label9929>:
    4d94:	eb 00                	jmp    4d96 <.label9930>

0000000000004d96 <.label9930>:
    4d96:	eb 00                	jmp    4d98 <.label9931>

0000000000004d98 <.label9931>:
    4d98:	eb 00                	jmp    4d9a <.label9932>

0000000000004d9a <.label9932>:
    4d9a:	eb 00                	jmp    4d9c <.label9933>

0000000000004d9c <.label9933>:
    4d9c:	eb 00                	jmp    4d9e <.label9934>

0000000000004d9e <.label9934>:
    4d9e:	eb 00                	jmp    4da0 <.label9935>

0000000000004da0 <.label9935>:
    4da0:	eb 00                	jmp    4da2 <.label9936>

0000000000004da2 <.label9936>:
    4da2:	eb 00                	jmp    4da4 <.label9937>

0000000000004da4 <.label9937>:
    4da4:	eb 00                	jmp    4da6 <.label9938>

0000000000004da6 <.label9938>:
    4da6:	eb 00                	jmp    4da8 <.label9939>

0000000000004da8 <.label9939>:
    4da8:	eb 00                	jmp    4daa <.label9940>

0000000000004daa <.label9940>:
    4daa:	eb 00                	jmp    4dac <.label9941>

0000000000004dac <.label9941>:
    4dac:	eb 00                	jmp    4dae <.label9942>

0000000000004dae <.label9942>:
    4dae:	eb 00                	jmp    4db0 <.label9943>

0000000000004db0 <.label9943>:
    4db0:	eb 00                	jmp    4db2 <.label9944>

0000000000004db2 <.label9944>:
    4db2:	eb 00                	jmp    4db4 <.label9945>

0000000000004db4 <.label9945>:
    4db4:	eb 00                	jmp    4db6 <.label9946>

0000000000004db6 <.label9946>:
    4db6:	eb 00                	jmp    4db8 <.label9947>

0000000000004db8 <.label9947>:
    4db8:	eb 00                	jmp    4dba <.label9948>

0000000000004dba <.label9948>:
    4dba:	eb 00                	jmp    4dbc <.label9949>

0000000000004dbc <.label9949>:
    4dbc:	eb 00                	jmp    4dbe <.label9950>

0000000000004dbe <.label9950>:
    4dbe:	eb 00                	jmp    4dc0 <.label9951>

0000000000004dc0 <.label9951>:
    4dc0:	eb 00                	jmp    4dc2 <.label9952>

0000000000004dc2 <.label9952>:
    4dc2:	eb 00                	jmp    4dc4 <.label9953>

0000000000004dc4 <.label9953>:
    4dc4:	eb 00                	jmp    4dc6 <.label9954>

0000000000004dc6 <.label9954>:
    4dc6:	eb 00                	jmp    4dc8 <.label9955>

0000000000004dc8 <.label9955>:
    4dc8:	eb 00                	jmp    4dca <.label9956>

0000000000004dca <.label9956>:
    4dca:	eb 00                	jmp    4dcc <.label9957>

0000000000004dcc <.label9957>:
    4dcc:	eb 00                	jmp    4dce <.label9958>

0000000000004dce <.label9958>:
    4dce:	eb 00                	jmp    4dd0 <.label9959>

0000000000004dd0 <.label9959>:
    4dd0:	eb 00                	jmp    4dd2 <.label9960>

0000000000004dd2 <.label9960>:
    4dd2:	eb 00                	jmp    4dd4 <.label9961>

0000000000004dd4 <.label9961>:
    4dd4:	eb 00                	jmp    4dd6 <.label9962>

0000000000004dd6 <.label9962>:
    4dd6:	eb 00                	jmp    4dd8 <.label9963>

0000000000004dd8 <.label9963>:
    4dd8:	eb 00                	jmp    4dda <.label9964>

0000000000004dda <.label9964>:
    4dda:	eb 00                	jmp    4ddc <.label9965>

0000000000004ddc <.label9965>:
    4ddc:	eb 00                	jmp    4dde <.label9966>

0000000000004dde <.label9966>:
    4dde:	eb 00                	jmp    4de0 <.label9967>

0000000000004de0 <.label9967>:
    4de0:	eb 00                	jmp    4de2 <.label9968>

0000000000004de2 <.label9968>:
    4de2:	eb 00                	jmp    4de4 <.label9969>

0000000000004de4 <.label9969>:
    4de4:	eb 00                	jmp    4de6 <.label9970>

0000000000004de6 <.label9970>:
    4de6:	eb 00                	jmp    4de8 <.label9971>

0000000000004de8 <.label9971>:
    4de8:	eb 00                	jmp    4dea <.label9972>

0000000000004dea <.label9972>:
    4dea:	eb 00                	jmp    4dec <.label9973>

0000000000004dec <.label9973>:
    4dec:	eb 00                	jmp    4dee <.label9974>

0000000000004dee <.label9974>:
    4dee:	eb 00                	jmp    4df0 <.label9975>

0000000000004df0 <.label9975>:
    4df0:	eb 00                	jmp    4df2 <.label9976>

0000000000004df2 <.label9976>:
    4df2:	eb 00                	jmp    4df4 <.label9977>

0000000000004df4 <.label9977>:
    4df4:	eb 00                	jmp    4df6 <.label9978>

0000000000004df6 <.label9978>:
    4df6:	eb 00                	jmp    4df8 <.label9979>

0000000000004df8 <.label9979>:
    4df8:	eb 00                	jmp    4dfa <.label9980>

0000000000004dfa <.label9980>:
    4dfa:	eb 00                	jmp    4dfc <.label9981>

0000000000004dfc <.label9981>:
    4dfc:	eb 00                	jmp    4dfe <.label9982>

0000000000004dfe <.label9982>:
    4dfe:	eb 00                	jmp    4e00 <.label9983>

0000000000004e00 <.label9983>:
    4e00:	eb 00                	jmp    4e02 <.label9984>

0000000000004e02 <.label9984>:
    4e02:	eb 00                	jmp    4e04 <.label9985>

0000000000004e04 <.label9985>:
    4e04:	eb 00                	jmp    4e06 <.label9986>

0000000000004e06 <.label9986>:
    4e06:	eb 00                	jmp    4e08 <.label9987>

0000000000004e08 <.label9987>:
    4e08:	eb 00                	jmp    4e0a <.label9988>

0000000000004e0a <.label9988>:
    4e0a:	eb 00                	jmp    4e0c <.label9989>

0000000000004e0c <.label9989>:
    4e0c:	eb 00                	jmp    4e0e <.label9990>

0000000000004e0e <.label9990>:
    4e0e:	eb 00                	jmp    4e10 <.label9991>

0000000000004e10 <.label9991>:
    4e10:	eb 00                	jmp    4e12 <.label9992>

0000000000004e12 <.label9992>:
    4e12:	eb 00                	jmp    4e14 <.label9993>

0000000000004e14 <.label9993>:
    4e14:	eb 00                	jmp    4e16 <.label9994>

0000000000004e16 <.label9994>:
    4e16:	eb 00                	jmp    4e18 <.label9995>

0000000000004e18 <.label9995>:
    4e18:	eb 00                	jmp    4e1a <.label9996>

0000000000004e1a <.label9996>:
    4e1a:	eb 00                	jmp    4e1c <.label9997>

0000000000004e1c <.label9997>:
    4e1c:	eb 00                	jmp    4e1e <.label9998>

0000000000004e1e <.label9998>:
    4e1e:	eb 00                	jmp    4e20 <.label9999>

0000000000004e20 <.label9999>:
    4e20:	c3                   	ret
