	.file	"test-program.c"
	.text
	.globl	generateRandomString
	.type	generateRandomString, @function
generateRandomString:
.LFB39:
	.cfi_startproc
	endbr64
	pushq	%r14
	.cfi_def_cfa_offset 16
	.cfi_offset 14, -16
	pushq	%r13
	.cfi_def_cfa_offset 24
	.cfi_offset 13, -24
	pushq	%r12
	.cfi_def_cfa_offset 32
	.cfi_offset 12, -32
	pushq	%rbp
	.cfi_def_cfa_offset 40
	.cfi_offset 6, -40
	pushq	%rbx
	.cfi_def_cfa_offset 48
	.cfi_offset 3, -48
	movl	$10000, %edi
	call	malloc@PLT
	movq	%rax, %r14
	movq	%rax, %rbx
	leaq	10000(%rax), %r13
	leaq	charset.0(%rip), %r12
	movabsq	$-6148914691236517205, %rbp
.L2:
	call	rand@PLT
	movslq	%eax, %rcx
	movq	%rcx, %rax
	mulq	%rbp
	movq	%rdx, %rax
	shrq	%rax
	andq	$-2, %rdx
	addq	%rax, %rdx
	subq	%rdx, %rcx
	movslq	%ecx, %rcx
	movzbl	(%r12,%rcx), %eax
	movb	%al, (%rbx)
	addq	$1, %rbx
	cmpq	%r13, %rbx
	jne	.L2
	movb	$0, 10000(%r14)
	movq	%r14, %rax
	popq	%rbx
	.cfi_def_cfa_offset 40
	popq	%rbp
	.cfi_def_cfa_offset 32
	popq	%r12
	.cfi_def_cfa_offset 24
	popq	%r13
	.cfi_def_cfa_offset 16
	popq	%r14
	.cfi_def_cfa_offset 8
	ret
	.cfi_endproc
.LFE39:
	.size	generateRandomString, .-generateRandomString
	.globl	main
	.type	main, @function
main:
.LFB40:
	.cfi_startproc
	endbr64
	pushq	%rbx
	.cfi_def_cfa_offset 16
	.cfi_offset 3, -16
	movq	%rsi, %rbx
	movl	$0, %eax
	call	generateRandomString
	movq	%rax, %rdi
	movq	8(%rbx), %rcx
	movzbl	(%rcx), %eax
	cmpb	%al, (%rdi)
	je	.L7
	movzbl	1(%rcx), %edx
	cmpb	%dl, 1(%rdi)
	je	.L8
	movzbl	2(%rcx), %ecx
	cmpb	%cl, 2(%rdi)
	je	.L9
	cmpb	3(%rdi), %al
	je	.L10
	cmpb	4(%rdi), %dl
	je	.L11
	cmpb	5(%rdi), %cl
	je	.L12
	cmpb	6(%rdi), %al
	je	.L13
	cmpb	7(%rdi), %dl
	je	.L14
	cmpb	8(%rdi), %cl
	je	.L15
	cmpb	9(%rdi), %al
	je	.L16
	cmpb	10(%rdi), %dl
	je	.L17
	cmpb	11(%rdi), %cl
	je	.L18
	cmpb	12(%rdi), %al
	je	.L19
	cmpb	13(%rdi), %dl
	je	.L20
	cmpb	14(%rdi), %cl
	je	.L21
	cmpb	15(%rdi), %al
	je	.L22
	cmpb	16(%rdi), %dl
	je	.L23
	cmpb	17(%rdi), %cl
	je	.L24
	cmpb	18(%rdi), %al
	je	.L25
	cmpb	19(%rdi), %dl
	je	.L26
	cmpb	20(%rdi), %cl
	je	.L27
	cmpb	21(%rdi), %al
	je	.L28
	cmpb	22(%rdi), %dl
	je	.L29
	cmpb	23(%rdi), %cl
	je	.L30
	cmpb	24(%rdi), %al
	je	.L31
	cmpb	25(%rdi), %dl
	je	.L32
	cmpb	26(%rdi), %cl
	je	.L33
	cmpb	27(%rdi), %al
	je	.L34
	cmpb	28(%rdi), %dl
	je	.L35
	cmpb	29(%rdi), %cl
	je	.L36
	cmpb	30(%rdi), %al
	je	.L37
	cmpb	31(%rdi), %dl
	je	.L38
	cmpb	32(%rdi), %cl
	je	.L39
	cmpb	33(%rdi), %al
	je	.L40
	cmpb	34(%rdi), %dl
	je	.L41
	cmpb	35(%rdi), %cl
	je	.L42
	cmpb	36(%rdi), %al
	je	.L43
	cmpb	37(%rdi), %dl
	je	.L44
	cmpb	38(%rdi), %cl
	je	.L45
	cmpb	39(%rdi), %al
	je	.L46
	cmpb	40(%rdi), %dl
	je	.L47
	cmpb	41(%rdi), %cl
	je	.L48
	cmpb	42(%rdi), %al
	je	.L49
	cmpb	43(%rdi), %dl
	je	.L50
	cmpb	44(%rdi), %cl
	je	.L51
	cmpb	45(%rdi), %al
	je	.L52
	cmpb	46(%rdi), %dl
	je	.L53
	cmpb	47(%rdi), %cl
	je	.L54
	cmpb	48(%rdi), %al
	je	.L55
	cmpb	49(%rdi), %dl
	je	.L56
	cmpb	50(%rdi), %cl
	je	.L57
	cmpb	51(%rdi), %al
	je	.L58
	cmpb	52(%rdi), %dl
	je	.L59
	cmpb	53(%rdi), %cl
	je	.L60
	cmpb	54(%rdi), %al
	je	.L61
	cmpb	55(%rdi), %dl
	je	.L62
	cmpb	56(%rdi), %cl
	je	.L63
	cmpb	57(%rdi), %al
	je	.L64
	cmpb	58(%rdi), %dl
	je	.L65
	cmpb	59(%rdi), %cl
	je	.L66
	cmpb	60(%rdi), %al
	je	.L67
	cmpb	61(%rdi), %dl
	je	.L68
	cmpb	62(%rdi), %cl
	je	.L69
	cmpb	63(%rdi), %al
	je	.L70
	cmpb	64(%rdi), %dl
	je	.L71
	cmpb	65(%rdi), %cl
	je	.L72
	cmpb	66(%rdi), %al
	je	.L73
	cmpb	67(%rdi), %dl
	je	.L74
	cmpb	68(%rdi), %cl
	je	.L75
	cmpb	69(%rdi), %al
	je	.L76
	cmpb	70(%rdi), %dl
	je	.L77
	cmpb	71(%rdi), %cl
	je	.L78
	cmpb	72(%rdi), %al
	je	.L79
	cmpb	73(%rdi), %dl
	je	.L80
	cmpb	74(%rdi), %cl
	je	.L81
	cmpb	75(%rdi), %al
	je	.L82
	cmpb	76(%rdi), %dl
	je	.L83
	cmpb	77(%rdi), %cl
	je	.L84
	cmpb	78(%rdi), %al
	je	.L85
	cmpb	79(%rdi), %dl
	je	.L86
	cmpb	80(%rdi), %cl
	je	.L87
	cmpb	81(%rdi), %al
	je	.L88
	cmpb	82(%rdi), %dl
	je	.L89
	cmpb	83(%rdi), %cl
	je	.L90
	cmpb	84(%rdi), %al
	je	.L91
	cmpb	85(%rdi), %dl
	je	.L92
	cmpb	86(%rdi), %cl
	je	.L93
	cmpb	87(%rdi), %al
	je	.L94
	cmpb	88(%rdi), %dl
	je	.L95
	cmpb	89(%rdi), %cl
	je	.L96
	cmpb	90(%rdi), %al
	je	.L97
	cmpb	91(%rdi), %dl
	je	.L98
	cmpb	92(%rdi), %cl
	je	.L99
	cmpb	93(%rdi), %al
	je	.L100
	cmpb	94(%rdi), %dl
	je	.L101
	cmpb	95(%rdi), %cl
	je	.L102
	cmpb	96(%rdi), %al
	je	.L103
	cmpb	97(%rdi), %dl
	je	.L104
	cmpb	98(%rdi), %cl
	je	.L105
	cmpb	99(%rdi), %al
	je	.L106
	cmpb	100(%rdi), %dl
	je	.L107
	cmpb	101(%rdi), %cl
	je	.L108
	cmpb	102(%rdi), %al
	je	.L109
	cmpb	103(%rdi), %dl
	je	.L110
	cmpb	104(%rdi), %cl
	je	.L111
	cmpb	105(%rdi), %al
	je	.L112
	cmpb	106(%rdi), %dl
	je	.L113
	cmpb	107(%rdi), %cl
	je	.L114
	cmpb	108(%rdi), %al
	je	.L115
	cmpb	109(%rdi), %dl
	je	.L116
	cmpb	110(%rdi), %cl
	je	.L117
	cmpb	111(%rdi), %al
	je	.L118
	cmpb	112(%rdi), %dl
	je	.L119
	cmpb	113(%rdi), %cl
	je	.L120
	cmpb	114(%rdi), %al
	je	.L121
	cmpb	115(%rdi), %dl
	je	.L122
	cmpb	116(%rdi), %cl
	je	.L123
	cmpb	117(%rdi), %al
	je	.L124
	cmpb	118(%rdi), %dl
	je	.L125
	cmpb	119(%rdi), %cl
	je	.L126
	cmpb	120(%rdi), %al
	je	.L127
	cmpb	121(%rdi), %dl
	je	.L128
	cmpb	122(%rdi), %cl
	je	.L129
	cmpb	123(%rdi), %al
	je	.L130
	cmpb	124(%rdi), %dl
	je	.L131
	cmpb	125(%rdi), %cl
	je	.L132
	cmpb	126(%rdi), %al
	je	.L133
	cmpb	127(%rdi), %dl
	je	.L134
	cmpb	128(%rdi), %cl
	je	.L135
	cmpb	129(%rdi), %al
	je	.L136
	cmpb	130(%rdi), %dl
	je	.L137
	cmpb	131(%rdi), %cl
	je	.L138
	cmpb	132(%rdi), %al
	je	.L139
	cmpb	133(%rdi), %dl
	je	.L140
	cmpb	134(%rdi), %cl
	je	.L141
	cmpb	135(%rdi), %al
	je	.L142
	cmpb	136(%rdi), %dl
	je	.L143
	cmpb	137(%rdi), %cl
	je	.L144
	cmpb	138(%rdi), %al
	je	.L145
	cmpb	139(%rdi), %dl
	je	.L146
	cmpb	140(%rdi), %cl
	je	.L147
	cmpb	141(%rdi), %al
	je	.L148
	cmpb	142(%rdi), %dl
	je	.L149
	cmpb	143(%rdi), %cl
	je	.L150
	cmpb	144(%rdi), %al
	je	.L151
	cmpb	145(%rdi), %dl
	je	.L152
	cmpb	146(%rdi), %cl
	je	.L153
	cmpb	147(%rdi), %al
	je	.L154
	cmpb	148(%rdi), %dl
	je	.L155
	cmpb	149(%rdi), %cl
	je	.L156
	cmpb	150(%rdi), %al
	je	.L157
	cmpb	151(%rdi), %dl
	je	.L158
	cmpb	152(%rdi), %cl
	je	.L159
	cmpb	153(%rdi), %al
	je	.L160
	cmpb	154(%rdi), %dl
	je	.L161
	cmpb	155(%rdi), %cl
	je	.L162
	cmpb	156(%rdi), %al
	je	.L163
	cmpb	157(%rdi), %dl
	je	.L164
	cmpb	158(%rdi), %cl
	je	.L165
	cmpb	159(%rdi), %al
	je	.L166
	cmpb	160(%rdi), %dl
	je	.L167
	cmpb	161(%rdi), %cl
	je	.L168
	cmpb	162(%rdi), %al
	je	.L169
	cmpb	163(%rdi), %dl
	je	.L170
	cmpb	164(%rdi), %cl
	je	.L171
	cmpb	165(%rdi), %al
	je	.L172
	cmpb	166(%rdi), %dl
	je	.L173
	cmpb	167(%rdi), %cl
	je	.L174
	cmpb	168(%rdi), %al
	je	.L175
	cmpb	169(%rdi), %dl
	je	.L176
	cmpb	170(%rdi), %cl
	je	.L177
	cmpb	171(%rdi), %al
	je	.L178
	cmpb	172(%rdi), %dl
	je	.L179
	cmpb	173(%rdi), %cl
	je	.L180
	cmpb	174(%rdi), %al
	je	.L181
	cmpb	175(%rdi), %dl
	je	.L182
	cmpb	176(%rdi), %cl
	je	.L183
	cmpb	177(%rdi), %al
	je	.L184
	cmpb	178(%rdi), %dl
	je	.L185
	cmpb	179(%rdi), %cl
	je	.L186
	cmpb	180(%rdi), %al
	je	.L187
	cmpb	181(%rdi), %dl
	je	.L188
	cmpb	182(%rdi), %cl
	je	.L189
	cmpb	183(%rdi), %al
	je	.L190
	cmpb	184(%rdi), %dl
	je	.L191
	cmpb	185(%rdi), %cl
	je	.L192
	cmpb	186(%rdi), %al
	je	.L193
	cmpb	187(%rdi), %dl
	je	.L194
	cmpb	188(%rdi), %cl
	je	.L195
	cmpb	189(%rdi), %al
	je	.L196
	cmpb	190(%rdi), %dl
	je	.L197
	cmpb	191(%rdi), %cl
	je	.L198
	cmpb	192(%rdi), %al
	je	.L199
	cmpb	193(%rdi), %dl
	je	.L200
	cmpb	194(%rdi), %cl
	je	.L201
	cmpb	195(%rdi), %al
	je	.L202
	cmpb	196(%rdi), %dl
	je	.L203
	cmpb	197(%rdi), %cl
	je	.L204
	cmpb	198(%rdi), %al
	je	.L205
	cmpb	199(%rdi), %dl
	je	.L206
	cmpb	200(%rdi), %cl
	je	.L207
	cmpb	201(%rdi), %al
	je	.L208
	cmpb	202(%rdi), %dl
	je	.L209
	cmpb	203(%rdi), %cl
	je	.L210
	cmpb	204(%rdi), %al
	je	.L211
	cmpb	205(%rdi), %dl
	je	.L212
	cmpb	206(%rdi), %cl
	je	.L213
	cmpb	207(%rdi), %al
	je	.L214
	cmpb	208(%rdi), %dl
	je	.L215
	cmpb	209(%rdi), %cl
	je	.L216
	cmpb	210(%rdi), %al
	je	.L217
	cmpb	211(%rdi), %dl
	je	.L218
	cmpb	212(%rdi), %cl
	je	.L219
	cmpb	213(%rdi), %al
	je	.L220
	cmpb	214(%rdi), %dl
	je	.L221
	cmpb	215(%rdi), %cl
	je	.L222
	cmpb	216(%rdi), %al
	je	.L223
	cmpb	217(%rdi), %dl
	je	.L224
	cmpb	218(%rdi), %cl
	je	.L225
	cmpb	219(%rdi), %al
	je	.L226
	cmpb	220(%rdi), %dl
	je	.L227
	cmpb	221(%rdi), %cl
	je	.L228
	cmpb	222(%rdi), %al
	je	.L229
	cmpb	223(%rdi), %dl
	je	.L230
	cmpb	224(%rdi), %cl
	je	.L231
	cmpb	225(%rdi), %al
	je	.L232
	cmpb	226(%rdi), %dl
	je	.L233
	cmpb	227(%rdi), %cl
	je	.L234
	cmpb	228(%rdi), %al
	je	.L235
	cmpb	229(%rdi), %dl
	je	.L236
	cmpb	230(%rdi), %cl
	je	.L237
	cmpb	231(%rdi), %al
	je	.L238
	cmpb	232(%rdi), %dl
	je	.L239
	cmpb	233(%rdi), %cl
	je	.L240
	cmpb	234(%rdi), %al
	je	.L241
	cmpb	235(%rdi), %dl
	je	.L242
	cmpb	236(%rdi), %cl
	je	.L243
	cmpb	237(%rdi), %al
	je	.L244
	cmpb	238(%rdi), %dl
	je	.L245
	cmpb	239(%rdi), %cl
	je	.L246
	cmpb	240(%rdi), %al
	je	.L247
	cmpb	241(%rdi), %dl
	je	.L248
	cmpb	242(%rdi), %cl
	je	.L249
	cmpb	243(%rdi), %al
	je	.L250
	cmpb	244(%rdi), %dl
	je	.L251
	cmpb	245(%rdi), %cl
	je	.L252
	cmpb	246(%rdi), %al
	je	.L253
	cmpb	247(%rdi), %dl
	je	.L254
	cmpb	248(%rdi), %cl
	je	.L255
	cmpb	249(%rdi), %al
	je	.L256
	cmpb	250(%rdi), %dl
	je	.L257
	cmpb	251(%rdi), %cl
	je	.L258
	cmpb	252(%rdi), %al
	je	.L259
	cmpb	253(%rdi), %dl
	je	.L260
	cmpb	254(%rdi), %cl
	je	.L261
	cmpb	255(%rdi), %al
	je	.L262
	cmpb	256(%rdi), %dl
	je	.L263
	cmpb	257(%rdi), %cl
	je	.L264
	cmpb	258(%rdi), %al
	je	.L265
	cmpb	259(%rdi), %dl
	je	.L266
	cmpb	260(%rdi), %cl
	je	.L267
	cmpb	261(%rdi), %al
	je	.L268
	cmpb	262(%rdi), %dl
	je	.L269
	cmpb	263(%rdi), %cl
	je	.L270
	cmpb	264(%rdi), %al
	je	.L271
	cmpb	265(%rdi), %dl
	je	.L272
	cmpb	266(%rdi), %cl
	je	.L273
	cmpb	267(%rdi), %al
	je	.L274
	cmpb	268(%rdi), %dl
	je	.L275
	cmpb	269(%rdi), %cl
	je	.L276
	cmpb	270(%rdi), %al
	je	.L277
	cmpb	271(%rdi), %dl
	je	.L278
	cmpb	272(%rdi), %cl
	je	.L279
	cmpb	273(%rdi), %al
	je	.L280
	cmpb	274(%rdi), %dl
	je	.L281
	cmpb	275(%rdi), %cl
	je	.L282
	cmpb	276(%rdi), %al
	je	.L283
	cmpb	277(%rdi), %dl
	je	.L284
	cmpb	278(%rdi), %cl
	je	.L285
	cmpb	279(%rdi), %al
	je	.L286
	cmpb	280(%rdi), %dl
	je	.L287
	cmpb	281(%rdi), %cl
	je	.L288
	cmpb	282(%rdi), %al
	je	.L289
	cmpb	283(%rdi), %dl
	je	.L290
	cmpb	284(%rdi), %cl
	je	.L291
	cmpb	285(%rdi), %al
	je	.L292
	cmpb	286(%rdi), %dl
	je	.L293
	cmpb	287(%rdi), %cl
	je	.L294
	cmpb	288(%rdi), %al
	je	.L295
	cmpb	289(%rdi), %dl
	je	.L296
	cmpb	290(%rdi), %cl
	je	.L297
	cmpb	291(%rdi), %al
	je	.L298
	cmpb	292(%rdi), %dl
	je	.L299
	cmpb	293(%rdi), %cl
	je	.L300
	cmpb	294(%rdi), %al
	je	.L301
	cmpb	295(%rdi), %dl
	je	.L302
	cmpb	296(%rdi), %cl
	je	.L303
	cmpb	297(%rdi), %al
	je	.L304
	cmpb	298(%rdi), %dl
	je	.L305
	cmpb	299(%rdi), %cl
	je	.L306
	cmpb	300(%rdi), %al
	je	.L307
	cmpb	301(%rdi), %dl
	je	.L308
	cmpb	302(%rdi), %cl
	je	.L309
	cmpb	303(%rdi), %al
	je	.L310
	cmpb	304(%rdi), %dl
	je	.L311
	cmpb	305(%rdi), %cl
	je	.L312
	cmpb	306(%rdi), %al
	je	.L313
	cmpb	307(%rdi), %dl
	je	.L314
	cmpb	308(%rdi), %cl
	je	.L315
	cmpb	309(%rdi), %al
	je	.L316
	cmpb	310(%rdi), %dl
	je	.L317
	cmpb	311(%rdi), %cl
	je	.L318
	cmpb	312(%rdi), %al
	je	.L319
	cmpb	313(%rdi), %dl
	je	.L320
	cmpb	314(%rdi), %cl
	je	.L321
	cmpb	315(%rdi), %al
	je	.L322
	cmpb	316(%rdi), %dl
	je	.L323
	cmpb	317(%rdi), %cl
	je	.L324
	cmpb	318(%rdi), %al
	je	.L325
	cmpb	319(%rdi), %dl
	je	.L326
	cmpb	320(%rdi), %cl
	je	.L327
	cmpb	321(%rdi), %al
	je	.L328
	cmpb	322(%rdi), %dl
	je	.L329
	cmpb	323(%rdi), %cl
	je	.L330
	cmpb	324(%rdi), %al
	je	.L331
	cmpb	325(%rdi), %dl
	je	.L332
	cmpb	326(%rdi), %cl
	je	.L333
	cmpb	327(%rdi), %al
	je	.L334
	cmpb	328(%rdi), %dl
	je	.L335
	cmpb	329(%rdi), %cl
	je	.L336
	cmpb	330(%rdi), %al
	je	.L337
	cmpb	331(%rdi), %dl
	je	.L338
	cmpb	332(%rdi), %cl
	je	.L339
	cmpb	333(%rdi), %al
	je	.L340
	cmpb	334(%rdi), %dl
	je	.L341
	cmpb	335(%rdi), %cl
	je	.L342
	cmpb	336(%rdi), %al
	je	.L343
	cmpb	337(%rdi), %dl
	je	.L344
	cmpb	338(%rdi), %cl
	je	.L345
	cmpb	339(%rdi), %al
	je	.L346
	cmpb	340(%rdi), %dl
	je	.L347
	cmpb	341(%rdi), %cl
	je	.L348
	cmpb	342(%rdi), %al
	je	.L349
	cmpb	343(%rdi), %dl
	je	.L350
	cmpb	344(%rdi), %cl
	je	.L351
	cmpb	345(%rdi), %al
	je	.L352
	cmpb	346(%rdi), %dl
	je	.L353
	cmpb	347(%rdi), %cl
	je	.L354
	cmpb	348(%rdi), %al
	je	.L355
	cmpb	349(%rdi), %dl
	je	.L356
	cmpb	350(%rdi), %cl
	je	.L357
	cmpb	351(%rdi), %al
	je	.L358
	cmpb	352(%rdi), %dl
	je	.L359
	cmpb	353(%rdi), %cl
	je	.L360
	cmpb	354(%rdi), %al
	je	.L361
	cmpb	355(%rdi), %dl
	je	.L362
	cmpb	356(%rdi), %cl
	je	.L363
	cmpb	357(%rdi), %al
	je	.L364
	cmpb	358(%rdi), %dl
	je	.L365
	cmpb	359(%rdi), %cl
	je	.L366
	cmpb	360(%rdi), %al
	je	.L367
	cmpb	361(%rdi), %dl
	je	.L368
	cmpb	362(%rdi), %cl
	je	.L369
	cmpb	363(%rdi), %al
	je	.L370
	cmpb	364(%rdi), %dl
	je	.L371
	cmpb	365(%rdi), %cl
	je	.L372
	cmpb	366(%rdi), %al
	je	.L373
	cmpb	367(%rdi), %dl
	je	.L374
	cmpb	368(%rdi), %cl
	je	.L375
	cmpb	369(%rdi), %al
	je	.L376
	cmpb	370(%rdi), %dl
	je	.L377
	cmpb	371(%rdi), %cl
	je	.L378
	cmpb	372(%rdi), %al
	je	.L379
	cmpb	373(%rdi), %dl
	je	.L380
	cmpb	374(%rdi), %cl
	je	.L381
	cmpb	375(%rdi), %al
	je	.L382
	cmpb	376(%rdi), %dl
	je	.L383
	cmpb	377(%rdi), %cl
	je	.L384
	cmpb	378(%rdi), %al
	je	.L385
	cmpb	379(%rdi), %dl
	je	.L386
	cmpb	380(%rdi), %cl
	je	.L387
	cmpb	381(%rdi), %al
	je	.L388
	cmpb	382(%rdi), %dl
	je	.L389
	cmpb	383(%rdi), %cl
	je	.L390
	cmpb	384(%rdi), %al
	je	.L391
	cmpb	385(%rdi), %dl
	je	.L392
	cmpb	386(%rdi), %cl
	je	.L393
	cmpb	387(%rdi), %al
	je	.L394
	cmpb	388(%rdi), %dl
	je	.L395
	cmpb	389(%rdi), %cl
	je	.L396
	cmpb	390(%rdi), %al
	je	.L397
	cmpb	391(%rdi), %dl
	je	.L398
	cmpb	392(%rdi), %cl
	je	.L399
	cmpb	393(%rdi), %al
	je	.L400
	cmpb	394(%rdi), %dl
	je	.L401
	cmpb	395(%rdi), %cl
	je	.L402
	cmpb	396(%rdi), %al
	je	.L403
	cmpb	397(%rdi), %dl
	je	.L404
	cmpb	398(%rdi), %cl
	je	.L405
	cmpb	399(%rdi), %al
	je	.L406
	cmpb	400(%rdi), %dl
	je	.L407
	cmpb	401(%rdi), %cl
	je	.L408
	cmpb	402(%rdi), %al
	je	.L409
	cmpb	403(%rdi), %dl
	je	.L410
	cmpb	404(%rdi), %cl
	je	.L411
	cmpb	405(%rdi), %al
	je	.L412
	cmpb	406(%rdi), %dl
	je	.L413
	cmpb	407(%rdi), %cl
	je	.L414
	cmpb	408(%rdi), %al
	je	.L415
	cmpb	409(%rdi), %dl
	je	.L416
	cmpb	410(%rdi), %cl
	je	.L417
	cmpb	411(%rdi), %al
	je	.L418
	cmpb	412(%rdi), %dl
	je	.L419
	cmpb	413(%rdi), %cl
	je	.L420
	cmpb	414(%rdi), %al
	je	.L421
	cmpb	415(%rdi), %dl
	je	.L422
	cmpb	416(%rdi), %cl
	je	.L423
	cmpb	417(%rdi), %al
	je	.L424
	cmpb	418(%rdi), %dl
	je	.L425
	cmpb	419(%rdi), %cl
	je	.L426
	cmpb	420(%rdi), %al
	je	.L427
	cmpb	421(%rdi), %dl
	je	.L428
	cmpb	422(%rdi), %cl
	je	.L429
	cmpb	423(%rdi), %al
	je	.L430
	cmpb	424(%rdi), %dl
	je	.L431
	cmpb	425(%rdi), %cl
	je	.L432
	cmpb	426(%rdi), %al
	je	.L433
	cmpb	427(%rdi), %dl
	je	.L434
	cmpb	428(%rdi), %cl
	je	.L435
	cmpb	429(%rdi), %al
	je	.L436
	cmpb	430(%rdi), %dl
	je	.L437
	cmpb	431(%rdi), %cl
	je	.L438
	cmpb	432(%rdi), %al
	je	.L439
	cmpb	433(%rdi), %dl
	je	.L440
	cmpb	434(%rdi), %cl
	je	.L441
	cmpb	435(%rdi), %al
	je	.L442
	cmpb	436(%rdi), %dl
	je	.L443
	cmpb	437(%rdi), %cl
	je	.L444
	cmpb	438(%rdi), %al
	je	.L445
	cmpb	439(%rdi), %dl
	je	.L446
	cmpb	440(%rdi), %cl
	je	.L447
	cmpb	441(%rdi), %al
	je	.L448
	cmpb	442(%rdi), %dl
	je	.L449
	cmpb	443(%rdi), %cl
	je	.L450
	cmpb	444(%rdi), %al
	je	.L451
	cmpb	445(%rdi), %dl
	je	.L452
	cmpb	446(%rdi), %cl
	je	.L453
	cmpb	447(%rdi), %al
	je	.L454
	cmpb	448(%rdi), %dl
	je	.L455
	cmpb	449(%rdi), %cl
	je	.L456
	cmpb	450(%rdi), %al
	je	.L457
	cmpb	451(%rdi), %dl
	je	.L458
	cmpb	452(%rdi), %cl
	je	.L459
	cmpb	453(%rdi), %al
	je	.L460
	cmpb	454(%rdi), %dl
	je	.L461
	cmpb	455(%rdi), %cl
	je	.L462
	cmpb	456(%rdi), %al
	je	.L463
	cmpb	457(%rdi), %dl
	je	.L464
	cmpb	458(%rdi), %cl
	je	.L465
	cmpb	459(%rdi), %al
	je	.L466
	cmpb	460(%rdi), %dl
	je	.L467
	cmpb	461(%rdi), %cl
	je	.L468
	cmpb	462(%rdi), %al
	je	.L469
	cmpb	463(%rdi), %dl
	je	.L470
	cmpb	464(%rdi), %cl
	je	.L471
	cmpb	465(%rdi), %al
	je	.L472
	cmpb	466(%rdi), %dl
	je	.L473
	cmpb	467(%rdi), %cl
	je	.L474
	cmpb	468(%rdi), %al
	je	.L475
	cmpb	469(%rdi), %dl
	je	.L476
	cmpb	470(%rdi), %cl
	je	.L477
	cmpb	471(%rdi), %al
	je	.L478
	cmpb	472(%rdi), %dl
	je	.L479
	cmpb	473(%rdi), %cl
	je	.L480
	cmpb	474(%rdi), %al
	je	.L481
	cmpb	475(%rdi), %dl
	je	.L482
	cmpb	476(%rdi), %cl
	je	.L483
	cmpb	477(%rdi), %al
	je	.L484
	cmpb	478(%rdi), %dl
	je	.L485
	cmpb	479(%rdi), %cl
	je	.L486
	cmpb	480(%rdi), %al
	je	.L487
	cmpb	481(%rdi), %dl
	je	.L488
	cmpb	482(%rdi), %cl
	je	.L489
	cmpb	483(%rdi), %al
	je	.L490
	cmpb	484(%rdi), %dl
	je	.L491
	cmpb	485(%rdi), %cl
	je	.L492
	cmpb	486(%rdi), %al
	je	.L493
	cmpb	487(%rdi), %dl
	je	.L494
	cmpb	488(%rdi), %cl
	je	.L495
	cmpb	489(%rdi), %al
	je	.L496
	cmpb	490(%rdi), %dl
	je	.L497
	cmpb	491(%rdi), %cl
	je	.L498
	cmpb	492(%rdi), %al
	je	.L499
	cmpb	493(%rdi), %dl
	je	.L500
	cmpb	494(%rdi), %cl
	je	.L501
	cmpb	495(%rdi), %al
	je	.L502
	cmpb	496(%rdi), %dl
	je	.L503
	cmpb	497(%rdi), %cl
	je	.L504
	cmpb	498(%rdi), %al
	je	.L505
	cmpb	499(%rdi), %dl
	je	.L506
	cmpb	500(%rdi), %cl
	je	.L507
	cmpb	501(%rdi), %al
	je	.L508
	cmpb	502(%rdi), %dl
	je	.L509
	cmpb	503(%rdi), %cl
	je	.L510
	cmpb	504(%rdi), %al
	je	.L511
	cmpb	505(%rdi), %dl
	je	.L512
	cmpb	506(%rdi), %cl
	je	.L513
	cmpb	507(%rdi), %al
	je	.L514
	cmpb	508(%rdi), %dl
	je	.L515
	cmpb	509(%rdi), %cl
	je	.L516
	cmpb	510(%rdi), %al
	je	.L517
	cmpb	511(%rdi), %dl
	je	.L518
	cmpb	512(%rdi), %cl
	je	.L519
	cmpb	513(%rdi), %al
	je	.L520
	cmpb	514(%rdi), %dl
	je	.L521
	cmpb	515(%rdi), %cl
	je	.L522
	cmpb	516(%rdi), %al
	je	.L523
	cmpb	517(%rdi), %dl
	je	.L524
	cmpb	518(%rdi), %cl
	je	.L525
	cmpb	519(%rdi), %al
	je	.L526
	cmpb	520(%rdi), %dl
	je	.L527
	cmpb	521(%rdi), %cl
	je	.L528
	cmpb	522(%rdi), %al
	je	.L529
	cmpb	523(%rdi), %dl
	je	.L530
	cmpb	524(%rdi), %cl
	je	.L531
	cmpb	525(%rdi), %al
	je	.L532
	cmpb	526(%rdi), %dl
	je	.L533
	cmpb	527(%rdi), %cl
	je	.L534
	cmpb	528(%rdi), %al
	je	.L535
	cmpb	529(%rdi), %dl
	je	.L536
	cmpb	530(%rdi), %cl
	je	.L537
	cmpb	531(%rdi), %al
	je	.L538
	cmpb	532(%rdi), %dl
	je	.L539
	cmpb	533(%rdi), %cl
	je	.L540
	cmpb	534(%rdi), %al
	je	.L541
	cmpb	535(%rdi), %dl
	je	.L542
	cmpb	536(%rdi), %cl
	je	.L543
	cmpb	537(%rdi), %al
	je	.L544
	cmpb	538(%rdi), %dl
	je	.L545
	cmpb	539(%rdi), %cl
	je	.L546
	cmpb	540(%rdi), %al
	je	.L547
	cmpb	541(%rdi), %dl
	je	.L548
	cmpb	542(%rdi), %cl
	je	.L549
	cmpb	543(%rdi), %al
	je	.L550
	cmpb	544(%rdi), %dl
	je	.L551
	cmpb	545(%rdi), %cl
	je	.L552
	cmpb	546(%rdi), %al
	je	.L553
	cmpb	547(%rdi), %dl
	je	.L554
	cmpb	548(%rdi), %cl
	je	.L555
	cmpb	549(%rdi), %al
	je	.L556
	cmpb	550(%rdi), %dl
	je	.L557
	cmpb	551(%rdi), %cl
	je	.L558
	cmpb	552(%rdi), %al
	je	.L559
	cmpb	553(%rdi), %dl
	je	.L560
	cmpb	554(%rdi), %cl
	je	.L561
	cmpb	555(%rdi), %al
	je	.L562
	cmpb	556(%rdi), %dl
	je	.L563
	cmpb	557(%rdi), %cl
	je	.L564
	cmpb	558(%rdi), %al
	je	.L565
	cmpb	559(%rdi), %dl
	je	.L566
	cmpb	560(%rdi), %cl
	je	.L567
	cmpb	561(%rdi), %al
	je	.L568
	cmpb	562(%rdi), %dl
	je	.L569
	cmpb	563(%rdi), %cl
	je	.L570
	cmpb	564(%rdi), %al
	je	.L571
	cmpb	565(%rdi), %dl
	je	.L572
	cmpb	566(%rdi), %cl
	je	.L573
	cmpb	567(%rdi), %al
	je	.L574
	cmpb	568(%rdi), %dl
	je	.L575
	cmpb	569(%rdi), %cl
	je	.L576
	cmpb	570(%rdi), %al
	je	.L577
	cmpb	571(%rdi), %dl
	je	.L578
	cmpb	572(%rdi), %cl
	je	.L579
	cmpb	573(%rdi), %al
	je	.L580
	cmpb	574(%rdi), %dl
	je	.L581
	cmpb	575(%rdi), %cl
	je	.L582
	cmpb	576(%rdi), %al
	je	.L583
	cmpb	577(%rdi), %dl
	je	.L584
	cmpb	578(%rdi), %cl
	je	.L585
	cmpb	579(%rdi), %al
	je	.L586
	cmpb	580(%rdi), %dl
	je	.L587
	cmpb	581(%rdi), %cl
	je	.L588
	cmpb	582(%rdi), %al
	je	.L589
	cmpb	583(%rdi), %dl
	je	.L590
	cmpb	584(%rdi), %cl
	je	.L591
	cmpb	585(%rdi), %al
	je	.L592
	cmpb	586(%rdi), %dl
	je	.L593
	cmpb	587(%rdi), %cl
	je	.L594
	cmpb	588(%rdi), %al
	je	.L595
	cmpb	589(%rdi), %dl
	je	.L596
	cmpb	590(%rdi), %cl
	je	.L597
	cmpb	591(%rdi), %al
	je	.L598
	cmpb	592(%rdi), %dl
	je	.L599
	cmpb	593(%rdi), %cl
	je	.L600
	cmpb	594(%rdi), %al
	je	.L601
	cmpb	595(%rdi), %dl
	je	.L602
	cmpb	596(%rdi), %cl
	je	.L603
	cmpb	597(%rdi), %al
	je	.L604
	cmpb	598(%rdi), %dl
	je	.L605
	cmpb	599(%rdi), %cl
	je	.L606
	cmpb	600(%rdi), %al
	je	.L607
	cmpb	601(%rdi), %dl
	je	.L608
	cmpb	602(%rdi), %cl
	je	.L609
	cmpb	603(%rdi), %al
	je	.L610
	cmpb	604(%rdi), %dl
	je	.L611
	cmpb	605(%rdi), %cl
	je	.L612
	cmpb	606(%rdi), %al
	je	.L613
	cmpb	607(%rdi), %dl
	je	.L614
	cmpb	608(%rdi), %cl
	je	.L615
	cmpb	609(%rdi), %al
	je	.L616
	cmpb	610(%rdi), %dl
	je	.L617
	cmpb	611(%rdi), %cl
	je	.L618
	cmpb	612(%rdi), %al
	je	.L619
	cmpb	613(%rdi), %dl
	je	.L620
	cmpb	614(%rdi), %cl
	je	.L621
	cmpb	615(%rdi), %al
	je	.L622
	cmpb	616(%rdi), %dl
	je	.L623
	cmpb	617(%rdi), %cl
	je	.L624
	cmpb	618(%rdi), %al
	je	.L625
	cmpb	619(%rdi), %dl
	je	.L626
	cmpb	620(%rdi), %cl
	je	.L627
	cmpb	621(%rdi), %al
	je	.L628
	cmpb	622(%rdi), %dl
	je	.L629
	cmpb	623(%rdi), %cl
	je	.L630
	cmpb	624(%rdi), %al
	je	.L631
	cmpb	625(%rdi), %dl
	je	.L632
	cmpb	626(%rdi), %cl
	je	.L633
	cmpb	627(%rdi), %al
	je	.L634
	cmpb	628(%rdi), %dl
	je	.L635
	cmpb	629(%rdi), %cl
	je	.L636
	cmpb	630(%rdi), %al
	je	.L637
	cmpb	631(%rdi), %dl
	je	.L638
	cmpb	632(%rdi), %cl
	je	.L639
	cmpb	633(%rdi), %al
	je	.L640
	cmpb	634(%rdi), %dl
	je	.L641
	cmpb	635(%rdi), %cl
	je	.L642
	cmpb	636(%rdi), %al
	je	.L643
	cmpb	637(%rdi), %dl
	je	.L644
	cmpb	638(%rdi), %cl
	je	.L645
	cmpb	639(%rdi), %al
	je	.L646
	cmpb	640(%rdi), %dl
	je	.L647
	cmpb	641(%rdi), %cl
	je	.L648
	cmpb	642(%rdi), %al
	je	.L649
	cmpb	643(%rdi), %dl
	je	.L650
	cmpb	644(%rdi), %cl
	je	.L651
	cmpb	645(%rdi), %al
	je	.L652
	cmpb	646(%rdi), %dl
	je	.L653
	cmpb	647(%rdi), %cl
	je	.L654
	cmpb	648(%rdi), %al
	je	.L655
	cmpb	649(%rdi), %dl
	je	.L656
	cmpb	650(%rdi), %cl
	je	.L657
	cmpb	651(%rdi), %al
	je	.L658
	cmpb	652(%rdi), %dl
	je	.L659
	cmpb	653(%rdi), %cl
	je	.L660
	cmpb	654(%rdi), %al
	je	.L661
	cmpb	655(%rdi), %dl
	je	.L662
	cmpb	656(%rdi), %cl
	je	.L663
	cmpb	657(%rdi), %al
	je	.L664
	cmpb	658(%rdi), %dl
	je	.L665
	cmpb	659(%rdi), %cl
	je	.L666
	cmpb	660(%rdi), %al
	je	.L667
	cmpb	661(%rdi), %dl
	je	.L668
	cmpb	662(%rdi), %cl
	je	.L669
	cmpb	663(%rdi), %al
	je	.L670
	cmpb	664(%rdi), %dl
	je	.L671
	cmpb	665(%rdi), %cl
	je	.L672
	cmpb	666(%rdi), %al
	je	.L673
	cmpb	667(%rdi), %dl
	je	.L674
	cmpb	668(%rdi), %cl
	je	.L675
	cmpb	669(%rdi), %al
	je	.L676
	cmpb	670(%rdi), %dl
	je	.L677
	cmpb	671(%rdi), %cl
	je	.L678
	cmpb	672(%rdi), %al
	je	.L679
	cmpb	673(%rdi), %dl
	je	.L680
	cmpb	674(%rdi), %cl
	je	.L681
	cmpb	675(%rdi), %al
	je	.L682
	cmpb	676(%rdi), %dl
	je	.L683
	cmpb	677(%rdi), %cl
	je	.L684
	cmpb	678(%rdi), %al
	je	.L685
	cmpb	679(%rdi), %dl
	je	.L686
	cmpb	680(%rdi), %cl
	je	.L687
	cmpb	681(%rdi), %al
	je	.L688
	cmpb	682(%rdi), %dl
	je	.L689
	cmpb	683(%rdi), %cl
	je	.L690
	cmpb	684(%rdi), %al
	je	.L691
	cmpb	685(%rdi), %dl
	je	.L692
	cmpb	686(%rdi), %cl
	je	.L693
	cmpb	687(%rdi), %al
	je	.L694
	cmpb	688(%rdi), %dl
	je	.L695
	cmpb	689(%rdi), %cl
	je	.L696
	cmpb	690(%rdi), %al
	je	.L697
	cmpb	691(%rdi), %dl
	je	.L698
	cmpb	692(%rdi), %cl
	je	.L699
	cmpb	693(%rdi), %al
	je	.L700
	cmpb	694(%rdi), %dl
	je	.L701
	cmpb	695(%rdi), %cl
	je	.L702
	cmpb	696(%rdi), %al
	je	.L703
	cmpb	697(%rdi), %dl
	je	.L704
	cmpb	698(%rdi), %cl
	je	.L705
	cmpb	699(%rdi), %al
	je	.L706
	cmpb	700(%rdi), %dl
	je	.L707
	cmpb	701(%rdi), %cl
	je	.L708
	cmpb	702(%rdi), %al
	je	.L709
	cmpb	703(%rdi), %dl
	je	.L710
	cmpb	704(%rdi), %cl
	je	.L711
	cmpb	705(%rdi), %al
	je	.L712
	cmpb	706(%rdi), %dl
	je	.L713
	cmpb	707(%rdi), %cl
	je	.L714
	cmpb	708(%rdi), %al
	je	.L715
	cmpb	709(%rdi), %dl
	je	.L716
	cmpb	710(%rdi), %cl
	je	.L717
	cmpb	711(%rdi), %al
	je	.L718
	cmpb	712(%rdi), %dl
	je	.L719
	cmpb	713(%rdi), %cl
	je	.L720
	cmpb	714(%rdi), %al
	je	.L721
	cmpb	715(%rdi), %dl
	je	.L722
	cmpb	716(%rdi), %cl
	je	.L723
	cmpb	717(%rdi), %al
	je	.L724
	cmpb	718(%rdi), %dl
	je	.L725
	cmpb	719(%rdi), %cl
	je	.L726
	cmpb	720(%rdi), %al
	je	.L727
	cmpb	721(%rdi), %dl
	je	.L728
	cmpb	722(%rdi), %cl
	je	.L729
	cmpb	723(%rdi), %al
	je	.L730
	cmpb	724(%rdi), %dl
	je	.L731
	cmpb	725(%rdi), %cl
	je	.L732
	cmpb	726(%rdi), %al
	je	.L733
	cmpb	727(%rdi), %dl
	je	.L734
	cmpb	728(%rdi), %cl
	je	.L735
	cmpb	729(%rdi), %al
	je	.L736
	cmpb	730(%rdi), %dl
	je	.L737
	cmpb	731(%rdi), %cl
	je	.L738
	cmpb	732(%rdi), %al
	je	.L739
	cmpb	733(%rdi), %dl
	je	.L740
	cmpb	734(%rdi), %cl
	je	.L741
	cmpb	735(%rdi), %al
	je	.L742
	cmpb	736(%rdi), %dl
	je	.L743
	cmpb	737(%rdi), %cl
	je	.L744
	cmpb	738(%rdi), %al
	je	.L745
	cmpb	739(%rdi), %dl
	je	.L746
	cmpb	740(%rdi), %cl
	je	.L747
	cmpb	741(%rdi), %al
	je	.L748
	cmpb	742(%rdi), %dl
	je	.L749
	cmpb	743(%rdi), %cl
	je	.L750
	cmpb	744(%rdi), %al
	je	.L751
	cmpb	745(%rdi), %dl
	je	.L752
	cmpb	746(%rdi), %cl
	je	.L753
	cmpb	747(%rdi), %al
	je	.L754
	cmpb	748(%rdi), %dl
	je	.L755
	cmpb	749(%rdi), %cl
	je	.L756
	cmpb	750(%rdi), %al
	je	.L757
	cmpb	751(%rdi), %dl
	je	.L758
	cmpb	752(%rdi), %cl
	je	.L759
	cmpb	753(%rdi), %al
	je	.L760
	cmpb	754(%rdi), %dl
	je	.L761
	cmpb	755(%rdi), %cl
	je	.L762
	cmpb	756(%rdi), %al
	je	.L763
	cmpb	757(%rdi), %dl
	je	.L764
	cmpb	758(%rdi), %cl
	je	.L765
	cmpb	759(%rdi), %al
	je	.L766
	cmpb	760(%rdi), %dl
	je	.L767
	cmpb	761(%rdi), %cl
	je	.L768
	cmpb	762(%rdi), %al
	je	.L769
	cmpb	763(%rdi), %dl
	je	.L770
	cmpb	764(%rdi), %cl
	je	.L771
	cmpb	765(%rdi), %al
	je	.L772
	cmpb	766(%rdi), %dl
	je	.L773
	cmpb	767(%rdi), %cl
	je	.L774
	cmpb	768(%rdi), %al
	je	.L775
	cmpb	769(%rdi), %dl
	je	.L776
	cmpb	770(%rdi), %cl
	je	.L777
	cmpb	771(%rdi), %al
	je	.L778
	cmpb	772(%rdi), %dl
	je	.L779
	cmpb	773(%rdi), %cl
	je	.L780
	cmpb	774(%rdi), %al
	je	.L781
	cmpb	775(%rdi), %dl
	je	.L782
	cmpb	776(%rdi), %cl
	je	.L783
	cmpb	777(%rdi), %al
	je	.L784
	cmpb	778(%rdi), %dl
	je	.L785
	cmpb	779(%rdi), %cl
	je	.L786
	cmpb	780(%rdi), %al
	je	.L787
	cmpb	781(%rdi), %dl
	je	.L788
	cmpb	782(%rdi), %cl
	je	.L789
	cmpb	783(%rdi), %al
	je	.L790
	cmpb	784(%rdi), %dl
	je	.L791
	cmpb	785(%rdi), %cl
	je	.L792
	cmpb	786(%rdi), %al
	je	.L793
	cmpb	787(%rdi), %dl
	je	.L794
	cmpb	788(%rdi), %cl
	je	.L795
	cmpb	789(%rdi), %al
	je	.L796
	cmpb	790(%rdi), %dl
	je	.L797
	cmpb	791(%rdi), %cl
	je	.L798
	cmpb	792(%rdi), %al
	je	.L799
	cmpb	793(%rdi), %dl
	je	.L800
	cmpb	794(%rdi), %cl
	je	.L801
	cmpb	795(%rdi), %al
	je	.L802
	cmpb	796(%rdi), %dl
	je	.L803
	cmpb	797(%rdi), %cl
	je	.L804
	cmpb	798(%rdi), %al
	je	.L805
	cmpb	799(%rdi), %dl
	je	.L806
	cmpb	800(%rdi), %cl
	je	.L807
	cmpb	801(%rdi), %al
	je	.L808
	cmpb	802(%rdi), %dl
	je	.L809
	cmpb	803(%rdi), %cl
	je	.L810
	cmpb	804(%rdi), %al
	je	.L811
	cmpb	805(%rdi), %dl
	je	.L812
	cmpb	806(%rdi), %cl
	je	.L813
	cmpb	807(%rdi), %al
	je	.L814
	cmpb	808(%rdi), %dl
	je	.L815
	cmpb	809(%rdi), %cl
	je	.L816
	cmpb	810(%rdi), %al
	je	.L817
	cmpb	811(%rdi), %dl
	je	.L818
	cmpb	812(%rdi), %cl
	je	.L819
	cmpb	813(%rdi), %al
	je	.L820
	cmpb	814(%rdi), %dl
	je	.L821
	cmpb	815(%rdi), %cl
	je	.L822
	cmpb	816(%rdi), %al
	je	.L823
	cmpb	817(%rdi), %dl
	je	.L824
	cmpb	818(%rdi), %cl
	je	.L825
	cmpb	819(%rdi), %al
	je	.L826
	cmpb	820(%rdi), %dl
	je	.L827
	cmpb	821(%rdi), %cl
	je	.L828
	cmpb	822(%rdi), %al
	je	.L829
	cmpb	823(%rdi), %dl
	je	.L830
	cmpb	824(%rdi), %cl
	je	.L831
	cmpb	825(%rdi), %al
	je	.L832
	cmpb	826(%rdi), %dl
	je	.L833
	cmpb	827(%rdi), %cl
	je	.L834
	cmpb	828(%rdi), %al
	je	.L835
	cmpb	829(%rdi), %dl
	je	.L836
	cmpb	830(%rdi), %cl
	je	.L837
	cmpb	831(%rdi), %al
	je	.L838
	cmpb	832(%rdi), %dl
	je	.L839
	cmpb	833(%rdi), %cl
	je	.L840
	cmpb	834(%rdi), %al
	je	.L841
	cmpb	835(%rdi), %dl
	je	.L842
	cmpb	836(%rdi), %cl
	je	.L843
	cmpb	837(%rdi), %al
	je	.L844
	cmpb	838(%rdi), %dl
	je	.L845
	cmpb	839(%rdi), %cl
	je	.L846
	cmpb	840(%rdi), %al
	je	.L847
	cmpb	841(%rdi), %dl
	je	.L848
	cmpb	842(%rdi), %cl
	je	.L849
	cmpb	843(%rdi), %al
	je	.L850
	cmpb	844(%rdi), %dl
	je	.L851
	cmpb	845(%rdi), %cl
	je	.L852
	cmpb	846(%rdi), %al
	je	.L853
	cmpb	847(%rdi), %dl
	je	.L854
	cmpb	848(%rdi), %cl
	je	.L855
	cmpb	849(%rdi), %al
	je	.L856
	cmpb	850(%rdi), %dl
	je	.L857
	cmpb	851(%rdi), %cl
	je	.L858
	cmpb	852(%rdi), %al
	je	.L859
	cmpb	853(%rdi), %dl
	je	.L860
	cmpb	854(%rdi), %cl
	je	.L861
	cmpb	855(%rdi), %al
	je	.L862
	cmpb	856(%rdi), %dl
	je	.L863
	cmpb	857(%rdi), %cl
	je	.L864
	cmpb	858(%rdi), %al
	je	.L865
	cmpb	859(%rdi), %dl
	je	.L866
	cmpb	860(%rdi), %cl
	je	.L867
	cmpb	861(%rdi), %al
	je	.L868
	cmpb	862(%rdi), %dl
	je	.L869
	cmpb	863(%rdi), %cl
	je	.L870
	cmpb	864(%rdi), %al
	je	.L871
	cmpb	865(%rdi), %dl
	je	.L872
	cmpb	866(%rdi), %cl
	je	.L873
	cmpb	867(%rdi), %al
	je	.L874
	cmpb	868(%rdi), %dl
	je	.L875
	cmpb	869(%rdi), %cl
	je	.L876
	cmpb	870(%rdi), %al
	je	.L877
	cmpb	871(%rdi), %dl
	je	.L878
	cmpb	872(%rdi), %cl
	je	.L879
	cmpb	873(%rdi), %al
	je	.L880
	cmpb	874(%rdi), %dl
	je	.L881
	cmpb	875(%rdi), %cl
	je	.L882
	cmpb	876(%rdi), %al
	je	.L883
	cmpb	877(%rdi), %dl
	je	.L884
	cmpb	878(%rdi), %cl
	je	.L885
	cmpb	879(%rdi), %al
	je	.L886
	cmpb	880(%rdi), %dl
	je	.L887
	cmpb	881(%rdi), %cl
	je	.L888
	cmpb	882(%rdi), %al
	je	.L889
	cmpb	883(%rdi), %dl
	je	.L890
	cmpb	884(%rdi), %cl
	je	.L891
	cmpb	885(%rdi), %al
	je	.L892
	cmpb	886(%rdi), %dl
	je	.L893
	cmpb	887(%rdi), %cl
	je	.L894
	cmpb	888(%rdi), %al
	je	.L895
	cmpb	889(%rdi), %dl
	je	.L896
	cmpb	890(%rdi), %cl
	je	.L897
	cmpb	891(%rdi), %al
	je	.L898
	cmpb	892(%rdi), %dl
	je	.L899
	cmpb	893(%rdi), %cl
	je	.L900
	cmpb	894(%rdi), %al
	je	.L901
	cmpb	895(%rdi), %dl
	je	.L902
	cmpb	896(%rdi), %cl
	je	.L903
	cmpb	897(%rdi), %al
	je	.L904
	cmpb	898(%rdi), %dl
	je	.L905
	cmpb	899(%rdi), %cl
	je	.L906
	cmpb	900(%rdi), %al
	je	.L907
	cmpb	901(%rdi), %dl
	je	.L908
	cmpb	902(%rdi), %cl
	je	.L909
	cmpb	903(%rdi), %al
	je	.L910
	cmpb	904(%rdi), %dl
	je	.L911
	cmpb	905(%rdi), %cl
	je	.L912
	cmpb	906(%rdi), %al
	je	.L913
	cmpb	907(%rdi), %dl
	je	.L914
	cmpb	908(%rdi), %cl
	je	.L915
	cmpb	909(%rdi), %al
	je	.L916
	cmpb	910(%rdi), %dl
	je	.L917
	cmpb	911(%rdi), %cl
	je	.L918
	cmpb	912(%rdi), %al
	je	.L919
	cmpb	913(%rdi), %dl
	je	.L920
	cmpb	914(%rdi), %cl
	je	.L921
	cmpb	915(%rdi), %al
	je	.L922
	cmpb	916(%rdi), %dl
	je	.L923
	cmpb	917(%rdi), %cl
	je	.L924
	cmpb	918(%rdi), %al
	je	.L925
	cmpb	919(%rdi), %dl
	je	.L926
	cmpb	920(%rdi), %cl
	je	.L927
	cmpb	921(%rdi), %al
	je	.L928
	cmpb	922(%rdi), %dl
	je	.L929
	cmpb	923(%rdi), %cl
	je	.L930
	cmpb	924(%rdi), %al
	je	.L931
	cmpb	925(%rdi), %dl
	je	.L932
	cmpb	926(%rdi), %cl
	je	.L933
	cmpb	927(%rdi), %al
	je	.L934
	cmpb	928(%rdi), %dl
	je	.L935
	cmpb	929(%rdi), %cl
	je	.L936
	cmpb	930(%rdi), %al
	je	.L937
	cmpb	931(%rdi), %dl
	je	.L938
	cmpb	932(%rdi), %cl
	je	.L939
	cmpb	933(%rdi), %al
	je	.L940
	cmpb	934(%rdi), %dl
	je	.L941
	cmpb	935(%rdi), %cl
	je	.L942
	cmpb	936(%rdi), %al
	je	.L943
	cmpb	937(%rdi), %dl
	je	.L944
	cmpb	938(%rdi), %cl
	je	.L945
	cmpb	939(%rdi), %al
	je	.L946
	cmpb	940(%rdi), %dl
	je	.L947
	cmpb	941(%rdi), %cl
	je	.L948
	cmpb	942(%rdi), %al
	je	.L949
	cmpb	943(%rdi), %dl
	je	.L950
	cmpb	944(%rdi), %cl
	je	.L951
	cmpb	945(%rdi), %al
	je	.L952
	cmpb	946(%rdi), %dl
	je	.L953
	cmpb	947(%rdi), %cl
	je	.L954
	cmpb	948(%rdi), %al
	je	.L955
	cmpb	949(%rdi), %dl
	je	.L956
	cmpb	950(%rdi), %cl
	je	.L957
	cmpb	951(%rdi), %al
	je	.L958
	cmpb	952(%rdi), %dl
	je	.L959
	cmpb	953(%rdi), %cl
	je	.L960
	cmpb	954(%rdi), %al
	je	.L961
	cmpb	955(%rdi), %dl
	je	.L962
	cmpb	956(%rdi), %cl
	je	.L963
	cmpb	957(%rdi), %al
	je	.L964
	cmpb	958(%rdi), %dl
	je	.L965
	cmpb	959(%rdi), %cl
	je	.L966
	cmpb	960(%rdi), %al
	je	.L967
	cmpb	961(%rdi), %dl
	je	.L968
	cmpb	962(%rdi), %cl
	je	.L969
	cmpb	963(%rdi), %al
	je	.L970
	cmpb	964(%rdi), %dl
	je	.L971
	cmpb	965(%rdi), %cl
	je	.L972
	cmpb	966(%rdi), %al
	je	.L973
	cmpb	967(%rdi), %dl
	je	.L974
	cmpb	968(%rdi), %cl
	je	.L975
	cmpb	969(%rdi), %al
	je	.L976
	cmpb	970(%rdi), %dl
	je	.L977
	cmpb	971(%rdi), %cl
	je	.L978
	cmpb	972(%rdi), %al
	je	.L979
	cmpb	973(%rdi), %dl
	je	.L980
	cmpb	974(%rdi), %cl
	je	.L981
	cmpb	975(%rdi), %al
	je	.L982
	cmpb	976(%rdi), %dl
	je	.L983
	cmpb	977(%rdi), %cl
	je	.L984
	cmpb	978(%rdi), %al
	je	.L985
	cmpb	979(%rdi), %dl
	je	.L986
	cmpb	980(%rdi), %cl
	je	.L987
	cmpb	981(%rdi), %al
	je	.L988
	cmpb	982(%rdi), %dl
	je	.L989
	cmpb	983(%rdi), %cl
	je	.L990
	cmpb	984(%rdi), %al
	je	.L991
	cmpb	985(%rdi), %dl
	je	.L992
	cmpb	986(%rdi), %cl
	je	.L993
	cmpb	987(%rdi), %al
	je	.L994
	cmpb	988(%rdi), %dl
	je	.L995
	cmpb	989(%rdi), %cl
	je	.L996
	cmpb	990(%rdi), %al
	je	.L997
	cmpb	991(%rdi), %dl
	je	.L998
	cmpb	992(%rdi), %cl
	je	.L999
	cmpb	993(%rdi), %al
	je	.L1000
	cmpb	994(%rdi), %dl
	je	.L1001
	cmpb	995(%rdi), %cl
	je	.L1002
	cmpb	996(%rdi), %al
	je	.L1003
	cmpb	997(%rdi), %dl
	je	.L1004
	cmpb	998(%rdi), %cl
	je	.L1005
	cmpb	999(%rdi), %al
	je	.L1006
	cmpb	1000(%rdi), %dl
	je	.L1007
	cmpb	1001(%rdi), %cl
	je	.L1008
	cmpb	1002(%rdi), %al
	je	.L1009
	cmpb	1003(%rdi), %dl
	je	.L1010
	cmpb	1004(%rdi), %cl
	je	.L1011
	cmpb	1005(%rdi), %al
	je	.L1012
	cmpb	1006(%rdi), %dl
	je	.L1013
	cmpb	1007(%rdi), %cl
	je	.L1014
	cmpb	1008(%rdi), %al
	je	.L1015
	cmpb	1009(%rdi), %dl
	je	.L1016
	cmpb	1010(%rdi), %cl
	je	.L1017
	cmpb	1011(%rdi), %al
	je	.L1018
	cmpb	1012(%rdi), %dl
	je	.L1019
	cmpb	1013(%rdi), %cl
	je	.L1020
	cmpb	1014(%rdi), %al
	je	.L1021
	cmpb	1015(%rdi), %dl
	je	.L1022
	cmpb	1016(%rdi), %cl
	je	.L1023
	cmpb	1017(%rdi), %al
	je	.L1024
	cmpb	1018(%rdi), %dl
	je	.L1025
	cmpb	1019(%rdi), %cl
	je	.L1026
	cmpb	1020(%rdi), %al
	je	.L1027
	cmpb	1021(%rdi), %dl
	je	.L1028
	cmpb	1022(%rdi), %cl
	je	.L1029
	cmpb	1023(%rdi), %al
	je	.L1030
	cmpb	1024(%rdi), %dl
	je	.L1031
	cmpb	1025(%rdi), %cl
	je	.L1032
	cmpb	1026(%rdi), %al
	je	.L1033
	cmpb	1027(%rdi), %dl
	je	.L1034
	cmpb	1028(%rdi), %cl
	je	.L1035
	cmpb	1029(%rdi), %al
	je	.L1036
	cmpb	1030(%rdi), %dl
	je	.L1037
	cmpb	1031(%rdi), %cl
	je	.L1038
	cmpb	1032(%rdi), %al
	je	.L1039
	cmpb	1033(%rdi), %dl
	je	.L1040
	cmpb	1034(%rdi), %cl
	je	.L1041
	cmpb	1035(%rdi), %al
	je	.L1042
	cmpb	1036(%rdi), %dl
	je	.L1043
	cmpb	1037(%rdi), %cl
	je	.L1044
	cmpb	1038(%rdi), %al
	je	.L1045
	cmpb	1039(%rdi), %dl
	je	.L1046
	cmpb	1040(%rdi), %cl
	je	.L1047
	cmpb	1041(%rdi), %al
	je	.L1048
	cmpb	1042(%rdi), %dl
	je	.L1049
	cmpb	1043(%rdi), %cl
	je	.L1050
	cmpb	1044(%rdi), %al
	je	.L1051
	cmpb	1045(%rdi), %dl
	je	.L1052
	cmpb	1046(%rdi), %cl
	je	.L1053
	cmpb	1047(%rdi), %al
	je	.L1054
	cmpb	1048(%rdi), %dl
	je	.L1055
	cmpb	1049(%rdi), %cl
	je	.L1056
	cmpb	1050(%rdi), %al
	je	.L1057
	cmpb	1051(%rdi), %dl
	je	.L1058
	cmpb	1052(%rdi), %cl
	je	.L1059
	cmpb	1053(%rdi), %al
	je	.L1060
	cmpb	1054(%rdi), %dl
	je	.L1061
	cmpb	1055(%rdi), %cl
	je	.L1062
	cmpb	1056(%rdi), %al
	je	.L1063
	cmpb	1057(%rdi), %dl
	je	.L1064
	cmpb	1058(%rdi), %cl
	je	.L1065
	cmpb	1059(%rdi), %al
	je	.L1066
	cmpb	1060(%rdi), %dl
	je	.L1067
	cmpb	1061(%rdi), %cl
	je	.L1068
	cmpb	1062(%rdi), %al
	je	.L1069
	cmpb	1063(%rdi), %dl
	je	.L1070
	cmpb	1064(%rdi), %cl
	je	.L1071
	cmpb	1065(%rdi), %al
	je	.L1072
	cmpb	1066(%rdi), %dl
	je	.L1073
	cmpb	1067(%rdi), %cl
	je	.L1074
	cmpb	1068(%rdi), %al
	je	.L1075
	cmpb	1069(%rdi), %dl
	je	.L1076
	cmpb	1070(%rdi), %cl
	je	.L1077
	cmpb	1071(%rdi), %al
	je	.L1078
	cmpb	1072(%rdi), %dl
	je	.L1079
	cmpb	1073(%rdi), %cl
	je	.L1080
	cmpb	1074(%rdi), %al
	je	.L1081
	cmpb	1075(%rdi), %dl
	je	.L1082
	cmpb	1076(%rdi), %cl
	je	.L1083
	cmpb	1077(%rdi), %al
	je	.L1084
	cmpb	1078(%rdi), %dl
	je	.L1085
	cmpb	1079(%rdi), %cl
	je	.L1086
	cmpb	1080(%rdi), %al
	je	.L1087
	cmpb	1081(%rdi), %dl
	je	.L1088
	cmpb	1082(%rdi), %cl
	je	.L1089
	cmpb	1083(%rdi), %al
	je	.L1090
	cmpb	1084(%rdi), %dl
	je	.L1091
	cmpb	1085(%rdi), %cl
	je	.L1092
	cmpb	1086(%rdi), %al
	je	.L1093
	cmpb	1087(%rdi), %dl
	je	.L1094
	cmpb	1088(%rdi), %cl
	je	.L1095
	cmpb	1089(%rdi), %al
	je	.L1096
	cmpb	1090(%rdi), %dl
	je	.L1097
	cmpb	1091(%rdi), %cl
	je	.L1098
	cmpb	1092(%rdi), %al
	je	.L1099
	cmpb	1093(%rdi), %dl
	je	.L1100
	cmpb	1094(%rdi), %cl
	je	.L1101
	cmpb	1095(%rdi), %al
	je	.L1102
	cmpb	1096(%rdi), %dl
	je	.L1103
	cmpb	1097(%rdi), %cl
	je	.L1104
	cmpb	1098(%rdi), %al
	je	.L1105
	cmpb	1099(%rdi), %dl
	je	.L1106
	cmpb	1100(%rdi), %cl
	je	.L1107
	cmpb	1101(%rdi), %al
	je	.L1108
	cmpb	1102(%rdi), %dl
	je	.L1109
	cmpb	1103(%rdi), %cl
	je	.L1110
	cmpb	1104(%rdi), %al
	je	.L1111
	cmpb	1105(%rdi), %dl
	je	.L1112
	cmpb	1106(%rdi), %cl
	je	.L1113
	cmpb	1107(%rdi), %al
	je	.L1114
	cmpb	1108(%rdi), %dl
	je	.L1115
	cmpb	1109(%rdi), %cl
	je	.L1116
	cmpb	1110(%rdi), %al
	je	.L1117
	cmpb	1111(%rdi), %dl
	je	.L1118
	cmpb	1112(%rdi), %cl
	je	.L1119
	cmpb	1113(%rdi), %al
	je	.L1120
	cmpb	1114(%rdi), %dl
	je	.L1121
	cmpb	1115(%rdi), %cl
	je	.L1122
	cmpb	1116(%rdi), %al
	je	.L1123
	cmpb	1117(%rdi), %dl
	je	.L1124
	cmpb	1118(%rdi), %cl
	je	.L1125
	cmpb	1119(%rdi), %al
	je	.L1126
	cmpb	1120(%rdi), %dl
	je	.L1127
	cmpb	1121(%rdi), %cl
	je	.L1128
	cmpb	1122(%rdi), %al
	je	.L1129
	cmpb	1123(%rdi), %dl
	je	.L1130
	cmpb	1124(%rdi), %cl
	je	.L1131
	cmpb	1125(%rdi), %al
	je	.L1132
	cmpb	1126(%rdi), %dl
	je	.L1133
	cmpb	1127(%rdi), %cl
	je	.L1134
	cmpb	1128(%rdi), %al
	je	.L1135
	cmpb	1129(%rdi), %dl
	je	.L1136
	cmpb	1130(%rdi), %cl
	je	.L1137
	cmpb	1131(%rdi), %al
	je	.L1138
	cmpb	1132(%rdi), %dl
	je	.L1139
	cmpb	1133(%rdi), %cl
	je	.L1140
	cmpb	1134(%rdi), %al
	je	.L1141
	cmpb	1135(%rdi), %dl
	je	.L1142
	cmpb	1136(%rdi), %cl
	je	.L1143
	cmpb	1137(%rdi), %al
	je	.L1144
	cmpb	1138(%rdi), %dl
	je	.L1145
	cmpb	1139(%rdi), %cl
	je	.L1146
	cmpb	1140(%rdi), %al
	je	.L1147
	cmpb	1141(%rdi), %dl
	je	.L1148
	cmpb	1142(%rdi), %cl
	je	.L1149
	cmpb	1143(%rdi), %al
	je	.L1150
	cmpb	1144(%rdi), %dl
	je	.L1151
	cmpb	1145(%rdi), %cl
	je	.L1152
	cmpb	1146(%rdi), %al
	je	.L1153
	cmpb	1147(%rdi), %dl
	je	.L1154
	cmpb	1148(%rdi), %cl
	je	.L1155
	cmpb	1149(%rdi), %al
	je	.L1156
	cmpb	1150(%rdi), %dl
	je	.L1157
	cmpb	1151(%rdi), %cl
	je	.L1158
	cmpb	1152(%rdi), %al
	je	.L1159
	cmpb	1153(%rdi), %dl
	je	.L1160
	cmpb	1154(%rdi), %cl
	je	.L1161
	cmpb	1155(%rdi), %al
	je	.L1162
	cmpb	1156(%rdi), %dl
	je	.L1163
	cmpb	1157(%rdi), %cl
	je	.L1164
	cmpb	1158(%rdi), %al
	je	.L1165
	cmpb	1159(%rdi), %dl
	je	.L1166
	cmpb	1160(%rdi), %cl
	je	.L1167
	cmpb	1161(%rdi), %al
	je	.L1168
	cmpb	1162(%rdi), %dl
	je	.L1169
	cmpb	1163(%rdi), %cl
	je	.L1170
	cmpb	1164(%rdi), %al
	je	.L1171
	cmpb	1165(%rdi), %dl
	je	.L1172
	cmpb	1166(%rdi), %cl
	je	.L1173
	cmpb	1167(%rdi), %al
	je	.L1174
	cmpb	1168(%rdi), %dl
	je	.L1175
	cmpb	1169(%rdi), %cl
	je	.L1176
	cmpb	1170(%rdi), %al
	je	.L1177
	cmpb	1171(%rdi), %dl
	je	.L1178
	cmpb	1172(%rdi), %cl
	je	.L1179
	cmpb	1173(%rdi), %al
	je	.L1180
	cmpb	1174(%rdi), %dl
	je	.L1181
	cmpb	1175(%rdi), %cl
	je	.L1182
	cmpb	1176(%rdi), %al
	je	.L1183
	cmpb	1177(%rdi), %dl
	je	.L1184
	cmpb	1178(%rdi), %cl
	je	.L1185
	cmpb	1179(%rdi), %al
	je	.L1186
	cmpb	1180(%rdi), %dl
	je	.L1187
	cmpb	1181(%rdi), %cl
	je	.L1188
	cmpb	1182(%rdi), %al
	je	.L1189
	cmpb	1183(%rdi), %dl
	je	.L1190
	cmpb	1184(%rdi), %cl
	je	.L1191
	cmpb	1185(%rdi), %al
	je	.L1192
	cmpb	1186(%rdi), %dl
	je	.L1193
	cmpb	1187(%rdi), %cl
	je	.L1194
	cmpb	1188(%rdi), %al
	je	.L1195
	cmpb	1189(%rdi), %dl
	je	.L1196
	cmpb	1190(%rdi), %cl
	je	.L1197
	cmpb	1191(%rdi), %al
	je	.L1198
	cmpb	1192(%rdi), %dl
	je	.L1199
	cmpb	1193(%rdi), %cl
	je	.L1200
	cmpb	1194(%rdi), %al
	je	.L1201
	cmpb	1195(%rdi), %dl
	je	.L1202
	cmpb	1196(%rdi), %cl
	je	.L1203
	cmpb	1197(%rdi), %al
	je	.L1204
	cmpb	1198(%rdi), %dl
	je	.L1205
	cmpb	1199(%rdi), %cl
	je	.L1206
	cmpb	1200(%rdi), %al
	je	.L1207
	cmpb	1201(%rdi), %dl
	je	.L1208
	cmpb	1202(%rdi), %cl
	je	.L1209
	cmpb	1203(%rdi), %al
	je	.L1210
	cmpb	1204(%rdi), %dl
	je	.L1211
	cmpb	1205(%rdi), %cl
	je	.L1212
	cmpb	1206(%rdi), %al
	je	.L1213
	cmpb	1207(%rdi), %dl
	je	.L1214
	cmpb	1208(%rdi), %cl
	je	.L1215
	cmpb	1209(%rdi), %al
	je	.L1216
	cmpb	1210(%rdi), %dl
	je	.L1217
	cmpb	1211(%rdi), %cl
	je	.L1218
	cmpb	1212(%rdi), %al
	je	.L1219
	cmpb	1213(%rdi), %dl
	je	.L1220
	cmpb	1214(%rdi), %cl
	je	.L1221
	cmpb	1215(%rdi), %al
	je	.L1222
	cmpb	1216(%rdi), %dl
	je	.L1223
	cmpb	1217(%rdi), %cl
	je	.L1224
	cmpb	1218(%rdi), %al
	je	.L1225
	cmpb	1219(%rdi), %dl
	je	.L1226
	cmpb	1220(%rdi), %cl
	je	.L1227
	cmpb	1221(%rdi), %al
	je	.L1228
	cmpb	1222(%rdi), %dl
	je	.L1229
	cmpb	1223(%rdi), %cl
	je	.L1230
	cmpb	1224(%rdi), %al
	je	.L1231
	cmpb	1225(%rdi), %dl
	je	.L1232
	cmpb	1226(%rdi), %cl
	je	.L1233
	cmpb	1227(%rdi), %al
	je	.L1234
	cmpb	1228(%rdi), %dl
	je	.L1235
	cmpb	1229(%rdi), %cl
	je	.L1236
	cmpb	1230(%rdi), %al
	je	.L1237
	cmpb	1231(%rdi), %dl
	je	.L1238
	cmpb	1232(%rdi), %cl
	je	.L1239
	cmpb	1233(%rdi), %al
	je	.L1240
	cmpb	1234(%rdi), %dl
	je	.L1241
	cmpb	1235(%rdi), %cl
	je	.L1242
	cmpb	1236(%rdi), %al
	je	.L1243
	cmpb	1237(%rdi), %dl
	je	.L1244
	cmpb	1238(%rdi), %cl
	je	.L1245
	cmpb	1239(%rdi), %al
	je	.L1246
	cmpb	1240(%rdi), %dl
	je	.L1247
	cmpb	1241(%rdi), %cl
	je	.L1248
	cmpb	1242(%rdi), %al
	je	.L1249
	cmpb	1243(%rdi), %dl
	je	.L1250
	cmpb	1244(%rdi), %cl
	je	.L1251
	cmpb	1245(%rdi), %al
	je	.L1252
	cmpb	1246(%rdi), %dl
	je	.L1253
	cmpb	1247(%rdi), %cl
	je	.L1254
	cmpb	1248(%rdi), %al
	je	.L1255
	cmpb	1249(%rdi), %dl
	je	.L1256
	cmpb	1250(%rdi), %cl
	je	.L1257
	cmpb	1251(%rdi), %al
	je	.L1258
	cmpb	1252(%rdi), %dl
	je	.L1259
	cmpb	1253(%rdi), %cl
	je	.L1260
	cmpb	1254(%rdi), %al
	je	.L1261
	cmpb	1255(%rdi), %dl
	je	.L1262
	cmpb	1256(%rdi), %cl
	je	.L1263
	cmpb	1257(%rdi), %al
	je	.L1264
	cmpb	1258(%rdi), %dl
	je	.L1265
	cmpb	1259(%rdi), %cl
	je	.L1266
	cmpb	1260(%rdi), %al
	je	.L1267
	cmpb	1261(%rdi), %dl
	je	.L1268
	cmpb	1262(%rdi), %cl
	je	.L1269
	cmpb	1263(%rdi), %al
	je	.L1270
	cmpb	1264(%rdi), %dl
	je	.L1271
	cmpb	1265(%rdi), %cl
	je	.L1272
	cmpb	1266(%rdi), %al
	je	.L1273
	cmpb	1267(%rdi), %dl
	je	.L1274
	cmpb	1268(%rdi), %cl
	je	.L1275
	cmpb	1269(%rdi), %al
	je	.L1276
	cmpb	1270(%rdi), %dl
	je	.L1277
	cmpb	1271(%rdi), %cl
	je	.L1278
	cmpb	1272(%rdi), %al
	je	.L1279
	cmpb	1273(%rdi), %dl
	je	.L1280
	cmpb	1274(%rdi), %cl
	je	.L1281
	cmpb	1275(%rdi), %al
	je	.L1282
	cmpb	1276(%rdi), %dl
	je	.L1283
	cmpb	1277(%rdi), %cl
	je	.L1284
	cmpb	1278(%rdi), %al
	je	.L1285
	cmpb	1279(%rdi), %dl
	je	.L1286
	cmpb	1280(%rdi), %cl
	je	.L1287
	cmpb	1281(%rdi), %al
	je	.L1288
	cmpb	1282(%rdi), %dl
	je	.L1289
	cmpb	1283(%rdi), %cl
	je	.L1290
	cmpb	1284(%rdi), %al
	je	.L1291
	cmpb	1285(%rdi), %dl
	je	.L1292
	cmpb	1286(%rdi), %cl
	je	.L1293
	cmpb	1287(%rdi), %al
	je	.L1294
	cmpb	1288(%rdi), %dl
	je	.L1295
	cmpb	1289(%rdi), %cl
	je	.L1296
	cmpb	1290(%rdi), %al
	je	.L1297
	cmpb	1291(%rdi), %dl
	je	.L1298
	cmpb	1292(%rdi), %cl
	je	.L1299
	cmpb	1293(%rdi), %al
	je	.L1300
	cmpb	1294(%rdi), %dl
	je	.L1301
	cmpb	1295(%rdi), %cl
	je	.L1302
	cmpb	1296(%rdi), %al
	je	.L1303
	cmpb	1297(%rdi), %dl
	je	.L1304
	cmpb	1298(%rdi), %cl
	je	.L1305
	cmpb	1299(%rdi), %al
	je	.L1306
	cmpb	1300(%rdi), %dl
	je	.L1307
	cmpb	1301(%rdi), %cl
	je	.L1308
	cmpb	1302(%rdi), %al
	je	.L1309
	cmpb	1303(%rdi), %dl
	je	.L1310
	cmpb	1304(%rdi), %cl
	je	.L1311
	cmpb	1305(%rdi), %al
	je	.L1312
	cmpb	1306(%rdi), %dl
	je	.L1313
	cmpb	1307(%rdi), %cl
	je	.L1314
	cmpb	1308(%rdi), %al
	je	.L1315
	cmpb	1309(%rdi), %dl
	je	.L1316
	cmpb	1310(%rdi), %cl
	je	.L1317
	cmpb	1311(%rdi), %al
	je	.L1318
	cmpb	1312(%rdi), %dl
	je	.L1319
	cmpb	1313(%rdi), %cl
	je	.L1320
	cmpb	1314(%rdi), %al
	je	.L1321
	cmpb	1315(%rdi), %dl
	je	.L1322
	cmpb	1316(%rdi), %cl
	je	.L1323
	cmpb	1317(%rdi), %al
	je	.L1324
	cmpb	1318(%rdi), %dl
	je	.L1325
	cmpb	1319(%rdi), %cl
	je	.L1326
	cmpb	1320(%rdi), %al
	je	.L1327
	cmpb	1321(%rdi), %dl
	je	.L1328
	cmpb	1322(%rdi), %cl
	je	.L1329
	cmpb	1323(%rdi), %al
	je	.L1330
	cmpb	1324(%rdi), %dl
	je	.L1331
	cmpb	1325(%rdi), %cl
	je	.L1332
	cmpb	1326(%rdi), %al
	je	.L1333
	cmpb	1327(%rdi), %dl
	je	.L1334
	cmpb	1328(%rdi), %cl
	je	.L1335
	cmpb	1329(%rdi), %al
	je	.L1336
	cmpb	1330(%rdi), %dl
	je	.L1337
	cmpb	1331(%rdi), %cl
	je	.L1338
	cmpb	1332(%rdi), %al
	je	.L1339
	cmpb	1333(%rdi), %dl
	je	.L1340
	cmpb	1334(%rdi), %cl
	je	.L1341
	cmpb	1335(%rdi), %al
	je	.L1342
	cmpb	1336(%rdi), %dl
	je	.L1343
	cmpb	1337(%rdi), %cl
	je	.L1344
	cmpb	1338(%rdi), %al
	je	.L1345
	cmpb	1339(%rdi), %dl
	je	.L1346
	cmpb	1340(%rdi), %cl
	je	.L1347
	cmpb	1341(%rdi), %al
	je	.L1348
	cmpb	1342(%rdi), %dl
	je	.L1349
	cmpb	1343(%rdi), %cl
	je	.L1350
	cmpb	1344(%rdi), %al
	je	.L1351
	cmpb	1345(%rdi), %dl
	je	.L1352
	cmpb	1346(%rdi), %cl
	je	.L1353
	cmpb	1347(%rdi), %al
	je	.L1354
	cmpb	1348(%rdi), %dl
	je	.L1355
	cmpb	1349(%rdi), %cl
	je	.L1356
	cmpb	1350(%rdi), %al
	je	.L1357
	cmpb	1351(%rdi), %dl
	je	.L1358
	cmpb	1352(%rdi), %cl
	je	.L1359
	cmpb	1353(%rdi), %al
	je	.L1360
	cmpb	1354(%rdi), %dl
	je	.L1361
	cmpb	1355(%rdi), %cl
	je	.L1362
	cmpb	1356(%rdi), %al
	je	.L1363
	cmpb	1357(%rdi), %dl
	je	.L1364
	cmpb	1358(%rdi), %cl
	je	.L1365
	cmpb	1359(%rdi), %al
	je	.L1366
	cmpb	1360(%rdi), %dl
	je	.L1367
	cmpb	1361(%rdi), %cl
	je	.L1368
	cmpb	1362(%rdi), %al
	je	.L1369
	cmpb	1363(%rdi), %dl
	je	.L1370
	cmpb	1364(%rdi), %cl
	je	.L1371
	cmpb	1365(%rdi), %al
	je	.L1372
	cmpb	1366(%rdi), %dl
	je	.L1373
	cmpb	1367(%rdi), %cl
	je	.L1374
	cmpb	1368(%rdi), %al
	je	.L1375
	cmpb	1369(%rdi), %dl
	je	.L1376
	cmpb	1370(%rdi), %cl
	je	.L1377
	cmpb	1371(%rdi), %al
	je	.L1378
	cmpb	1372(%rdi), %dl
	je	.L1379
	cmpb	1373(%rdi), %cl
	je	.L1380
	cmpb	1374(%rdi), %al
	je	.L1381
	cmpb	1375(%rdi), %dl
	je	.L1382
	cmpb	1376(%rdi), %cl
	je	.L1383
	cmpb	1377(%rdi), %al
	je	.L1384
	cmpb	1378(%rdi), %dl
	je	.L1385
	cmpb	1379(%rdi), %cl
	je	.L1386
	cmpb	1380(%rdi), %al
	je	.L1387
	cmpb	1381(%rdi), %dl
	je	.L1388
	cmpb	1382(%rdi), %cl
	je	.L1389
	cmpb	1383(%rdi), %al
	je	.L1390
	cmpb	1384(%rdi), %dl
	je	.L1391
	cmpb	1385(%rdi), %cl
	je	.L1392
	cmpb	1386(%rdi), %al
	je	.L1393
	cmpb	1387(%rdi), %dl
	je	.L1394
	cmpb	1388(%rdi), %cl
	je	.L1395
	cmpb	1389(%rdi), %al
	je	.L1396
	cmpb	1390(%rdi), %dl
	je	.L1397
	cmpb	1391(%rdi), %cl
	je	.L1398
	cmpb	1392(%rdi), %al
	je	.L1399
	cmpb	1393(%rdi), %dl
	je	.L1400
	cmpb	1394(%rdi), %cl
	je	.L1401
	cmpb	1395(%rdi), %al
	je	.L1402
	cmpb	1396(%rdi), %dl
	je	.L1403
	cmpb	1397(%rdi), %cl
	je	.L1404
	cmpb	1398(%rdi), %al
	je	.L1405
	cmpb	1399(%rdi), %dl
	je	.L1406
	cmpb	1400(%rdi), %cl
	je	.L1407
	cmpb	1401(%rdi), %al
	je	.L1408
	cmpb	1402(%rdi), %dl
	je	.L1409
	cmpb	1403(%rdi), %cl
	je	.L1410
	cmpb	1404(%rdi), %al
	je	.L1411
	cmpb	1405(%rdi), %dl
	je	.L1412
	cmpb	1406(%rdi), %cl
	je	.L1413
	cmpb	1407(%rdi), %al
	je	.L1414
	cmpb	1408(%rdi), %dl
	je	.L1415
	cmpb	1409(%rdi), %cl
	je	.L1416
	cmpb	1410(%rdi), %al
	je	.L1417
	cmpb	1411(%rdi), %dl
	je	.L1418
	cmpb	1412(%rdi), %cl
	je	.L1419
	cmpb	1413(%rdi), %al
	je	.L1420
	cmpb	1414(%rdi), %dl
	je	.L1421
	cmpb	1415(%rdi), %cl
	je	.L1422
	cmpb	1416(%rdi), %al
	je	.L1423
	cmpb	1417(%rdi), %dl
	je	.L1424
	cmpb	1418(%rdi), %cl
	je	.L1425
	cmpb	1419(%rdi), %al
	je	.L1426
	cmpb	1420(%rdi), %dl
	je	.L1427
	cmpb	1421(%rdi), %cl
	je	.L1428
	cmpb	1422(%rdi), %al
	je	.L1429
	cmpb	1423(%rdi), %dl
	je	.L1430
	cmpb	1424(%rdi), %cl
	je	.L1431
	cmpb	1425(%rdi), %al
	je	.L1432
	cmpb	1426(%rdi), %dl
	je	.L1433
	cmpb	1427(%rdi), %cl
	je	.L1434
	cmpb	1428(%rdi), %al
	je	.L1435
	cmpb	1429(%rdi), %dl
	je	.L1436
	cmpb	1430(%rdi), %cl
	je	.L1437
	cmpb	1431(%rdi), %al
	je	.L1438
	cmpb	1432(%rdi), %dl
	je	.L1439
	cmpb	1433(%rdi), %cl
	je	.L1440
	cmpb	1434(%rdi), %al
	je	.L1441
	cmpb	1435(%rdi), %dl
	je	.L1442
	cmpb	1436(%rdi), %cl
	je	.L1443
	cmpb	1437(%rdi), %al
	je	.L1444
	cmpb	1438(%rdi), %dl
	je	.L1445
	cmpb	1439(%rdi), %cl
	je	.L1446
	cmpb	1440(%rdi), %al
	je	.L1447
	cmpb	1441(%rdi), %dl
	je	.L1448
	cmpb	1442(%rdi), %cl
	je	.L1449
	cmpb	1443(%rdi), %al
	je	.L1450
	cmpb	1444(%rdi), %dl
	je	.L1451
	cmpb	1445(%rdi), %cl
	je	.L1452
	cmpb	1446(%rdi), %al
	je	.L1453
	cmpb	1447(%rdi), %dl
	je	.L1454
	cmpb	1448(%rdi), %cl
	je	.L1455
	cmpb	1449(%rdi), %al
	je	.L1456
	cmpb	1450(%rdi), %dl
	je	.L1457
	cmpb	1451(%rdi), %cl
	je	.L1458
	cmpb	1452(%rdi), %al
	je	.L1459
	cmpb	1453(%rdi), %dl
	je	.L1460
	cmpb	1454(%rdi), %cl
	je	.L1461
	cmpb	1455(%rdi), %al
	je	.L1462
	cmpb	1456(%rdi), %dl
	je	.L1463
	cmpb	1457(%rdi), %cl
	je	.L1464
	cmpb	1458(%rdi), %al
	je	.L1465
	cmpb	1459(%rdi), %dl
	je	.L1466
	cmpb	1460(%rdi), %cl
	je	.L1467
	cmpb	1461(%rdi), %al
	je	.L1468
	cmpb	1462(%rdi), %dl
	je	.L1469
	cmpb	1463(%rdi), %cl
	je	.L1470
	cmpb	1464(%rdi), %al
	je	.L1471
	cmpb	1465(%rdi), %dl
	je	.L1472
	cmpb	1466(%rdi), %cl
	je	.L1473
	cmpb	1467(%rdi), %al
	je	.L1474
	cmpb	1468(%rdi), %dl
	je	.L1475
	cmpb	1469(%rdi), %cl
	je	.L1476
	cmpb	1470(%rdi), %al
	je	.L1477
	cmpb	1471(%rdi), %dl
	je	.L1478
	cmpb	1472(%rdi), %cl
	je	.L1479
	cmpb	1473(%rdi), %al
	je	.L1480
	cmpb	1474(%rdi), %dl
	je	.L1481
	cmpb	1475(%rdi), %cl
	je	.L1482
	cmpb	1476(%rdi), %al
	je	.L1483
	cmpb	1477(%rdi), %dl
	je	.L1484
	cmpb	1478(%rdi), %cl
	je	.L1485
	cmpb	1479(%rdi), %al
	je	.L1486
	cmpb	1480(%rdi), %dl
	je	.L1487
	cmpb	1481(%rdi), %cl
	je	.L1488
	cmpb	1482(%rdi), %al
	je	.L1489
	cmpb	1483(%rdi), %dl
	je	.L1490
	cmpb	1484(%rdi), %cl
	je	.L1491
	cmpb	1485(%rdi), %al
	je	.L1492
	cmpb	1486(%rdi), %dl
	je	.L1493
	cmpb	1487(%rdi), %cl
	je	.L1494
	cmpb	1488(%rdi), %al
	je	.L1495
	cmpb	1489(%rdi), %dl
	je	.L1496
	cmpb	1490(%rdi), %cl
	je	.L1497
	cmpb	1491(%rdi), %al
	je	.L1498
	cmpb	1492(%rdi), %dl
	je	.L1499
	cmpb	1493(%rdi), %cl
	je	.L1500
	cmpb	1494(%rdi), %al
	je	.L1501
	cmpb	1495(%rdi), %dl
	je	.L1502
	cmpb	1496(%rdi), %cl
	je	.L1503
	cmpb	1497(%rdi), %al
	je	.L1504
	cmpb	1498(%rdi), %dl
	je	.L1505
	cmpb	1499(%rdi), %cl
	je	.L1506
	cmpb	1500(%rdi), %al
	je	.L1507
	cmpb	1501(%rdi), %dl
	je	.L1508
	cmpb	1502(%rdi), %cl
	je	.L1509
	cmpb	1503(%rdi), %al
	je	.L1510
	cmpb	1504(%rdi), %dl
	je	.L1511
	cmpb	1505(%rdi), %cl
	je	.L1512
	cmpb	1506(%rdi), %al
	je	.L1513
	cmpb	1507(%rdi), %dl
	je	.L1514
	cmpb	1508(%rdi), %cl
	je	.L1515
	cmpb	1509(%rdi), %al
	je	.L1516
	cmpb	1510(%rdi), %dl
	je	.L1517
	cmpb	1511(%rdi), %cl
	je	.L1518
	cmpb	1512(%rdi), %al
	je	.L1519
	cmpb	1513(%rdi), %dl
	je	.L1520
	cmpb	1514(%rdi), %cl
	je	.L1521
	cmpb	1515(%rdi), %al
	je	.L1522
	cmpb	1516(%rdi), %dl
	je	.L1523
	cmpb	1517(%rdi), %cl
	je	.L1524
	cmpb	1518(%rdi), %al
	je	.L1525
	cmpb	1519(%rdi), %dl
	je	.L1526
	cmpb	1520(%rdi), %cl
	je	.L1527
	cmpb	1521(%rdi), %al
	je	.L1528
	cmpb	1522(%rdi), %dl
	je	.L1529
	cmpb	1523(%rdi), %cl
	je	.L1530
	cmpb	1524(%rdi), %al
	je	.L1531
	cmpb	1525(%rdi), %dl
	je	.L1532
	cmpb	1526(%rdi), %cl
	je	.L1533
	cmpb	1527(%rdi), %al
	je	.L1534
	cmpb	1528(%rdi), %dl
	je	.L1535
	cmpb	1529(%rdi), %cl
	je	.L1536
	cmpb	1530(%rdi), %al
	je	.L1537
	cmpb	1531(%rdi), %dl
	je	.L1538
	cmpb	1532(%rdi), %cl
	je	.L1539
	cmpb	1533(%rdi), %al
	je	.L1540
	cmpb	1534(%rdi), %dl
	je	.L1541
	cmpb	1535(%rdi), %cl
	je	.L1542
	cmpb	1536(%rdi), %al
	je	.L1543
	cmpb	1537(%rdi), %dl
	je	.L1544
	cmpb	1538(%rdi), %cl
	je	.L1545
	cmpb	1539(%rdi), %al
	je	.L1546
	cmpb	1540(%rdi), %dl
	je	.L1547
	cmpb	1541(%rdi), %cl
	je	.L1548
	cmpb	1542(%rdi), %al
	je	.L1549
	cmpb	1543(%rdi), %dl
	je	.L1550
	cmpb	1544(%rdi), %cl
	je	.L1551
	cmpb	1545(%rdi), %al
	je	.L1552
	cmpb	1546(%rdi), %dl
	je	.L1553
	cmpb	1547(%rdi), %cl
	je	.L1554
	cmpb	1548(%rdi), %al
	je	.L1555
	cmpb	1549(%rdi), %dl
	je	.L1556
	cmpb	1550(%rdi), %cl
	je	.L1557
	cmpb	1551(%rdi), %al
	je	.L1558
	cmpb	1552(%rdi), %dl
	je	.L1559
	cmpb	1553(%rdi), %cl
	je	.L1560
	cmpb	1554(%rdi), %al
	je	.L1561
	cmpb	1555(%rdi), %dl
	je	.L1562
	cmpb	1556(%rdi), %cl
	je	.L1563
	cmpb	1557(%rdi), %al
	je	.L1564
	cmpb	1558(%rdi), %dl
	je	.L1565
	cmpb	1559(%rdi), %cl
	je	.L1566
	cmpb	1560(%rdi), %al
	je	.L1567
	cmpb	1561(%rdi), %dl
	je	.L1568
	cmpb	1562(%rdi), %cl
	je	.L1569
	cmpb	1563(%rdi), %al
	je	.L1570
	cmpb	1564(%rdi), %dl
	je	.L1571
	cmpb	1565(%rdi), %cl
	je	.L1572
	cmpb	1566(%rdi), %al
	je	.L1573
	cmpb	1567(%rdi), %dl
	je	.L1574
	cmpb	1568(%rdi), %cl
	je	.L1575
	cmpb	1569(%rdi), %al
	je	.L1576
	cmpb	1570(%rdi), %dl
	je	.L1577
	cmpb	1571(%rdi), %cl
	je	.L1578
	cmpb	1572(%rdi), %al
	je	.L1579
	cmpb	1573(%rdi), %dl
	je	.L1580
	cmpb	1574(%rdi), %cl
	je	.L1581
	cmpb	1575(%rdi), %al
	je	.L1582
	cmpb	1576(%rdi), %dl
	je	.L1583
	cmpb	1577(%rdi), %cl
	je	.L1584
	cmpb	1578(%rdi), %al
	je	.L1585
	cmpb	1579(%rdi), %dl
	je	.L1586
	cmpb	1580(%rdi), %cl
	je	.L1587
	cmpb	1581(%rdi), %al
	je	.L1588
	cmpb	1582(%rdi), %dl
	je	.L1589
	cmpb	1583(%rdi), %cl
	je	.L1590
	cmpb	1584(%rdi), %al
	je	.L1591
	cmpb	1585(%rdi), %dl
	je	.L1592
	cmpb	1586(%rdi), %cl
	je	.L1593
	cmpb	1587(%rdi), %al
	je	.L1594
	cmpb	1588(%rdi), %dl
	je	.L1595
	cmpb	1589(%rdi), %cl
	je	.L1596
	cmpb	1590(%rdi), %al
	je	.L1597
	cmpb	1591(%rdi), %dl
	je	.L1598
	cmpb	1592(%rdi), %cl
	je	.L1599
	cmpb	1593(%rdi), %al
	je	.L1600
	cmpb	1594(%rdi), %dl
	je	.L1601
	cmpb	1595(%rdi), %cl
	je	.L1602
	cmpb	1596(%rdi), %al
	je	.L1603
	cmpb	1597(%rdi), %dl
	je	.L1604
	cmpb	1598(%rdi), %cl
	je	.L1605
	cmpb	1599(%rdi), %al
	je	.L1606
	cmpb	1600(%rdi), %dl
	je	.L1607
	cmpb	1601(%rdi), %cl
	je	.L1608
	cmpb	1602(%rdi), %al
	je	.L1609
	cmpb	1603(%rdi), %dl
	je	.L1610
	cmpb	1604(%rdi), %cl
	je	.L1611
	cmpb	1605(%rdi), %al
	je	.L1612
	cmpb	1606(%rdi), %dl
	je	.L1613
	cmpb	1607(%rdi), %cl
	je	.L1614
	cmpb	1608(%rdi), %al
	je	.L1615
	cmpb	1609(%rdi), %dl
	je	.L1616
	cmpb	1610(%rdi), %cl
	je	.L1617
	cmpb	1611(%rdi), %al
	je	.L1618
	cmpb	1612(%rdi), %dl
	je	.L1619
	cmpb	1613(%rdi), %cl
	je	.L1620
	cmpb	1614(%rdi), %al
	je	.L1621
	cmpb	1615(%rdi), %dl
	je	.L1622
	cmpb	1616(%rdi), %cl
	je	.L1623
	cmpb	1617(%rdi), %al
	je	.L1624
	cmpb	1618(%rdi), %dl
	je	.L1625
	cmpb	1619(%rdi), %cl
	je	.L1626
	cmpb	1620(%rdi), %al
	je	.L1627
	cmpb	1621(%rdi), %dl
	je	.L1628
	cmpb	1622(%rdi), %cl
	je	.L1629
	cmpb	1623(%rdi), %al
	je	.L1630
	cmpb	1624(%rdi), %dl
	je	.L1631
	cmpb	1625(%rdi), %cl
	je	.L1632
	cmpb	1626(%rdi), %al
	je	.L1633
	cmpb	1627(%rdi), %dl
	je	.L1634
	cmpb	1628(%rdi), %cl
	je	.L1635
	cmpb	1629(%rdi), %al
	je	.L1636
	cmpb	1630(%rdi), %dl
	je	.L1637
	cmpb	1631(%rdi), %cl
	je	.L1638
	cmpb	1632(%rdi), %al
	je	.L1639
	cmpb	1633(%rdi), %dl
	je	.L1640
	cmpb	1634(%rdi), %cl
	je	.L1641
	cmpb	1635(%rdi), %al
	je	.L1642
	cmpb	1636(%rdi), %dl
	je	.L1643
	cmpb	1637(%rdi), %cl
	je	.L1644
	cmpb	1638(%rdi), %al
	je	.L1645
	cmpb	1639(%rdi), %dl
	je	.L1646
	cmpb	1640(%rdi), %cl
	je	.L1647
	cmpb	1641(%rdi), %al
	je	.L1648
	cmpb	1642(%rdi), %dl
	je	.L1649
	cmpb	1643(%rdi), %cl
	je	.L1650
	cmpb	1644(%rdi), %al
	je	.L1651
	cmpb	1645(%rdi), %dl
	je	.L1652
	cmpb	1646(%rdi), %cl
	je	.L1653
	cmpb	1647(%rdi), %al
	je	.L1654
	cmpb	1648(%rdi), %dl
	je	.L1655
	cmpb	1649(%rdi), %cl
	je	.L1656
	cmpb	1650(%rdi), %al
	je	.L1657
	cmpb	1651(%rdi), %dl
	je	.L1658
	cmpb	1652(%rdi), %cl
	je	.L1659
	cmpb	1653(%rdi), %al
	je	.L1660
	cmpb	1654(%rdi), %dl
	je	.L1661
	cmpb	1655(%rdi), %cl
	je	.L1662
	cmpb	1656(%rdi), %al
	je	.L1663
	cmpb	1657(%rdi), %dl
	je	.L1664
	cmpb	1658(%rdi), %cl
	je	.L1665
	cmpb	1659(%rdi), %al
	je	.L1666
	cmpb	1660(%rdi), %dl
	je	.L1667
	cmpb	1661(%rdi), %cl
	je	.L1668
	cmpb	1662(%rdi), %al
	je	.L1669
	cmpb	1663(%rdi), %dl
	je	.L1670
	cmpb	1664(%rdi), %cl
	je	.L1671
	cmpb	1665(%rdi), %al
	je	.L1672
	cmpb	1666(%rdi), %dl
	je	.L1673
	cmpb	1667(%rdi), %cl
	je	.L1674
	cmpb	1668(%rdi), %al
	je	.L1675
	cmpb	1669(%rdi), %dl
	je	.L1676
	cmpb	1670(%rdi), %cl
	je	.L1677
	cmpb	1671(%rdi), %al
	je	.L1678
	cmpb	1672(%rdi), %dl
	je	.L1679
	cmpb	1673(%rdi), %cl
	je	.L1680
	cmpb	1674(%rdi), %al
	je	.L1681
	cmpb	1675(%rdi), %dl
	je	.L1682
	cmpb	1676(%rdi), %cl
	je	.L1683
	cmpb	1677(%rdi), %al
	je	.L1684
	cmpb	1678(%rdi), %dl
	je	.L1685
	cmpb	1679(%rdi), %cl
	je	.L1686
	cmpb	1680(%rdi), %al
	je	.L1687
	cmpb	1681(%rdi), %dl
	je	.L1688
	cmpb	1682(%rdi), %cl
	je	.L1689
	cmpb	1683(%rdi), %al
	je	.L1690
	cmpb	1684(%rdi), %dl
	je	.L1691
	cmpb	1685(%rdi), %cl
	je	.L1692
	cmpb	1686(%rdi), %al
	je	.L1693
	cmpb	1687(%rdi), %dl
	je	.L1694
	cmpb	1688(%rdi), %cl
	je	.L1695
	cmpb	1689(%rdi), %al
	je	.L1696
	cmpb	1690(%rdi), %dl
	je	.L1697
	cmpb	1691(%rdi), %cl
	je	.L1698
	cmpb	1692(%rdi), %al
	je	.L1699
	cmpb	1693(%rdi), %dl
	je	.L1700
	cmpb	1694(%rdi), %cl
	je	.L1701
	cmpb	1695(%rdi), %al
	je	.L1702
	cmpb	1696(%rdi), %dl
	je	.L1703
	cmpb	1697(%rdi), %cl
	je	.L1704
	cmpb	1698(%rdi), %al
	je	.L1705
	cmpb	1699(%rdi), %dl
	je	.L1706
	cmpb	1700(%rdi), %cl
	je	.L1707
	cmpb	1701(%rdi), %al
	je	.L1708
	cmpb	1702(%rdi), %dl
	je	.L1709
	cmpb	1703(%rdi), %cl
	je	.L1710
	cmpb	1704(%rdi), %al
	je	.L1711
	cmpb	1705(%rdi), %dl
	je	.L1712
	cmpb	1706(%rdi), %cl
	je	.L1713
	cmpb	1707(%rdi), %al
	je	.L1714
	cmpb	1708(%rdi), %dl
	je	.L1715
	cmpb	1709(%rdi), %cl
	je	.L1716
	cmpb	1710(%rdi), %al
	je	.L1717
	cmpb	1711(%rdi), %dl
	je	.L1718
	cmpb	1712(%rdi), %cl
	je	.L1719
	cmpb	1713(%rdi), %al
	je	.L1720
	cmpb	1714(%rdi), %dl
	je	.L1721
	cmpb	1715(%rdi), %cl
	je	.L1722
	cmpb	1716(%rdi), %al
	je	.L1723
	cmpb	1717(%rdi), %dl
	je	.L1724
	cmpb	1718(%rdi), %cl
	je	.L1725
	cmpb	1719(%rdi), %al
	je	.L1726
	cmpb	1720(%rdi), %dl
	je	.L1727
	cmpb	1721(%rdi), %cl
	je	.L1728
	cmpb	1722(%rdi), %al
	je	.L1729
	cmpb	1723(%rdi), %dl
	je	.L1730
	cmpb	1724(%rdi), %cl
	je	.L1731
	cmpb	1725(%rdi), %al
	je	.L1732
	cmpb	1726(%rdi), %dl
	je	.L1733
	cmpb	1727(%rdi), %cl
	je	.L1734
	cmpb	1728(%rdi), %al
	je	.L1735
	cmpb	1729(%rdi), %dl
	je	.L1736
	cmpb	1730(%rdi), %cl
	je	.L1737
	cmpb	1731(%rdi), %al
	je	.L1738
	cmpb	1732(%rdi), %dl
	je	.L1739
	cmpb	1733(%rdi), %cl
	je	.L1740
	cmpb	1734(%rdi), %al
	je	.L1741
	cmpb	1735(%rdi), %dl
	je	.L1742
	cmpb	1736(%rdi), %cl
	je	.L1743
	cmpb	1737(%rdi), %al
	je	.L1744
	cmpb	1738(%rdi), %dl
	je	.L1745
	cmpb	1739(%rdi), %cl
	je	.L1746
	cmpb	1740(%rdi), %al
	je	.L1747
	cmpb	1741(%rdi), %dl
	je	.L1748
	cmpb	1742(%rdi), %cl
	je	.L1749
	cmpb	1743(%rdi), %al
	je	.L1750
	cmpb	1744(%rdi), %dl
	je	.L1751
	cmpb	1745(%rdi), %cl
	je	.L1752
	cmpb	1746(%rdi), %al
	je	.L1753
	cmpb	1747(%rdi), %dl
	je	.L1754
	cmpb	1748(%rdi), %cl
	je	.L1755
	cmpb	1749(%rdi), %al
	je	.L1756
	cmpb	1750(%rdi), %dl
	je	.L1757
	cmpb	1751(%rdi), %cl
	je	.L1758
	cmpb	1752(%rdi), %al
	je	.L1759
	cmpb	1753(%rdi), %dl
	je	.L1760
	cmpb	1754(%rdi), %cl
	je	.L1761
	cmpb	1755(%rdi), %al
	je	.L1762
	cmpb	1756(%rdi), %dl
	je	.L1763
	cmpb	1757(%rdi), %cl
	je	.L1764
	cmpb	1758(%rdi), %al
	je	.L1765
	cmpb	1759(%rdi), %dl
	je	.L1766
	cmpb	1760(%rdi), %cl
	je	.L1767
	cmpb	1761(%rdi), %al
	je	.L1768
	cmpb	1762(%rdi), %dl
	je	.L1769
	cmpb	1763(%rdi), %cl
	je	.L1770
	cmpb	1764(%rdi), %al
	je	.L1771
	cmpb	1765(%rdi), %dl
	je	.L1772
	cmpb	1766(%rdi), %cl
	je	.L1773
	cmpb	1767(%rdi), %al
	je	.L1774
	cmpb	1768(%rdi), %dl
	je	.L1775
	cmpb	1769(%rdi), %cl
	je	.L1776
	cmpb	1770(%rdi), %al
	je	.L1777
	cmpb	1771(%rdi), %dl
	je	.L1778
	cmpb	1772(%rdi), %cl
	je	.L1779
	cmpb	1773(%rdi), %al
	je	.L1780
	cmpb	1774(%rdi), %dl
	je	.L1781
	cmpb	1775(%rdi), %cl
	je	.L1782
	cmpb	1776(%rdi), %al
	je	.L1783
	cmpb	1777(%rdi), %dl
	je	.L1784
	cmpb	1778(%rdi), %cl
	je	.L1785
	cmpb	1779(%rdi), %al
	je	.L1786
	cmpb	1780(%rdi), %dl
	je	.L1787
	cmpb	1781(%rdi), %cl
	je	.L1788
	cmpb	1782(%rdi), %al
	je	.L1789
	cmpb	1783(%rdi), %dl
	je	.L1790
	cmpb	1784(%rdi), %cl
	je	.L1791
	cmpb	1785(%rdi), %al
	je	.L1792
	cmpb	1786(%rdi), %dl
	je	.L1793
	cmpb	1787(%rdi), %cl
	je	.L1794
	cmpb	1788(%rdi), %al
	je	.L1795
	cmpb	1789(%rdi), %dl
	je	.L1796
	cmpb	1790(%rdi), %cl
	je	.L1797
	cmpb	1791(%rdi), %al
	je	.L1798
	cmpb	1792(%rdi), %dl
	je	.L1799
	cmpb	1793(%rdi), %cl
	je	.L1800
	cmpb	1794(%rdi), %al
	je	.L1801
	cmpb	1795(%rdi), %dl
	je	.L1802
	cmpb	1796(%rdi), %cl
	je	.L1803
	cmpb	1797(%rdi), %al
	je	.L1804
	cmpb	1798(%rdi), %dl
	je	.L1805
	cmpb	1799(%rdi), %cl
	je	.L1806
	cmpb	1800(%rdi), %al
	je	.L1807
	cmpb	1801(%rdi), %dl
	je	.L1808
	cmpb	1802(%rdi), %cl
	je	.L1809
	cmpb	1803(%rdi), %al
	je	.L1810
	cmpb	1804(%rdi), %dl
	je	.L1811
	cmpb	1805(%rdi), %cl
	je	.L1812
	cmpb	1806(%rdi), %al
	je	.L1813
	cmpb	1807(%rdi), %dl
	je	.L1814
	cmpb	1808(%rdi), %cl
	je	.L1815
	cmpb	1809(%rdi), %al
	je	.L1816
	cmpb	1810(%rdi), %dl
	je	.L1817
	cmpb	1811(%rdi), %cl
	je	.L1818
	cmpb	1812(%rdi), %al
	je	.L1819
	cmpb	1813(%rdi), %dl
	je	.L1820
	cmpb	1814(%rdi), %cl
	je	.L1821
	cmpb	1815(%rdi), %al
	je	.L1822
	cmpb	1816(%rdi), %dl
	je	.L1823
	cmpb	1817(%rdi), %cl
	je	.L1824
	cmpb	1818(%rdi), %al
	je	.L1825
	cmpb	1819(%rdi), %dl
	je	.L1826
	cmpb	1820(%rdi), %cl
	je	.L1827
	cmpb	1821(%rdi), %al
	je	.L1828
	cmpb	1822(%rdi), %dl
	je	.L1829
	cmpb	1823(%rdi), %cl
	je	.L1830
	cmpb	1824(%rdi), %al
	je	.L1831
	cmpb	1825(%rdi), %dl
	je	.L1832
	cmpb	1826(%rdi), %cl
	je	.L1833
	cmpb	1827(%rdi), %al
	je	.L1834
	cmpb	1828(%rdi), %dl
	je	.L1835
	cmpb	1829(%rdi), %cl
	je	.L1836
	cmpb	1830(%rdi), %al
	je	.L1837
	cmpb	1831(%rdi), %dl
	je	.L1838
	cmpb	1832(%rdi), %cl
	je	.L1839
	cmpb	1833(%rdi), %al
	je	.L1840
	cmpb	1834(%rdi), %dl
	je	.L1841
	cmpb	1835(%rdi), %cl
	je	.L1842
	cmpb	1836(%rdi), %al
	je	.L1843
	cmpb	1837(%rdi), %dl
	je	.L1844
	cmpb	1838(%rdi), %cl
	je	.L1845
	cmpb	1839(%rdi), %al
	je	.L1846
	cmpb	1840(%rdi), %dl
	je	.L1847
	cmpb	1841(%rdi), %cl
	je	.L1848
	cmpb	1842(%rdi), %al
	je	.L1849
	cmpb	1843(%rdi), %dl
	je	.L1850
	cmpb	1844(%rdi), %cl
	je	.L1851
	cmpb	1845(%rdi), %al
	je	.L1852
	cmpb	1846(%rdi), %dl
	je	.L1853
	cmpb	1847(%rdi), %cl
	je	.L1854
	cmpb	1848(%rdi), %al
	je	.L1855
	cmpb	1849(%rdi), %dl
	je	.L1856
	cmpb	1850(%rdi), %cl
	je	.L1857
	cmpb	1851(%rdi), %al
	je	.L1858
	cmpb	1852(%rdi), %dl
	je	.L1859
	cmpb	1853(%rdi), %cl
	je	.L1860
	cmpb	1854(%rdi), %al
	je	.L1861
	cmpb	1855(%rdi), %dl
	je	.L1862
	cmpb	1856(%rdi), %cl
	je	.L1863
	cmpb	1857(%rdi), %al
	je	.L1864
	cmpb	1858(%rdi), %dl
	je	.L1865
	cmpb	1859(%rdi), %cl
	je	.L1866
	cmpb	1860(%rdi), %al
	je	.L1867
	cmpb	1861(%rdi), %dl
	je	.L1868
	cmpb	1862(%rdi), %cl
	je	.L1869
	cmpb	1863(%rdi), %al
	je	.L1870
	cmpb	1864(%rdi), %dl
	je	.L1871
	cmpb	1865(%rdi), %cl
	je	.L1872
	cmpb	1866(%rdi), %al
	je	.L1873
	cmpb	1867(%rdi), %dl
	je	.L1874
	cmpb	1868(%rdi), %cl
	je	.L1875
	cmpb	1869(%rdi), %al
	je	.L1876
	cmpb	1870(%rdi), %dl
	je	.L1877
	cmpb	1871(%rdi), %cl
	je	.L1878
	cmpb	1872(%rdi), %al
	je	.L1879
	cmpb	1873(%rdi), %dl
	je	.L1880
	cmpb	1874(%rdi), %cl
	je	.L1881
	cmpb	1875(%rdi), %al
	je	.L1882
	cmpb	1876(%rdi), %dl
	je	.L1883
	cmpb	1877(%rdi), %cl
	je	.L1884
	cmpb	1878(%rdi), %al
	je	.L1885
	cmpb	1879(%rdi), %dl
	je	.L1886
	cmpb	1880(%rdi), %cl
	je	.L1887
	cmpb	1881(%rdi), %al
	je	.L1888
	cmpb	1882(%rdi), %dl
	je	.L1889
	cmpb	1883(%rdi), %cl
	je	.L1890
	cmpb	1884(%rdi), %al
	je	.L1891
	cmpb	1885(%rdi), %dl
	je	.L1892
	cmpb	1886(%rdi), %cl
	je	.L1893
	cmpb	1887(%rdi), %al
	je	.L1894
	cmpb	1888(%rdi), %dl
	je	.L1895
	cmpb	1889(%rdi), %cl
	je	.L1896
	cmpb	1890(%rdi), %al
	je	.L1897
	cmpb	1891(%rdi), %dl
	je	.L1898
	cmpb	1892(%rdi), %cl
	je	.L1899
	cmpb	1893(%rdi), %al
	je	.L1900
	cmpb	1894(%rdi), %dl
	je	.L1901
	cmpb	1895(%rdi), %cl
	je	.L1902
	cmpb	1896(%rdi), %al
	je	.L1903
	cmpb	1897(%rdi), %dl
	je	.L1904
	cmpb	1898(%rdi), %cl
	je	.L1905
	cmpb	1899(%rdi), %al
	je	.L1906
	cmpb	1900(%rdi), %dl
	je	.L1907
	cmpb	1901(%rdi), %cl
	je	.L1908
	cmpb	1902(%rdi), %al
	je	.L1909
	cmpb	1903(%rdi), %dl
	je	.L1910
	cmpb	1904(%rdi), %cl
	je	.L1911
	cmpb	1905(%rdi), %al
	je	.L1912
	cmpb	1906(%rdi), %dl
	je	.L1913
	cmpb	1907(%rdi), %cl
	je	.L1914
	cmpb	1908(%rdi), %al
	je	.L1915
	cmpb	1909(%rdi), %dl
	je	.L1916
	cmpb	1910(%rdi), %cl
	je	.L1917
	cmpb	1911(%rdi), %al
	je	.L1918
	cmpb	1912(%rdi), %dl
	je	.L1919
	cmpb	1913(%rdi), %cl
	je	.L1920
	cmpb	1914(%rdi), %al
	je	.L1921
	cmpb	1915(%rdi), %dl
	je	.L1922
	cmpb	1916(%rdi), %cl
	je	.L1923
	cmpb	1917(%rdi), %al
	je	.L1924
	cmpb	1918(%rdi), %dl
	je	.L1925
	cmpb	1919(%rdi), %cl
	je	.L1926
	cmpb	1920(%rdi), %al
	je	.L1927
	cmpb	1921(%rdi), %dl
	je	.L1928
	cmpb	1922(%rdi), %cl
	je	.L1929
	cmpb	1923(%rdi), %al
	je	.L1930
	cmpb	1924(%rdi), %dl
	je	.L1931
	cmpb	1925(%rdi), %cl
	je	.L1932
	cmpb	1926(%rdi), %al
	je	.L1933
	cmpb	1927(%rdi), %dl
	je	.L1934
	cmpb	1928(%rdi), %cl
	je	.L1935
	cmpb	1929(%rdi), %al
	je	.L1936
	cmpb	1930(%rdi), %dl
	je	.L1937
	cmpb	1931(%rdi), %cl
	je	.L1938
	cmpb	1932(%rdi), %al
	je	.L1939
	cmpb	1933(%rdi), %dl
	je	.L1940
	cmpb	1934(%rdi), %cl
	je	.L1941
	cmpb	1935(%rdi), %al
	je	.L1942
	cmpb	1936(%rdi), %dl
	je	.L1943
	cmpb	1937(%rdi), %cl
	je	.L1944
	cmpb	1938(%rdi), %al
	je	.L1945
	cmpb	1939(%rdi), %dl
	je	.L1946
	cmpb	1940(%rdi), %cl
	je	.L1947
	cmpb	1941(%rdi), %al
	je	.L1948
	cmpb	1942(%rdi), %dl
	je	.L1949
	cmpb	1943(%rdi), %cl
	je	.L1950
	cmpb	1944(%rdi), %al
	je	.L1951
	cmpb	1945(%rdi), %dl
	je	.L1952
	cmpb	1946(%rdi), %cl
	je	.L1953
	cmpb	1947(%rdi), %al
	je	.L1954
	cmpb	1948(%rdi), %dl
	je	.L1955
	cmpb	1949(%rdi), %cl
	je	.L1956
	cmpb	1950(%rdi), %al
	je	.L1957
	cmpb	1951(%rdi), %dl
	je	.L1958
	cmpb	1952(%rdi), %cl
	je	.L1959
	cmpb	1953(%rdi), %al
	je	.L1960
	cmpb	1954(%rdi), %dl
	je	.L1961
	cmpb	1955(%rdi), %cl
	je	.L1962
	cmpb	1956(%rdi), %al
	je	.L1963
	cmpb	1957(%rdi), %dl
	je	.L1964
	cmpb	1958(%rdi), %cl
	je	.L1965
	cmpb	1959(%rdi), %al
	je	.L1966
	cmpb	1960(%rdi), %dl
	je	.L1967
	cmpb	1961(%rdi), %cl
	je	.L1968
	cmpb	1962(%rdi), %al
	je	.L1969
	cmpb	1963(%rdi), %dl
	je	.L1970
	cmpb	1964(%rdi), %cl
	je	.L1971
	cmpb	1965(%rdi), %al
	je	.L1972
	cmpb	1966(%rdi), %dl
	je	.L1973
	cmpb	1967(%rdi), %cl
	je	.L1974
	cmpb	1968(%rdi), %al
	je	.L1975
	cmpb	1969(%rdi), %dl
	je	.L1976
	cmpb	1970(%rdi), %cl
	je	.L1977
	cmpb	1971(%rdi), %al
	je	.L1978
	cmpb	1972(%rdi), %dl
	je	.L1979
	cmpb	1973(%rdi), %cl
	je	.L1980
	cmpb	1974(%rdi), %al
	je	.L1981
	cmpb	1975(%rdi), %dl
	je	.L1982
	cmpb	1976(%rdi), %cl
	je	.L1983
	cmpb	1977(%rdi), %al
	je	.L1984
	cmpb	1978(%rdi), %dl
	je	.L1985
	cmpb	1979(%rdi), %cl
	je	.L1986
	cmpb	1980(%rdi), %al
	je	.L1987
	cmpb	1981(%rdi), %dl
	je	.L1988
	cmpb	1982(%rdi), %cl
	je	.L1989
	cmpb	1983(%rdi), %al
	je	.L1990
	cmpb	1984(%rdi), %dl
	je	.L1991
	cmpb	1985(%rdi), %cl
	je	.L1992
	cmpb	1986(%rdi), %al
	je	.L1993
	cmpb	1987(%rdi), %dl
	je	.L1994
	cmpb	1988(%rdi), %cl
	je	.L1995
	cmpb	1989(%rdi), %al
	je	.L1996
	cmpb	1990(%rdi), %dl
	je	.L1997
	cmpb	1991(%rdi), %cl
	je	.L1998
	cmpb	1992(%rdi), %al
	je	.L1999
	cmpb	1993(%rdi), %dl
	je	.L2000
	cmpb	1994(%rdi), %cl
	je	.L2001
	cmpb	1995(%rdi), %al
	je	.L2002
	cmpb	1996(%rdi), %dl
	je	.L2003
	cmpb	1997(%rdi), %cl
	je	.L2004
	cmpb	1998(%rdi), %al
	je	.L2005
	cmpb	1999(%rdi), %dl
	je	.L2006
	cmpb	2000(%rdi), %cl
	je	.L2007
	cmpb	2001(%rdi), %al
	je	.L2008
	cmpb	2002(%rdi), %dl
	je	.L2009
	cmpb	2003(%rdi), %cl
	je	.L2010
	cmpb	2004(%rdi), %al
	je	.L2011
	cmpb	2005(%rdi), %dl
	je	.L2012
	cmpb	2006(%rdi), %cl
	je	.L2013
	cmpb	2007(%rdi), %al
	je	.L2014
	cmpb	2008(%rdi), %dl
	je	.L2015
	cmpb	2009(%rdi), %cl
	je	.L2016
	cmpb	2010(%rdi), %al
	je	.L2017
	cmpb	2011(%rdi), %dl
	je	.L2018
	cmpb	2012(%rdi), %cl
	je	.L2019
	cmpb	2013(%rdi), %al
	je	.L2020
	cmpb	2014(%rdi), %dl
	je	.L2021
	cmpb	2015(%rdi), %cl
	je	.L2022
	cmpb	2016(%rdi), %al
	je	.L2023
	cmpb	2017(%rdi), %dl
	je	.L2024
	cmpb	2018(%rdi), %cl
	je	.L2025
	cmpb	2019(%rdi), %al
	je	.L2026
	cmpb	2020(%rdi), %dl
	je	.L2027
	cmpb	2021(%rdi), %cl
	je	.L2028
	cmpb	2022(%rdi), %al
	je	.L2029
	cmpb	2023(%rdi), %dl
	je	.L2030
	cmpb	2024(%rdi), %cl
	je	.L2031
	cmpb	2025(%rdi), %al
	je	.L2032
	cmpb	2026(%rdi), %dl
	je	.L2033
	cmpb	2027(%rdi), %cl
	je	.L2034
	cmpb	2028(%rdi), %al
	je	.L2035
	cmpb	2029(%rdi), %dl
	je	.L2036
	cmpb	2030(%rdi), %cl
	je	.L2037
	cmpb	2031(%rdi), %al
	je	.L2038
	cmpb	2032(%rdi), %dl
	je	.L2039
	cmpb	2033(%rdi), %cl
	je	.L2040
	cmpb	2034(%rdi), %al
	je	.L2041
	cmpb	2035(%rdi), %dl
	je	.L2042
	cmpb	2036(%rdi), %cl
	je	.L2043
	cmpb	2037(%rdi), %al
	je	.L2044
	cmpb	2038(%rdi), %dl
	je	.L2045
	cmpb	2039(%rdi), %cl
	je	.L2046
	cmpb	2040(%rdi), %al
	je	.L2047
	cmpb	2041(%rdi), %dl
	je	.L2048
	cmpb	2042(%rdi), %cl
	je	.L2049
	cmpb	2043(%rdi), %al
	je	.L2050
	cmpb	2044(%rdi), %dl
	je	.L2051
	cmpb	2045(%rdi), %cl
	je	.L2052
	cmpb	2046(%rdi), %al
	je	.L2053
	cmpb	2047(%rdi), %dl
	je	.L2054
	cmpb	2048(%rdi), %cl
	je	.L2055
	cmpb	2049(%rdi), %al
	je	.L2056
	cmpb	2050(%rdi), %dl
	je	.L2057
	cmpb	2051(%rdi), %cl
	je	.L2058
	cmpb	2052(%rdi), %al
	je	.L2059
	cmpb	2053(%rdi), %dl
	je	.L2060
	cmpb	2054(%rdi), %cl
	je	.L2061
	cmpb	2055(%rdi), %al
	je	.L2062
	cmpb	2056(%rdi), %dl
	je	.L2063
	cmpb	2057(%rdi), %cl
	je	.L2064
	cmpb	2058(%rdi), %al
	je	.L2065
	cmpb	2059(%rdi), %dl
	je	.L2066
	cmpb	2060(%rdi), %cl
	je	.L2067
	cmpb	2061(%rdi), %al
	je	.L2068
	cmpb	2062(%rdi), %dl
	je	.L2069
	cmpb	2063(%rdi), %cl
	je	.L2070
	cmpb	2064(%rdi), %al
	je	.L2071
	cmpb	2065(%rdi), %dl
	je	.L2072
	cmpb	2066(%rdi), %cl
	je	.L2073
	cmpb	2067(%rdi), %al
	je	.L2074
	cmpb	2068(%rdi), %dl
	je	.L2075
	cmpb	2069(%rdi), %cl
	je	.L2076
	cmpb	2070(%rdi), %al
	je	.L2077
	cmpb	2071(%rdi), %dl
	je	.L2078
	cmpb	2072(%rdi), %cl
	je	.L2079
	cmpb	2073(%rdi), %al
	je	.L2080
	cmpb	2074(%rdi), %dl
	je	.L2081
	cmpb	2075(%rdi), %cl
	je	.L2082
	cmpb	2076(%rdi), %al
	je	.L2083
	cmpb	2077(%rdi), %dl
	je	.L2084
	cmpb	2078(%rdi), %cl
	je	.L2085
	cmpb	2079(%rdi), %al
	je	.L2086
	cmpb	2080(%rdi), %dl
	je	.L2087
	cmpb	2081(%rdi), %cl
	je	.L2088
	cmpb	2082(%rdi), %al
	je	.L2089
	cmpb	2083(%rdi), %dl
	je	.L2090
	cmpb	2084(%rdi), %cl
	je	.L2091
	cmpb	2085(%rdi), %al
	je	.L2092
	cmpb	2086(%rdi), %dl
	je	.L2093
	cmpb	2087(%rdi), %cl
	je	.L2094
	cmpb	2088(%rdi), %al
	je	.L2095
	cmpb	2089(%rdi), %dl
	je	.L2096
	cmpb	2090(%rdi), %cl
	je	.L2097
	cmpb	2091(%rdi), %al
	je	.L2098
	cmpb	2092(%rdi), %dl
	je	.L2099
	cmpb	2093(%rdi), %cl
	je	.L2100
	cmpb	2094(%rdi), %al
	je	.L2101
	cmpb	2095(%rdi), %dl
	je	.L2102
	cmpb	2096(%rdi), %cl
	je	.L2103
	cmpb	2097(%rdi), %al
	je	.L2104
	cmpb	2098(%rdi), %dl
	je	.L2105
	cmpb	2099(%rdi), %cl
	je	.L2106
	cmpb	2100(%rdi), %al
	je	.L2107
	cmpb	2101(%rdi), %dl
	je	.L2108
	cmpb	2102(%rdi), %cl
	je	.L2109
	cmpb	2103(%rdi), %al
	je	.L2110
	cmpb	2104(%rdi), %dl
	je	.L2111
	cmpb	2105(%rdi), %cl
	je	.L2112
	cmpb	2106(%rdi), %al
	je	.L2113
	cmpb	2107(%rdi), %dl
	je	.L2114
	cmpb	2108(%rdi), %cl
	je	.L2115
	cmpb	2109(%rdi), %al
	je	.L2116
	cmpb	2110(%rdi), %dl
	je	.L2117
	cmpb	2111(%rdi), %cl
	je	.L2118
	cmpb	2112(%rdi), %al
	je	.L2119
	cmpb	2113(%rdi), %dl
	je	.L2120
	cmpb	2114(%rdi), %cl
	je	.L2121
	cmpb	2115(%rdi), %al
	je	.L2122
	cmpb	2116(%rdi), %dl
	je	.L2123
	cmpb	2117(%rdi), %cl
	je	.L2124
	cmpb	2118(%rdi), %al
	je	.L2125
	cmpb	2119(%rdi), %dl
	je	.L2126
	cmpb	2120(%rdi), %cl
	je	.L2127
	cmpb	2121(%rdi), %al
	je	.L2128
	cmpb	2122(%rdi), %dl
	je	.L2129
	cmpb	2123(%rdi), %cl
	je	.L2130
	cmpb	2124(%rdi), %al
	je	.L2131
	cmpb	2125(%rdi), %dl
	je	.L2132
	cmpb	2126(%rdi), %cl
	je	.L2133
	cmpb	2127(%rdi), %al
	je	.L2134
	cmpb	2128(%rdi), %dl
	je	.L2135
	cmpb	2129(%rdi), %cl
	je	.L2136
	cmpb	2130(%rdi), %al
	je	.L2137
	cmpb	2131(%rdi), %dl
	je	.L2138
	cmpb	2132(%rdi), %cl
	je	.L2139
	cmpb	2133(%rdi), %al
	je	.L2140
	cmpb	2134(%rdi), %dl
	je	.L2141
	cmpb	2135(%rdi), %cl
	je	.L2142
	cmpb	2136(%rdi), %al
	je	.L2143
	cmpb	2137(%rdi), %dl
	je	.L2144
	cmpb	2138(%rdi), %cl
	je	.L2145
	cmpb	2139(%rdi), %al
	je	.L2146
	cmpb	2140(%rdi), %dl
	je	.L2147
	cmpb	2141(%rdi), %cl
	je	.L2148
	cmpb	2142(%rdi), %al
	je	.L2149
	cmpb	2143(%rdi), %dl
	je	.L2150
	cmpb	2144(%rdi), %cl
	je	.L2151
	cmpb	2145(%rdi), %al
	je	.L2152
	cmpb	2146(%rdi), %dl
	je	.L2153
	cmpb	2147(%rdi), %cl
	je	.L2154
	cmpb	2148(%rdi), %al
	je	.L2155
	cmpb	2149(%rdi), %dl
	je	.L2156
	cmpb	2150(%rdi), %cl
	je	.L2157
	cmpb	2151(%rdi), %al
	je	.L2158
	cmpb	2152(%rdi), %dl
	je	.L2159
	cmpb	2153(%rdi), %cl
	je	.L2160
	cmpb	2154(%rdi), %al
	je	.L2161
	cmpb	2155(%rdi), %dl
	je	.L2162
	cmpb	2156(%rdi), %cl
	je	.L2163
	cmpb	2157(%rdi), %al
	je	.L2164
	cmpb	2158(%rdi), %dl
	je	.L2165
	cmpb	2159(%rdi), %cl
	je	.L2166
	cmpb	2160(%rdi), %al
	je	.L2167
	cmpb	2161(%rdi), %dl
	je	.L2168
	cmpb	2162(%rdi), %cl
	je	.L2169
	cmpb	2163(%rdi), %al
	je	.L2170
	cmpb	2164(%rdi), %dl
	je	.L2171
	cmpb	2165(%rdi), %cl
	je	.L2172
	cmpb	2166(%rdi), %al
	je	.L2173
	cmpb	2167(%rdi), %dl
	je	.L2174
	cmpb	2168(%rdi), %cl
	je	.L2175
	cmpb	2169(%rdi), %al
	je	.L2176
	cmpb	2170(%rdi), %dl
	je	.L2177
	cmpb	2171(%rdi), %cl
	je	.L2178
	cmpb	2172(%rdi), %al
	je	.L2179
	cmpb	2173(%rdi), %dl
	je	.L2180
	cmpb	2174(%rdi), %cl
	je	.L2181
	cmpb	2175(%rdi), %al
	je	.L2182
	cmpb	2176(%rdi), %dl
	je	.L2183
	cmpb	2177(%rdi), %cl
	je	.L2184
	cmpb	2178(%rdi), %al
	je	.L2185
	cmpb	2179(%rdi), %dl
	je	.L2186
	cmpb	2180(%rdi), %cl
	je	.L2187
	cmpb	2181(%rdi), %al
	je	.L2188
	cmpb	2182(%rdi), %dl
	je	.L2189
	cmpb	2183(%rdi), %cl
	je	.L2190
	cmpb	2184(%rdi), %al
	je	.L2191
	cmpb	2185(%rdi), %dl
	je	.L2192
	cmpb	2186(%rdi), %cl
	je	.L2193
	cmpb	2187(%rdi), %al
	je	.L2194
	cmpb	2188(%rdi), %dl
	je	.L2195
	cmpb	2189(%rdi), %cl
	je	.L2196
	cmpb	2190(%rdi), %al
	je	.L2197
	cmpb	2191(%rdi), %dl
	je	.L2198
	cmpb	2192(%rdi), %cl
	je	.L2199
	cmpb	2193(%rdi), %al
	je	.L2200
	cmpb	2194(%rdi), %dl
	je	.L2201
	cmpb	2195(%rdi), %cl
	je	.L2202
	cmpb	2196(%rdi), %al
	je	.L2203
	cmpb	2197(%rdi), %dl
	je	.L2204
	cmpb	2198(%rdi), %cl
	je	.L2205
	cmpb	2199(%rdi), %al
	je	.L2206
	cmpb	2200(%rdi), %dl
	je	.L2207
	cmpb	2201(%rdi), %cl
	je	.L2208
	cmpb	2202(%rdi), %al
	je	.L2209
	cmpb	2203(%rdi), %dl
	je	.L2210
	cmpb	2204(%rdi), %cl
	je	.L2211
	cmpb	2205(%rdi), %al
	je	.L2212
	cmpb	2206(%rdi), %dl
	je	.L2213
	cmpb	2207(%rdi), %cl
	je	.L2214
	cmpb	2208(%rdi), %al
	je	.L2215
	cmpb	2209(%rdi), %dl
	je	.L2216
	cmpb	2210(%rdi), %cl
	je	.L2217
	cmpb	2211(%rdi), %al
	je	.L2218
	cmpb	2212(%rdi), %dl
	je	.L2219
	cmpb	2213(%rdi), %cl
	je	.L2220
	cmpb	2214(%rdi), %al
	je	.L2221
	cmpb	2215(%rdi), %dl
	je	.L2222
	cmpb	2216(%rdi), %cl
	je	.L2223
	cmpb	2217(%rdi), %al
	je	.L2224
	cmpb	2218(%rdi), %dl
	je	.L2225
	cmpb	2219(%rdi), %cl
	je	.L2226
	cmpb	2220(%rdi), %al
	je	.L2227
	cmpb	2221(%rdi), %dl
	je	.L2228
	cmpb	2222(%rdi), %cl
	je	.L2229
	cmpb	2223(%rdi), %al
	je	.L2230
	cmpb	2224(%rdi), %dl
	je	.L2231
	cmpb	2225(%rdi), %cl
	je	.L2232
	cmpb	2226(%rdi), %al
	je	.L2233
	cmpb	2227(%rdi), %dl
	je	.L2234
	cmpb	2228(%rdi), %cl
	je	.L2235
	cmpb	2229(%rdi), %al
	je	.L2236
	cmpb	2230(%rdi), %dl
	je	.L2237
	cmpb	2231(%rdi), %cl
	je	.L2238
	cmpb	2232(%rdi), %al
	je	.L2239
	cmpb	2233(%rdi), %dl
	je	.L2240
	cmpb	2234(%rdi), %cl
	je	.L2241
	cmpb	2235(%rdi), %al
	je	.L2242
	cmpb	2236(%rdi), %dl
	je	.L2243
	cmpb	2237(%rdi), %cl
	je	.L2244
	cmpb	2238(%rdi), %al
	je	.L2245
	cmpb	2239(%rdi), %dl
	je	.L2246
	cmpb	2240(%rdi), %cl
	je	.L2247
	cmpb	2241(%rdi), %al
	je	.L2248
	cmpb	2242(%rdi), %dl
	je	.L2249
	cmpb	2243(%rdi), %cl
	je	.L2250
	cmpb	2244(%rdi), %al
	je	.L2251
	cmpb	2245(%rdi), %dl
	je	.L2252
	cmpb	2246(%rdi), %cl
	je	.L2253
	cmpb	2247(%rdi), %al
	je	.L2254
	cmpb	2248(%rdi), %dl
	je	.L2255
	cmpb	2249(%rdi), %cl
	je	.L2256
	cmpb	2250(%rdi), %al
	je	.L2257
	cmpb	2251(%rdi), %dl
	je	.L2258
	cmpb	2252(%rdi), %cl
	je	.L2259
	cmpb	2253(%rdi), %al
	je	.L2260
	cmpb	2254(%rdi), %dl
	je	.L2261
	cmpb	2255(%rdi), %cl
	je	.L2262
	cmpb	2256(%rdi), %al
	je	.L2263
	cmpb	2257(%rdi), %dl
	je	.L2264
	cmpb	2258(%rdi), %cl
	je	.L2265
	cmpb	2259(%rdi), %al
	je	.L2266
	cmpb	2260(%rdi), %dl
	je	.L2267
	cmpb	2261(%rdi), %cl
	je	.L2268
	cmpb	2262(%rdi), %al
	je	.L2269
	cmpb	2263(%rdi), %dl
	je	.L2270
	cmpb	2264(%rdi), %cl
	je	.L2271
	cmpb	2265(%rdi), %al
	je	.L2272
	cmpb	2266(%rdi), %dl
	je	.L2273
	cmpb	2267(%rdi), %cl
	je	.L2274
	cmpb	2268(%rdi), %al
	je	.L2275
	cmpb	2269(%rdi), %dl
	je	.L2276
	cmpb	2270(%rdi), %cl
	je	.L2277
	cmpb	2271(%rdi), %al
	je	.L2278
	cmpb	2272(%rdi), %dl
	je	.L2279
	cmpb	2273(%rdi), %cl
	je	.L2280
	cmpb	2274(%rdi), %al
	je	.L2281
	cmpb	2275(%rdi), %dl
	je	.L2282
	cmpb	2276(%rdi), %cl
	je	.L2283
	cmpb	2277(%rdi), %al
	je	.L2284
	cmpb	2278(%rdi), %dl
	je	.L2285
	cmpb	2279(%rdi), %cl
	je	.L2286
	cmpb	2280(%rdi), %al
	je	.L2287
	cmpb	2281(%rdi), %dl
	je	.L2288
	cmpb	2282(%rdi), %cl
	je	.L2289
	cmpb	2283(%rdi), %al
	je	.L2290
	cmpb	2284(%rdi), %dl
	je	.L2291
	cmpb	2285(%rdi), %cl
	je	.L2292
	cmpb	2286(%rdi), %al
	je	.L2293
	cmpb	2287(%rdi), %dl
	je	.L2294
	cmpb	2288(%rdi), %cl
	je	.L2295
	cmpb	2289(%rdi), %al
	je	.L2296
	cmpb	2290(%rdi), %dl
	je	.L2297
	cmpb	2291(%rdi), %cl
	je	.L2298
	cmpb	2292(%rdi), %al
	je	.L2299
	cmpb	2293(%rdi), %dl
	je	.L2300
	cmpb	2294(%rdi), %cl
	je	.L2301
	cmpb	2295(%rdi), %al
	je	.L2302
	cmpb	2296(%rdi), %dl
	je	.L2303
	cmpb	2297(%rdi), %cl
	je	.L2304
	cmpb	2298(%rdi), %al
	je	.L2305
	cmpb	2299(%rdi), %dl
	je	.L2306
	cmpb	2300(%rdi), %cl
	je	.L2307
	cmpb	2301(%rdi), %al
	je	.L2308
	cmpb	2302(%rdi), %dl
	je	.L2309
	cmpb	2303(%rdi), %cl
	je	.L2310
	cmpb	2304(%rdi), %al
	je	.L2311
	cmpb	2305(%rdi), %dl
	je	.L2312
	cmpb	2306(%rdi), %cl
	je	.L2313
	cmpb	2307(%rdi), %al
	je	.L2314
	cmpb	2308(%rdi), %dl
	je	.L2315
	cmpb	2309(%rdi), %cl
	je	.L2316
	cmpb	2310(%rdi), %al
	je	.L2317
	cmpb	2311(%rdi), %dl
	je	.L2318
	cmpb	2312(%rdi), %cl
	je	.L2319
	cmpb	2313(%rdi), %al
	je	.L2320
	cmpb	2314(%rdi), %dl
	je	.L2321
	cmpb	2315(%rdi), %cl
	je	.L2322
	cmpb	2316(%rdi), %al
	je	.L2323
	cmpb	2317(%rdi), %dl
	je	.L2324
	cmpb	2318(%rdi), %cl
	je	.L2325
	cmpb	2319(%rdi), %al
	je	.L2326
	cmpb	2320(%rdi), %dl
	je	.L2327
	cmpb	2321(%rdi), %cl
	je	.L2328
	cmpb	2322(%rdi), %al
	je	.L2329
	cmpb	2323(%rdi), %dl
	je	.L2330
	cmpb	2324(%rdi), %cl
	je	.L2331
	cmpb	2325(%rdi), %al
	je	.L2332
	cmpb	2326(%rdi), %dl
	je	.L2333
	cmpb	2327(%rdi), %cl
	je	.L2334
	cmpb	2328(%rdi), %al
	je	.L2335
	cmpb	2329(%rdi), %dl
	je	.L2336
	cmpb	2330(%rdi), %cl
	je	.L2337
	cmpb	2331(%rdi), %al
	je	.L2338
	cmpb	2332(%rdi), %dl
	je	.L2339
	cmpb	2333(%rdi), %cl
	je	.L2340
	cmpb	2334(%rdi), %al
	je	.L2341
	cmpb	2335(%rdi), %dl
	je	.L2342
	cmpb	2336(%rdi), %cl
	je	.L2343
	cmpb	2337(%rdi), %al
	je	.L2344
	cmpb	2338(%rdi), %dl
	je	.L2345
	cmpb	2339(%rdi), %cl
	je	.L2346
	cmpb	2340(%rdi), %al
	je	.L2347
	cmpb	2341(%rdi), %dl
	je	.L2348
	cmpb	2342(%rdi), %cl
	je	.L2349
	cmpb	2343(%rdi), %al
	je	.L2350
	cmpb	2344(%rdi), %dl
	je	.L2351
	cmpb	2345(%rdi), %cl
	je	.L2352
	cmpb	2346(%rdi), %al
	je	.L2353
	cmpb	2347(%rdi), %dl
	je	.L2354
	cmpb	2348(%rdi), %cl
	je	.L2355
	cmpb	2349(%rdi), %al
	je	.L2356
	cmpb	2350(%rdi), %dl
	je	.L2357
	cmpb	2351(%rdi), %cl
	je	.L2358
	cmpb	2352(%rdi), %al
	je	.L2359
	cmpb	2353(%rdi), %dl
	je	.L2360
	cmpb	2354(%rdi), %cl
	je	.L2361
	cmpb	2355(%rdi), %al
	je	.L2362
	cmpb	2356(%rdi), %dl
	je	.L2363
	cmpb	2357(%rdi), %cl
	je	.L2364
	cmpb	2358(%rdi), %al
	je	.L2365
	cmpb	2359(%rdi), %dl
	je	.L2366
	cmpb	2360(%rdi), %cl
	je	.L2367
	cmpb	2361(%rdi), %al
	je	.L2368
	cmpb	2362(%rdi), %dl
	je	.L2369
	cmpb	2363(%rdi), %cl
	je	.L2370
	cmpb	2364(%rdi), %al
	je	.L2371
	cmpb	2365(%rdi), %dl
	je	.L2372
	cmpb	2366(%rdi), %cl
	je	.L2373
	cmpb	2367(%rdi), %al
	je	.L2374
	cmpb	2368(%rdi), %dl
	je	.L2375
	cmpb	2369(%rdi), %cl
	je	.L2376
	cmpb	2370(%rdi), %al
	je	.L2377
	cmpb	2371(%rdi), %dl
	je	.L2378
	cmpb	2372(%rdi), %cl
	je	.L2379
	cmpb	2373(%rdi), %al
	je	.L2380
	cmpb	2374(%rdi), %dl
	je	.L2381
	cmpb	2375(%rdi), %cl
	je	.L2382
	cmpb	2376(%rdi), %al
	je	.L2383
	cmpb	2377(%rdi), %dl
	je	.L2384
	cmpb	2378(%rdi), %cl
	je	.L2385
	cmpb	2379(%rdi), %al
	je	.L2386
	cmpb	2380(%rdi), %dl
	je	.L2387
	cmpb	2381(%rdi), %cl
	je	.L2388
	cmpb	2382(%rdi), %al
	je	.L2389
	cmpb	2383(%rdi), %dl
	je	.L2390
	cmpb	2384(%rdi), %cl
	je	.L2391
	cmpb	2385(%rdi), %al
	je	.L2392
	cmpb	2386(%rdi), %dl
	je	.L2393
	cmpb	2387(%rdi), %cl
	je	.L2394
	cmpb	2388(%rdi), %al
	je	.L2395
	cmpb	2389(%rdi), %dl
	je	.L2396
	cmpb	2390(%rdi), %cl
	je	.L2397
	cmpb	2391(%rdi), %al
	je	.L2398
	cmpb	2392(%rdi), %dl
	je	.L2399
	cmpb	2393(%rdi), %cl
	je	.L2400
	cmpb	2394(%rdi), %al
	je	.L2401
	cmpb	2395(%rdi), %dl
	je	.L2402
	cmpb	2396(%rdi), %cl
	je	.L2403
	cmpb	2397(%rdi), %al
	je	.L2404
	cmpb	2398(%rdi), %dl
	je	.L2405
	cmpb	2399(%rdi), %cl
	je	.L2406
	cmpb	2400(%rdi), %al
	je	.L2407
	cmpb	2401(%rdi), %dl
	je	.L2408
	cmpb	2402(%rdi), %cl
	je	.L2409
	cmpb	2403(%rdi), %al
	je	.L2410
	cmpb	2404(%rdi), %dl
	je	.L2411
	cmpb	2405(%rdi), %cl
	je	.L2412
	cmpb	2406(%rdi), %al
	je	.L2413
	cmpb	2407(%rdi), %dl
	je	.L2414
	cmpb	2408(%rdi), %cl
	je	.L2415
	cmpb	2409(%rdi), %al
	je	.L2416
	cmpb	2410(%rdi), %dl
	je	.L2417
	cmpb	2411(%rdi), %cl
	je	.L2418
	cmpb	2412(%rdi), %al
	je	.L2419
	cmpb	2413(%rdi), %dl
	je	.L2420
	cmpb	2414(%rdi), %cl
	je	.L2421
	cmpb	2415(%rdi), %al
	je	.L2422
	cmpb	2416(%rdi), %dl
	je	.L2423
	cmpb	2417(%rdi), %cl
	je	.L2424
	cmpb	2418(%rdi), %al
	je	.L2425
	cmpb	2419(%rdi), %dl
	je	.L2426
	cmpb	2420(%rdi), %cl
	je	.L2427
	cmpb	2421(%rdi), %al
	je	.L2428
	cmpb	2422(%rdi), %dl
	je	.L2429
	cmpb	2423(%rdi), %cl
	je	.L2430
	cmpb	2424(%rdi), %al
	je	.L2431
	cmpb	2425(%rdi), %dl
	je	.L2432
	cmpb	2426(%rdi), %cl
	je	.L2433
	cmpb	2427(%rdi), %al
	je	.L2434
	cmpb	2428(%rdi), %dl
	je	.L2435
	cmpb	2429(%rdi), %cl
	je	.L2436
	cmpb	2430(%rdi), %al
	je	.L2437
	cmpb	2431(%rdi), %dl
	je	.L2438
	cmpb	2432(%rdi), %cl
	je	.L2439
	cmpb	2433(%rdi), %al
	je	.L2440
	cmpb	2434(%rdi), %dl
	je	.L2441
	cmpb	2435(%rdi), %cl
	je	.L2442
	cmpb	2436(%rdi), %al
	je	.L2443
	cmpb	2437(%rdi), %dl
	je	.L2444
	cmpb	2438(%rdi), %cl
	je	.L2445
	cmpb	2439(%rdi), %al
	je	.L2446
	cmpb	2440(%rdi), %dl
	je	.L2447
	cmpb	2441(%rdi), %cl
	je	.L2448
	cmpb	2442(%rdi), %al
	je	.L2449
	cmpb	2443(%rdi), %dl
	je	.L2450
	cmpb	2444(%rdi), %cl
	je	.L2451
	cmpb	2445(%rdi), %al
	je	.L2452
	cmpb	2446(%rdi), %dl
	je	.L2453
	cmpb	2447(%rdi), %cl
	je	.L2454
	cmpb	2448(%rdi), %al
	je	.L2455
	cmpb	2449(%rdi), %dl
	je	.L2456
	cmpb	2450(%rdi), %cl
	je	.L2457
	cmpb	2451(%rdi), %al
	je	.L2458
	cmpb	2452(%rdi), %dl
	je	.L2459
	cmpb	2453(%rdi), %cl
	je	.L2460
	cmpb	2454(%rdi), %al
	je	.L2461
	cmpb	2455(%rdi), %dl
	je	.L2462
	cmpb	2456(%rdi), %cl
	je	.L2463
	cmpb	2457(%rdi), %al
	je	.L2464
	cmpb	2458(%rdi), %dl
	je	.L2465
	cmpb	2459(%rdi), %cl
	je	.L2466
	cmpb	2460(%rdi), %al
	je	.L2467
	cmpb	2461(%rdi), %dl
	je	.L2468
	cmpb	2462(%rdi), %cl
	je	.L2469
	cmpb	2463(%rdi), %al
	je	.L2470
	cmpb	2464(%rdi), %dl
	je	.L2471
	cmpb	2465(%rdi), %cl
	je	.L2472
	cmpb	2466(%rdi), %al
	je	.L2473
	cmpb	2467(%rdi), %dl
	je	.L2474
	cmpb	2468(%rdi), %cl
	je	.L2475
	cmpb	2469(%rdi), %al
	je	.L2476
	cmpb	2470(%rdi), %dl
	je	.L2477
	cmpb	2471(%rdi), %cl
	je	.L2478
	cmpb	2472(%rdi), %al
	je	.L2479
	cmpb	2473(%rdi), %dl
	je	.L2480
	cmpb	2474(%rdi), %cl
	je	.L2481
	cmpb	2475(%rdi), %al
	je	.L2482
	cmpb	2476(%rdi), %dl
	je	.L2483
	cmpb	2477(%rdi), %cl
	je	.L2484
	cmpb	2478(%rdi), %al
	je	.L2485
	cmpb	2479(%rdi), %dl
	je	.L2486
	cmpb	2480(%rdi), %cl
	je	.L2487
	cmpb	2481(%rdi), %al
	je	.L2488
	cmpb	2482(%rdi), %dl
	je	.L2489
	cmpb	2483(%rdi), %cl
	je	.L2490
	cmpb	2484(%rdi), %al
	je	.L2491
	cmpb	2485(%rdi), %dl
	je	.L2492
	cmpb	2486(%rdi), %cl
	je	.L2493
	cmpb	2487(%rdi), %al
	je	.L2494
	cmpb	2488(%rdi), %dl
	je	.L2495
	cmpb	2489(%rdi), %cl
	je	.L2496
	cmpb	2490(%rdi), %al
	je	.L2497
	cmpb	2491(%rdi), %dl
	je	.L2498
	cmpb	2492(%rdi), %cl
	je	.L2499
	cmpb	2493(%rdi), %al
	je	.L2500
	cmpb	2494(%rdi), %dl
	je	.L2501
	cmpb	2495(%rdi), %cl
	je	.L2502
	cmpb	2496(%rdi), %al
	je	.L2503
	cmpb	2497(%rdi), %dl
	je	.L2504
	cmpb	2498(%rdi), %cl
	je	.L2505
	cmpb	2499(%rdi), %al
	je	.L2506
	cmpb	2500(%rdi), %dl
	je	.L2507
	cmpb	2501(%rdi), %cl
	je	.L2508
	cmpb	2502(%rdi), %al
	je	.L2509
	cmpb	2503(%rdi), %dl
	je	.L2510
	cmpb	2504(%rdi), %cl
	je	.L2511
	cmpb	2505(%rdi), %al
	je	.L2512
	cmpb	2506(%rdi), %dl
	je	.L2513
	cmpb	2507(%rdi), %cl
	je	.L2514
	cmpb	2508(%rdi), %al
	je	.L2515
	cmpb	2509(%rdi), %dl
	je	.L2516
	cmpb	2510(%rdi), %cl
	je	.L2517
	cmpb	2511(%rdi), %al
	je	.L2518
	cmpb	2512(%rdi), %dl
	je	.L2519
	cmpb	2513(%rdi), %cl
	je	.L2520
	cmpb	2514(%rdi), %al
	je	.L2521
	cmpb	2515(%rdi), %dl
	je	.L2522
	cmpb	2516(%rdi), %cl
	je	.L2523
	cmpb	2517(%rdi), %al
	je	.L2524
	cmpb	2518(%rdi), %dl
	je	.L2525
	cmpb	2519(%rdi), %cl
	je	.L2526
	cmpb	2520(%rdi), %al
	je	.L2527
	cmpb	2521(%rdi), %dl
	je	.L2528
	cmpb	2522(%rdi), %cl
	je	.L2529
	cmpb	2523(%rdi), %al
	je	.L2530
	cmpb	2524(%rdi), %dl
	je	.L2531
	cmpb	2525(%rdi), %cl
	je	.L2532
	cmpb	2526(%rdi), %al
	je	.L2533
	cmpb	2527(%rdi), %dl
	je	.L2534
	cmpb	2528(%rdi), %cl
	je	.L2535
	cmpb	2529(%rdi), %al
	je	.L2536
	cmpb	2530(%rdi), %dl
	je	.L2537
	cmpb	2531(%rdi), %cl
	je	.L2538
	cmpb	2532(%rdi), %al
	je	.L2539
	cmpb	2533(%rdi), %dl
	je	.L2540
	cmpb	2534(%rdi), %cl
	je	.L2541
	cmpb	2535(%rdi), %al
	je	.L2542
	cmpb	2536(%rdi), %dl
	je	.L2543
	cmpb	2537(%rdi), %cl
	je	.L2544
	cmpb	2538(%rdi), %al
	je	.L2545
	cmpb	2539(%rdi), %dl
	je	.L2546
	cmpb	2540(%rdi), %cl
	je	.L2547
	cmpb	2541(%rdi), %al
	je	.L2548
	cmpb	2542(%rdi), %dl
	je	.L2549
	cmpb	2543(%rdi), %cl
	je	.L2550
	cmpb	2544(%rdi), %al
	je	.L2551
	cmpb	2545(%rdi), %dl
	je	.L2552
	cmpb	2546(%rdi), %cl
	je	.L2553
	cmpb	2547(%rdi), %al
	je	.L2554
	cmpb	2548(%rdi), %dl
	je	.L2555
	cmpb	2549(%rdi), %cl
	je	.L2556
	cmpb	2550(%rdi), %al
	je	.L2557
	cmpb	2551(%rdi), %dl
	je	.L2558
	cmpb	2552(%rdi), %cl
	je	.L2559
	cmpb	2553(%rdi), %al
	je	.L2560
	cmpb	2554(%rdi), %dl
	je	.L2561
	cmpb	2555(%rdi), %cl
	je	.L2562
	cmpb	2556(%rdi), %al
	je	.L2563
	cmpb	2557(%rdi), %dl
	je	.L2564
	cmpb	2558(%rdi), %cl
	je	.L2565
	cmpb	2559(%rdi), %al
	je	.L2566
	cmpb	2560(%rdi), %dl
	je	.L2567
	cmpb	2561(%rdi), %cl
	je	.L2568
	cmpb	2562(%rdi), %al
	je	.L2569
	cmpb	2563(%rdi), %dl
	je	.L2570
	cmpb	2564(%rdi), %cl
	je	.L2571
	cmpb	2565(%rdi), %al
	je	.L2572
	cmpb	2566(%rdi), %dl
	je	.L2573
	cmpb	2567(%rdi), %cl
	je	.L2574
	cmpb	2568(%rdi), %al
	je	.L2575
	cmpb	2569(%rdi), %dl
	je	.L2576
	cmpb	2570(%rdi), %cl
	je	.L2577
	cmpb	2571(%rdi), %al
	je	.L2578
	cmpb	2572(%rdi), %dl
	je	.L2579
	cmpb	2573(%rdi), %cl
	je	.L2580
	cmpb	2574(%rdi), %al
	je	.L2581
	cmpb	2575(%rdi), %dl
	je	.L2582
	cmpb	2576(%rdi), %cl
	je	.L2583
	cmpb	2577(%rdi), %al
	je	.L2584
	cmpb	2578(%rdi), %dl
	je	.L2585
	cmpb	2579(%rdi), %cl
	je	.L2586
	cmpb	2580(%rdi), %al
	je	.L2587
	cmpb	2581(%rdi), %dl
	je	.L2588
	cmpb	2582(%rdi), %cl
	je	.L2589
	cmpb	2583(%rdi), %al
	je	.L2590
	cmpb	2584(%rdi), %dl
	je	.L2591
	cmpb	2585(%rdi), %cl
	je	.L2592
	cmpb	2586(%rdi), %al
	je	.L2593
	cmpb	2587(%rdi), %dl
	je	.L2594
	cmpb	2588(%rdi), %cl
	je	.L2595
	cmpb	2589(%rdi), %al
	je	.L2596
	cmpb	2590(%rdi), %dl
	je	.L2597
	cmpb	2591(%rdi), %cl
	je	.L2598
	cmpb	2592(%rdi), %al
	je	.L2599
	cmpb	2593(%rdi), %dl
	je	.L2600
	cmpb	2594(%rdi), %cl
	je	.L2601
	cmpb	2595(%rdi), %al
	je	.L2602
	cmpb	2596(%rdi), %dl
	je	.L2603
	cmpb	2597(%rdi), %cl
	je	.L2604
	cmpb	2598(%rdi), %al
	je	.L2605
	cmpb	2599(%rdi), %dl
	je	.L2606
	cmpb	2600(%rdi), %cl
	je	.L2607
	cmpb	2601(%rdi), %al
	je	.L2608
	cmpb	2602(%rdi), %dl
	je	.L2609
	cmpb	2603(%rdi), %cl
	je	.L2610
	cmpb	2604(%rdi), %al
	je	.L2611
	cmpb	2605(%rdi), %dl
	je	.L2612
	cmpb	2606(%rdi), %cl
	je	.L2613
	cmpb	2607(%rdi), %al
	je	.L2614
	cmpb	2608(%rdi), %dl
	je	.L2615
	cmpb	2609(%rdi), %cl
	je	.L2616
	cmpb	2610(%rdi), %al
	je	.L2617
	cmpb	2611(%rdi), %dl
	je	.L2618
	cmpb	2612(%rdi), %cl
	je	.L2619
	cmpb	2613(%rdi), %al
	je	.L2620
	cmpb	2614(%rdi), %dl
	je	.L2621
	cmpb	2615(%rdi), %cl
	je	.L2622
	cmpb	2616(%rdi), %al
	je	.L2623
	cmpb	2617(%rdi), %dl
	je	.L2624
	cmpb	2618(%rdi), %cl
	je	.L2625
	cmpb	2619(%rdi), %al
	je	.L2626
	cmpb	2620(%rdi), %dl
	je	.L2627
	cmpb	2621(%rdi), %cl
	je	.L2628
	cmpb	2622(%rdi), %al
	je	.L2629
	cmpb	2623(%rdi), %dl
	je	.L2630
	cmpb	2624(%rdi), %cl
	je	.L2631
	cmpb	2625(%rdi), %al
	je	.L2632
	cmpb	2626(%rdi), %dl
	je	.L2633
	cmpb	2627(%rdi), %cl
	je	.L2634
	cmpb	2628(%rdi), %al
	je	.L2635
	cmpb	2629(%rdi), %dl
	je	.L2636
	cmpb	2630(%rdi), %cl
	je	.L2637
	cmpb	2631(%rdi), %al
	je	.L2638
	cmpb	2632(%rdi), %dl
	je	.L2639
	cmpb	2633(%rdi), %cl
	je	.L2640
	cmpb	2634(%rdi), %al
	je	.L2641
	cmpb	2635(%rdi), %dl
	je	.L2642
	cmpb	2636(%rdi), %cl
	je	.L2643
	cmpb	2637(%rdi), %al
	je	.L2644
	cmpb	2638(%rdi), %dl
	je	.L2645
	cmpb	2639(%rdi), %cl
	je	.L2646
	cmpb	2640(%rdi), %al
	je	.L2647
	cmpb	2641(%rdi), %dl
	je	.L2648
	cmpb	2642(%rdi), %cl
	je	.L2649
	cmpb	2643(%rdi), %al
	je	.L2650
	cmpb	2644(%rdi), %dl
	je	.L2651
	cmpb	2645(%rdi), %cl
	je	.L2652
	cmpb	2646(%rdi), %al
	je	.L2653
	cmpb	2647(%rdi), %dl
	je	.L2654
	cmpb	2648(%rdi), %cl
	je	.L2655
	cmpb	2649(%rdi), %al
	je	.L2656
	cmpb	2650(%rdi), %dl
	je	.L2657
	cmpb	2651(%rdi), %cl
	je	.L2658
	cmpb	2652(%rdi), %al
	je	.L2659
	cmpb	2653(%rdi), %dl
	je	.L2660
	cmpb	2654(%rdi), %cl
	je	.L2661
	cmpb	2655(%rdi), %al
	je	.L2662
	cmpb	2656(%rdi), %dl
	je	.L2663
	cmpb	2657(%rdi), %cl
	je	.L2664
	cmpb	2658(%rdi), %al
	je	.L2665
	cmpb	2659(%rdi), %dl
	je	.L2666
	cmpb	2660(%rdi), %cl
	je	.L2667
	cmpb	2661(%rdi), %al
	je	.L2668
	cmpb	2662(%rdi), %dl
	je	.L2669
	cmpb	2663(%rdi), %cl
	je	.L2670
	cmpb	2664(%rdi), %al
	je	.L2671
	cmpb	2665(%rdi), %dl
	je	.L2672
	cmpb	2666(%rdi), %cl
	je	.L2673
	cmpb	2667(%rdi), %al
	je	.L2674
	cmpb	2668(%rdi), %dl
	je	.L2675
	cmpb	2669(%rdi), %cl
	je	.L2676
	cmpb	2670(%rdi), %al
	je	.L2677
	cmpb	2671(%rdi), %dl
	je	.L2678
	cmpb	2672(%rdi), %cl
	je	.L2679
	cmpb	2673(%rdi), %al
	je	.L2680
	cmpb	2674(%rdi), %dl
	je	.L2681
	cmpb	2675(%rdi), %cl
	je	.L2682
	cmpb	2676(%rdi), %al
	je	.L2683
	cmpb	2677(%rdi), %dl
	je	.L2684
	cmpb	2678(%rdi), %cl
	je	.L2685
	cmpb	2679(%rdi), %al
	je	.L2686
	cmpb	2680(%rdi), %dl
	je	.L2687
	cmpb	2681(%rdi), %cl
	je	.L2688
	cmpb	2682(%rdi), %al
	je	.L2689
	cmpb	2683(%rdi), %dl
	je	.L2690
	cmpb	2684(%rdi), %cl
	je	.L2691
	cmpb	2685(%rdi), %al
	je	.L2692
	cmpb	2686(%rdi), %dl
	je	.L2693
	cmpb	2687(%rdi), %cl
	je	.L2694
	cmpb	2688(%rdi), %al
	je	.L2695
	cmpb	2689(%rdi), %dl
	je	.L2696
	cmpb	2690(%rdi), %cl
	je	.L2697
	cmpb	2691(%rdi), %al
	je	.L2698
	cmpb	2692(%rdi), %dl
	je	.L2699
	cmpb	2693(%rdi), %cl
	je	.L2700
	cmpb	2694(%rdi), %al
	je	.L2701
	cmpb	2695(%rdi), %dl
	je	.L2702
	cmpb	2696(%rdi), %cl
	je	.L2703
	cmpb	2697(%rdi), %al
	je	.L2704
	cmpb	2698(%rdi), %dl
	je	.L2705
	cmpb	2699(%rdi), %cl
	je	.L2706
	cmpb	2700(%rdi), %al
	je	.L2707
	cmpb	2701(%rdi), %dl
	je	.L2708
	cmpb	2702(%rdi), %cl
	je	.L2709
	cmpb	2703(%rdi), %al
	je	.L2710
	cmpb	2704(%rdi), %dl
	je	.L2711
	cmpb	2705(%rdi), %cl
	je	.L2712
	cmpb	2706(%rdi), %al
	je	.L2713
	cmpb	2707(%rdi), %dl
	je	.L2714
	cmpb	2708(%rdi), %cl
	je	.L2715
	cmpb	2709(%rdi), %al
	je	.L2716
	cmpb	2710(%rdi), %dl
	je	.L2717
	cmpb	2711(%rdi), %cl
	je	.L2718
	cmpb	2712(%rdi), %al
	je	.L2719
	cmpb	2713(%rdi), %dl
	je	.L2720
	cmpb	2714(%rdi), %cl
	je	.L2721
	cmpb	2715(%rdi), %al
	je	.L2722
	cmpb	2716(%rdi), %dl
	je	.L2723
	cmpb	2717(%rdi), %cl
	je	.L2724
	cmpb	2718(%rdi), %al
	je	.L2725
	cmpb	2719(%rdi), %dl
	je	.L2726
	cmpb	2720(%rdi), %cl
	je	.L2727
	cmpb	2721(%rdi), %al
	je	.L2728
	cmpb	2722(%rdi), %dl
	je	.L2729
	cmpb	2723(%rdi), %cl
	je	.L2730
	cmpb	2724(%rdi), %al
	je	.L2731
	cmpb	2725(%rdi), %dl
	je	.L2732
	cmpb	2726(%rdi), %cl
	je	.L2733
	cmpb	2727(%rdi), %al
	je	.L2734
	cmpb	2728(%rdi), %dl
	je	.L2735
	cmpb	2729(%rdi), %cl
	je	.L2736
	cmpb	2730(%rdi), %al
	je	.L2737
	cmpb	2731(%rdi), %dl
	je	.L2738
	cmpb	2732(%rdi), %cl
	je	.L2739
	cmpb	2733(%rdi), %al
	je	.L2740
	cmpb	2734(%rdi), %dl
	je	.L2741
	cmpb	2735(%rdi), %cl
	je	.L2742
	cmpb	2736(%rdi), %al
	je	.L2743
	cmpb	2737(%rdi), %dl
	je	.L2744
	cmpb	2738(%rdi), %cl
	je	.L2745
	cmpb	2739(%rdi), %al
	je	.L2746
	cmpb	2740(%rdi), %dl
	je	.L2747
	cmpb	2741(%rdi), %cl
	je	.L2748
	cmpb	2742(%rdi), %al
	je	.L2749
	cmpb	2743(%rdi), %dl
	je	.L2750
	cmpb	2744(%rdi), %cl
	je	.L2751
	cmpb	2745(%rdi), %al
	je	.L2752
	cmpb	2746(%rdi), %dl
	je	.L2753
	cmpb	2747(%rdi), %cl
	je	.L2754
	cmpb	2748(%rdi), %al
	je	.L2755
	cmpb	2749(%rdi), %dl
	je	.L2756
	cmpb	2750(%rdi), %cl
	je	.L2757
	cmpb	2751(%rdi), %al
	je	.L2758
	cmpb	2752(%rdi), %dl
	je	.L2759
	cmpb	2753(%rdi), %cl
	je	.L2760
	cmpb	2754(%rdi), %al
	je	.L2761
	cmpb	2755(%rdi), %dl
	je	.L2762
	cmpb	2756(%rdi), %cl
	je	.L2763
	cmpb	2757(%rdi), %al
	je	.L2764
	cmpb	2758(%rdi), %dl
	je	.L2765
	cmpb	2759(%rdi), %cl
	je	.L2766
	cmpb	2760(%rdi), %al
	je	.L2767
	cmpb	2761(%rdi), %dl
	je	.L2768
	cmpb	2762(%rdi), %cl
	je	.L2769
	cmpb	2763(%rdi), %al
	je	.L2770
	cmpb	2764(%rdi), %dl
	je	.L2771
	cmpb	2765(%rdi), %cl
	je	.L2772
	cmpb	2766(%rdi), %al
	je	.L2773
	cmpb	2767(%rdi), %dl
	je	.L2774
	cmpb	2768(%rdi), %cl
	je	.L2775
	cmpb	2769(%rdi), %al
	je	.L2776
	cmpb	2770(%rdi), %dl
	je	.L2777
	cmpb	2771(%rdi), %cl
	je	.L2778
	cmpb	2772(%rdi), %al
	je	.L2779
	cmpb	2773(%rdi), %dl
	je	.L2780
	cmpb	2774(%rdi), %cl
	je	.L2781
	cmpb	2775(%rdi), %al
	je	.L2782
	cmpb	2776(%rdi), %dl
	je	.L2783
	cmpb	2777(%rdi), %cl
	je	.L2784
	cmpb	2778(%rdi), %al
	je	.L2785
	cmpb	2779(%rdi), %dl
	je	.L2786
	cmpb	2780(%rdi), %cl
	je	.L2787
	cmpb	2781(%rdi), %al
	je	.L2788
	cmpb	2782(%rdi), %dl
	je	.L2789
	cmpb	2783(%rdi), %cl
	je	.L2790
	cmpb	2784(%rdi), %al
	je	.L2791
	cmpb	2785(%rdi), %dl
	je	.L2792
	cmpb	2786(%rdi), %cl
	je	.L2793
	cmpb	2787(%rdi), %al
	je	.L2794
	cmpb	2788(%rdi), %dl
	je	.L2795
	cmpb	2789(%rdi), %cl
	je	.L2796
	cmpb	2790(%rdi), %al
	je	.L2797
	cmpb	2791(%rdi), %dl
	je	.L2798
	cmpb	2792(%rdi), %cl
	je	.L2799
	cmpb	2793(%rdi), %al
	je	.L2800
	cmpb	2794(%rdi), %dl
	je	.L2801
	cmpb	2795(%rdi), %cl
	je	.L2802
	cmpb	2796(%rdi), %al
	je	.L2803
	cmpb	2797(%rdi), %dl
	je	.L2804
	cmpb	2798(%rdi), %cl
	je	.L2805
	cmpb	2799(%rdi), %al
	je	.L2806
	cmpb	2800(%rdi), %dl
	je	.L2807
	cmpb	2801(%rdi), %cl
	je	.L2808
	cmpb	2802(%rdi), %al
	je	.L2809
	cmpb	2803(%rdi), %dl
	je	.L2810
	cmpb	2804(%rdi), %cl
	je	.L2811
	cmpb	2805(%rdi), %al
	je	.L2812
	cmpb	2806(%rdi), %dl
	je	.L2813
	cmpb	2807(%rdi), %cl
	je	.L2814
	cmpb	2808(%rdi), %al
	je	.L2815
	cmpb	2809(%rdi), %dl
	je	.L2816
	cmpb	2810(%rdi), %cl
	je	.L2817
	cmpb	2811(%rdi), %al
	je	.L2818
	cmpb	2812(%rdi), %dl
	je	.L2819
	cmpb	2813(%rdi), %cl
	je	.L2820
	cmpb	2814(%rdi), %al
	je	.L2821
	cmpb	2815(%rdi), %dl
	je	.L2822
	cmpb	2816(%rdi), %cl
	je	.L2823
	cmpb	2817(%rdi), %al
	je	.L2824
	cmpb	2818(%rdi), %dl
	je	.L2825
	cmpb	2819(%rdi), %cl
	je	.L2826
	cmpb	2820(%rdi), %al
	je	.L2827
	cmpb	2821(%rdi), %dl
	je	.L2828
	cmpb	2822(%rdi), %cl
	je	.L2829
	cmpb	2823(%rdi), %al
	je	.L2830
	cmpb	2824(%rdi), %dl
	je	.L2831
	cmpb	2825(%rdi), %cl
	je	.L2832
	cmpb	2826(%rdi), %al
	je	.L2833
	cmpb	2827(%rdi), %dl
	je	.L2834
	cmpb	2828(%rdi), %cl
	je	.L2835
	cmpb	2829(%rdi), %al
	je	.L2836
	cmpb	2830(%rdi), %dl
	je	.L2837
	cmpb	2831(%rdi), %cl
	je	.L2838
	cmpb	2832(%rdi), %al
	je	.L2839
	cmpb	2833(%rdi), %dl
	je	.L2840
	cmpb	2834(%rdi), %cl
	je	.L2841
	cmpb	2835(%rdi), %al
	je	.L2842
	cmpb	2836(%rdi), %dl
	je	.L2843
	cmpb	2837(%rdi), %cl
	je	.L2844
	cmpb	2838(%rdi), %al
	je	.L2845
	cmpb	2839(%rdi), %dl
	je	.L2846
	cmpb	2840(%rdi), %cl
	je	.L2847
	cmpb	2841(%rdi), %al
	je	.L2848
	cmpb	2842(%rdi), %dl
	je	.L2849
	cmpb	2843(%rdi), %cl
	je	.L2850
	cmpb	2844(%rdi), %al
	je	.L2851
	cmpb	2845(%rdi), %dl
	je	.L2852
	cmpb	2846(%rdi), %cl
	je	.L2853
	cmpb	2847(%rdi), %al
	je	.L2854
	cmpb	2848(%rdi), %dl
	je	.L2855
	cmpb	2849(%rdi), %cl
	je	.L2856
	cmpb	2850(%rdi), %al
	je	.L2857
	cmpb	2851(%rdi), %dl
	je	.L2858
	cmpb	2852(%rdi), %cl
	je	.L2859
	cmpb	2853(%rdi), %al
	je	.L2860
	cmpb	2854(%rdi), %dl
	je	.L2861
	cmpb	2855(%rdi), %cl
	je	.L2862
	cmpb	2856(%rdi), %al
	je	.L2863
	cmpb	2857(%rdi), %dl
	je	.L2864
	cmpb	2858(%rdi), %cl
	je	.L2865
	cmpb	2859(%rdi), %al
	je	.L2866
	cmpb	2860(%rdi), %dl
	je	.L2867
	cmpb	2861(%rdi), %cl
	je	.L2868
	cmpb	2862(%rdi), %al
	je	.L2869
	cmpb	2863(%rdi), %dl
	je	.L2870
	cmpb	2864(%rdi), %cl
	je	.L2871
	cmpb	2865(%rdi), %al
	je	.L2872
	cmpb	2866(%rdi), %dl
	je	.L2873
	cmpb	2867(%rdi), %cl
	je	.L2874
	cmpb	2868(%rdi), %al
	je	.L2875
	cmpb	2869(%rdi), %dl
	je	.L2876
	cmpb	2870(%rdi), %cl
	je	.L2877
	cmpb	2871(%rdi), %al
	je	.L2878
	cmpb	2872(%rdi), %dl
	je	.L2879
	cmpb	2873(%rdi), %cl
	je	.L2880
	cmpb	2874(%rdi), %al
	je	.L2881
	cmpb	2875(%rdi), %dl
	je	.L2882
	cmpb	2876(%rdi), %cl
	je	.L2883
	cmpb	2877(%rdi), %al
	je	.L2884
	cmpb	2878(%rdi), %dl
	je	.L2885
	cmpb	2879(%rdi), %cl
	je	.L2886
	cmpb	2880(%rdi), %al
	je	.L2887
	cmpb	2881(%rdi), %dl
	je	.L2888
	cmpb	2882(%rdi), %cl
	je	.L2889
	cmpb	2883(%rdi), %al
	je	.L2890
	cmpb	2884(%rdi), %dl
	je	.L2891
	cmpb	2885(%rdi), %cl
	je	.L2892
	cmpb	2886(%rdi), %al
	je	.L2893
	cmpb	2887(%rdi), %dl
	je	.L2894
	cmpb	2888(%rdi), %cl
	je	.L2895
	cmpb	2889(%rdi), %al
	je	.L2896
	cmpb	2890(%rdi), %dl
	je	.L2897
	cmpb	2891(%rdi), %cl
	je	.L2898
	cmpb	2892(%rdi), %al
	je	.L2899
	cmpb	2893(%rdi), %dl
	je	.L2900
	cmpb	2894(%rdi), %cl
	je	.L2901
	cmpb	2895(%rdi), %al
	je	.L2902
	cmpb	2896(%rdi), %dl
	je	.L2903
	cmpb	2897(%rdi), %cl
	je	.L2904
	cmpb	2898(%rdi), %al
	je	.L2905
	cmpb	2899(%rdi), %dl
	je	.L2906
	cmpb	2900(%rdi), %cl
	je	.L2907
	cmpb	2901(%rdi), %al
	je	.L2908
	cmpb	2902(%rdi), %dl
	je	.L2909
	cmpb	2903(%rdi), %cl
	je	.L2910
	cmpb	2904(%rdi), %al
	je	.L2911
	cmpb	2905(%rdi), %dl
	je	.L2912
	cmpb	2906(%rdi), %cl
	je	.L2913
	cmpb	2907(%rdi), %al
	je	.L2914
	cmpb	2908(%rdi), %dl
	je	.L2915
	cmpb	2909(%rdi), %cl
	je	.L2916
	cmpb	2910(%rdi), %al
	je	.L2917
	cmpb	2911(%rdi), %dl
	je	.L2918
	cmpb	2912(%rdi), %cl
	je	.L2919
	cmpb	2913(%rdi), %al
	je	.L2920
	cmpb	2914(%rdi), %dl
	je	.L2921
	cmpb	2915(%rdi), %cl
	je	.L2922
	cmpb	2916(%rdi), %al
	je	.L2923
	cmpb	2917(%rdi), %dl
	je	.L2924
	cmpb	2918(%rdi), %cl
	je	.L2925
	cmpb	2919(%rdi), %al
	je	.L2926
	cmpb	2920(%rdi), %dl
	je	.L2927
	cmpb	2921(%rdi), %cl
	je	.L2928
	cmpb	2922(%rdi), %al
	je	.L2929
	cmpb	2923(%rdi), %dl
	je	.L2930
	cmpb	2924(%rdi), %cl
	je	.L2931
	cmpb	2925(%rdi), %al
	je	.L2932
	cmpb	2926(%rdi), %dl
	je	.L2933
	cmpb	2927(%rdi), %cl
	je	.L2934
	cmpb	2928(%rdi), %al
	je	.L2935
	cmpb	2929(%rdi), %dl
	je	.L2936
	cmpb	2930(%rdi), %cl
	je	.L2937
	cmpb	2931(%rdi), %al
	je	.L2938
	cmpb	2932(%rdi), %dl
	je	.L2939
	cmpb	2933(%rdi), %cl
	je	.L2940
	cmpb	2934(%rdi), %al
	je	.L2941
	cmpb	2935(%rdi), %dl
	je	.L2942
	cmpb	2936(%rdi), %cl
	je	.L2943
	cmpb	2937(%rdi), %al
	je	.L2944
	cmpb	2938(%rdi), %dl
	je	.L2945
	cmpb	2939(%rdi), %cl
	je	.L2946
	cmpb	2940(%rdi), %al
	je	.L2947
	cmpb	2941(%rdi), %dl
	je	.L2948
	cmpb	2942(%rdi), %cl
	je	.L2949
	cmpb	2943(%rdi), %al
	je	.L2950
	cmpb	2944(%rdi), %dl
	je	.L2951
	cmpb	2945(%rdi), %cl
	je	.L2952
	cmpb	2946(%rdi), %al
	je	.L2953
	cmpb	2947(%rdi), %dl
	je	.L2954
	cmpb	2948(%rdi), %cl
	je	.L2955
	cmpb	2949(%rdi), %al
	je	.L2956
	cmpb	2950(%rdi), %dl
	je	.L2957
	cmpb	2951(%rdi), %cl
	je	.L2958
	cmpb	2952(%rdi), %al
	je	.L2959
	cmpb	2953(%rdi), %dl
	je	.L2960
	cmpb	2954(%rdi), %cl
	je	.L2961
	cmpb	2955(%rdi), %al
	je	.L2962
	cmpb	2956(%rdi), %dl
	je	.L2963
	cmpb	2957(%rdi), %cl
	je	.L2964
	cmpb	2958(%rdi), %al
	je	.L2965
	cmpb	2959(%rdi), %dl
	je	.L2966
	cmpb	2960(%rdi), %cl
	je	.L2967
	cmpb	2961(%rdi), %al
	je	.L2968
	cmpb	2962(%rdi), %dl
	je	.L2969
	cmpb	2963(%rdi), %cl
	je	.L2970
	cmpb	2964(%rdi), %al
	je	.L2971
	cmpb	2965(%rdi), %dl
	je	.L2972
	cmpb	2966(%rdi), %cl
	je	.L2973
	cmpb	2967(%rdi), %al
	je	.L2974
	cmpb	2968(%rdi), %dl
	je	.L2975
	cmpb	2969(%rdi), %cl
	je	.L2976
	cmpb	2970(%rdi), %al
	je	.L2977
	cmpb	2971(%rdi), %dl
	je	.L2978
	cmpb	2972(%rdi), %cl
	je	.L2979
	cmpb	2973(%rdi), %al
	je	.L2980
	cmpb	2974(%rdi), %dl
	je	.L2981
	cmpb	2975(%rdi), %cl
	je	.L2982
	cmpb	2976(%rdi), %al
	je	.L2983
	cmpb	2977(%rdi), %dl
	je	.L2984
	cmpb	2978(%rdi), %cl
	je	.L2985
	cmpb	2979(%rdi), %al
	je	.L2986
	cmpb	2980(%rdi), %dl
	je	.L2987
	cmpb	2981(%rdi), %cl
	je	.L2988
	cmpb	2982(%rdi), %al
	je	.L2989
	cmpb	2983(%rdi), %dl
	je	.L2990
	cmpb	2984(%rdi), %cl
	je	.L2991
	cmpb	2985(%rdi), %al
	je	.L2992
	cmpb	2986(%rdi), %dl
	je	.L2993
	cmpb	2987(%rdi), %cl
	je	.L2994
	cmpb	2988(%rdi), %al
	je	.L2995
	cmpb	2989(%rdi), %dl
	je	.L2996
	cmpb	2990(%rdi), %cl
	je	.L2997
	cmpb	2991(%rdi), %al
	je	.L2998
	cmpb	2992(%rdi), %dl
	je	.L2999
	cmpb	2993(%rdi), %cl
	je	.L3000
	cmpb	2994(%rdi), %al
	je	.L3001
	cmpb	2995(%rdi), %dl
	je	.L3002
	cmpb	2996(%rdi), %cl
	je	.L3003
	cmpb	2997(%rdi), %al
	je	.L3004
	cmpb	2998(%rdi), %dl
	je	.L3005
	cmpb	2999(%rdi), %cl
	je	.L3006
	cmpb	3000(%rdi), %al
	je	.L3007
	cmpb	3001(%rdi), %dl
	je	.L3008
	cmpb	3002(%rdi), %cl
	je	.L3009
	cmpb	3003(%rdi), %al
	je	.L3010
	cmpb	3004(%rdi), %dl
	je	.L3011
	cmpb	3005(%rdi), %cl
	je	.L3012
	cmpb	3006(%rdi), %al
	je	.L3013
	cmpb	3007(%rdi), %dl
	je	.L3014
	cmpb	3008(%rdi), %cl
	je	.L3015
	cmpb	3009(%rdi), %al
	je	.L3016
	cmpb	3010(%rdi), %dl
	je	.L3017
	cmpb	3011(%rdi), %cl
	je	.L3018
	cmpb	3012(%rdi), %al
	je	.L3019
	cmpb	3013(%rdi), %dl
	je	.L3020
	cmpb	3014(%rdi), %cl
	je	.L3021
	cmpb	3015(%rdi), %al
	je	.L3022
	cmpb	3016(%rdi), %dl
	je	.L3023
	cmpb	3017(%rdi), %cl
	je	.L3024
	cmpb	3018(%rdi), %al
	je	.L3025
	cmpb	3019(%rdi), %dl
	je	.L3026
	cmpb	3020(%rdi), %cl
	je	.L3027
	cmpb	3021(%rdi), %al
	je	.L3028
	cmpb	3022(%rdi), %dl
	je	.L3029
	cmpb	3023(%rdi), %cl
	je	.L3030
	cmpb	3024(%rdi), %al
	je	.L3031
	cmpb	3025(%rdi), %dl
	je	.L3032
	cmpb	3026(%rdi), %cl
	je	.L3033
	cmpb	3027(%rdi), %al
	je	.L3034
	cmpb	3028(%rdi), %dl
	je	.L3035
	cmpb	3029(%rdi), %cl
	je	.L3036
	cmpb	3030(%rdi), %al
	je	.L3037
	cmpb	3031(%rdi), %dl
	je	.L3038
	cmpb	3032(%rdi), %cl
	je	.L3039
	cmpb	3033(%rdi), %al
	je	.L3040
	cmpb	3034(%rdi), %dl
	je	.L3041
	cmpb	3035(%rdi), %cl
	je	.L3042
	cmpb	3036(%rdi), %al
	je	.L3043
	cmpb	3037(%rdi), %dl
	je	.L3044
	cmpb	3038(%rdi), %cl
	je	.L3045
	cmpb	3039(%rdi), %al
	je	.L3046
	cmpb	3040(%rdi), %dl
	je	.L3047
	cmpb	3041(%rdi), %cl
	je	.L3048
	cmpb	3042(%rdi), %al
	je	.L3049
	cmpb	3043(%rdi), %dl
	je	.L3050
	cmpb	3044(%rdi), %cl
	je	.L3051
	cmpb	3045(%rdi), %al
	je	.L3052
	cmpb	3046(%rdi), %dl
	je	.L3053
	cmpb	3047(%rdi), %cl
	je	.L3054
	cmpb	3048(%rdi), %al
	je	.L3055
	cmpb	3049(%rdi), %dl
	je	.L3056
	cmpb	3050(%rdi), %cl
	je	.L3057
	cmpb	3051(%rdi), %al
	je	.L3058
	cmpb	3052(%rdi), %dl
	je	.L3059
	cmpb	3053(%rdi), %cl
	je	.L3060
	cmpb	3054(%rdi), %al
	je	.L3061
	cmpb	3055(%rdi), %dl
	je	.L3062
	cmpb	3056(%rdi), %cl
	je	.L3063
	cmpb	3057(%rdi), %al
	je	.L3064
	cmpb	3058(%rdi), %dl
	je	.L3065
	cmpb	3059(%rdi), %cl
	je	.L3066
	cmpb	3060(%rdi), %al
	je	.L3067
	cmpb	3061(%rdi), %dl
	je	.L3068
	cmpb	3062(%rdi), %cl
	je	.L3069
	cmpb	3063(%rdi), %al
	je	.L3070
	cmpb	3064(%rdi), %dl
	je	.L3071
	cmpb	3065(%rdi), %cl
	je	.L3072
	cmpb	3066(%rdi), %al
	je	.L3073
	cmpb	3067(%rdi), %dl
	je	.L3074
	cmpb	3068(%rdi), %cl
	je	.L3075
	cmpb	3069(%rdi), %al
	je	.L3076
	cmpb	3070(%rdi), %dl
	je	.L3077
	cmpb	3071(%rdi), %cl
	je	.L3078
	cmpb	3072(%rdi), %al
	je	.L3079
	cmpb	3073(%rdi), %dl
	je	.L3080
	cmpb	3074(%rdi), %cl
	je	.L3081
	cmpb	3075(%rdi), %al
	je	.L3082
	cmpb	3076(%rdi), %dl
	je	.L3083
	cmpb	3077(%rdi), %cl
	je	.L3084
	cmpb	3078(%rdi), %al
	je	.L3085
	cmpb	3079(%rdi), %dl
	je	.L3086
	cmpb	3080(%rdi), %cl
	je	.L3087
	cmpb	3081(%rdi), %al
	je	.L3088
	cmpb	3082(%rdi), %dl
	je	.L3089
	cmpb	3083(%rdi), %cl
	je	.L3090
	cmpb	3084(%rdi), %al
	je	.L3091
	cmpb	3085(%rdi), %dl
	je	.L3092
	cmpb	3086(%rdi), %cl
	je	.L3093
	cmpb	3087(%rdi), %al
	je	.L3094
	cmpb	3088(%rdi), %dl
	je	.L3095
	cmpb	3089(%rdi), %cl
	je	.L3096
	cmpb	3090(%rdi), %al
	je	.L3097
	cmpb	3091(%rdi), %dl
	je	.L3098
	cmpb	3092(%rdi), %cl
	je	.L3099
	cmpb	3093(%rdi), %al
	je	.L3100
	cmpb	3094(%rdi), %dl
	je	.L3101
	cmpb	3095(%rdi), %cl
	je	.L3102
	cmpb	3096(%rdi), %al
	je	.L3103
	cmpb	3097(%rdi), %dl
	je	.L3104
	cmpb	3098(%rdi), %cl
	je	.L3105
	cmpb	3099(%rdi), %al
	je	.L3106
	cmpb	3100(%rdi), %dl
	je	.L3107
	cmpb	3101(%rdi), %cl
	je	.L3108
	cmpb	3102(%rdi), %al
	je	.L3109
	cmpb	3103(%rdi), %dl
	je	.L3110
	cmpb	3104(%rdi), %cl
	je	.L3111
	cmpb	3105(%rdi), %al
	je	.L3112
	cmpb	3106(%rdi), %dl
	je	.L3113
	cmpb	3107(%rdi), %cl
	je	.L3114
	cmpb	3108(%rdi), %al
	je	.L3115
	cmpb	3109(%rdi), %dl
	je	.L3116
	cmpb	3110(%rdi), %cl
	je	.L3117
	cmpb	3111(%rdi), %al
	je	.L3118
	cmpb	3112(%rdi), %dl
	je	.L3119
	cmpb	3113(%rdi), %cl
	je	.L3120
	cmpb	3114(%rdi), %al
	je	.L3121
	cmpb	3115(%rdi), %dl
	je	.L3122
	cmpb	3116(%rdi), %cl
	je	.L3123
	cmpb	3117(%rdi), %al
	je	.L3124
	cmpb	3118(%rdi), %dl
	je	.L3125
	cmpb	3119(%rdi), %cl
	je	.L3126
	cmpb	3120(%rdi), %al
	je	.L3127
	cmpb	3121(%rdi), %dl
	je	.L3128
	cmpb	3122(%rdi), %cl
	je	.L3129
	cmpb	3123(%rdi), %al
	je	.L3130
	cmpb	3124(%rdi), %dl
	je	.L3131
	cmpb	3125(%rdi), %cl
	je	.L3132
	cmpb	3126(%rdi), %al
	je	.L3133
	cmpb	3127(%rdi), %dl
	je	.L3134
	cmpb	3128(%rdi), %cl
	je	.L3135
	cmpb	3129(%rdi), %al
	je	.L3136
	cmpb	3130(%rdi), %dl
	je	.L3137
	cmpb	3131(%rdi), %cl
	je	.L3138
	cmpb	3132(%rdi), %al
	je	.L3139
	cmpb	3133(%rdi), %dl
	je	.L3140
	cmpb	3134(%rdi), %cl
	je	.L3141
	cmpb	3135(%rdi), %al
	je	.L3142
	cmpb	3136(%rdi), %dl
	je	.L3143
	cmpb	3137(%rdi), %cl
	je	.L3144
	cmpb	3138(%rdi), %al
	je	.L3145
	cmpb	3139(%rdi), %dl
	je	.L3146
	cmpb	3140(%rdi), %cl
	je	.L3147
	cmpb	3141(%rdi), %al
	je	.L3148
	cmpb	3142(%rdi), %dl
	je	.L3149
	cmpb	3143(%rdi), %cl
	je	.L3150
	cmpb	3144(%rdi), %al
	je	.L3151
	cmpb	3145(%rdi), %dl
	je	.L3152
	cmpb	3146(%rdi), %cl
	je	.L3153
	cmpb	3147(%rdi), %al
	je	.L3154
	cmpb	3148(%rdi), %dl
	je	.L3155
	cmpb	3149(%rdi), %cl
	je	.L3156
	cmpb	3150(%rdi), %al
	je	.L3157
	cmpb	3151(%rdi), %dl
	je	.L3158
	cmpb	3152(%rdi), %cl
	je	.L3159
	cmpb	3153(%rdi), %al
	je	.L3160
	cmpb	3154(%rdi), %dl
	je	.L3161
	cmpb	3155(%rdi), %cl
	je	.L3162
	cmpb	3156(%rdi), %al
	je	.L3163
	cmpb	3157(%rdi), %dl
	je	.L3164
	cmpb	3158(%rdi), %cl
	je	.L3165
	cmpb	3159(%rdi), %al
	je	.L3166
	cmpb	3160(%rdi), %dl
	je	.L3167
	cmpb	3161(%rdi), %cl
	je	.L3168
	cmpb	3162(%rdi), %al
	je	.L3169
	cmpb	3163(%rdi), %dl
	je	.L3170
	cmpb	3164(%rdi), %cl
	je	.L3171
	cmpb	3165(%rdi), %al
	je	.L3172
	cmpb	3166(%rdi), %dl
	je	.L3173
	cmpb	3167(%rdi), %cl
	je	.L3174
	cmpb	3168(%rdi), %al
	je	.L3175
	cmpb	3169(%rdi), %dl
	je	.L3176
	cmpb	3170(%rdi), %cl
	je	.L3177
	cmpb	3171(%rdi), %al
	je	.L3178
	cmpb	3172(%rdi), %dl
	je	.L3179
	cmpb	3173(%rdi), %cl
	je	.L3180
	cmpb	3174(%rdi), %al
	je	.L3181
	cmpb	3175(%rdi), %dl
	je	.L3182
	cmpb	3176(%rdi), %cl
	je	.L3183
	cmpb	3177(%rdi), %al
	je	.L3184
	cmpb	3178(%rdi), %dl
	je	.L3185
	cmpb	3179(%rdi), %cl
	je	.L3186
	cmpb	3180(%rdi), %al
	je	.L3187
	cmpb	3181(%rdi), %dl
	je	.L3188
	cmpb	3182(%rdi), %cl
	je	.L3189
	cmpb	3183(%rdi), %al
	je	.L3190
	cmpb	3184(%rdi), %dl
	je	.L3191
	cmpb	3185(%rdi), %cl
	je	.L3192
	cmpb	3186(%rdi), %al
	je	.L3193
	cmpb	3187(%rdi), %dl
	je	.L3194
	cmpb	3188(%rdi), %cl
	je	.L3195
	cmpb	3189(%rdi), %al
	je	.L3196
	cmpb	3190(%rdi), %dl
	je	.L3197
	cmpb	3191(%rdi), %cl
	je	.L3198
	cmpb	3192(%rdi), %al
	je	.L3199
	cmpb	3193(%rdi), %dl
	je	.L3200
	cmpb	3194(%rdi), %cl
	je	.L3201
	cmpb	3195(%rdi), %al
	je	.L3202
	cmpb	3196(%rdi), %dl
	je	.L3203
	cmpb	3197(%rdi), %cl
	je	.L3204
	cmpb	3198(%rdi), %al
	je	.L3205
	cmpb	3199(%rdi), %dl
	je	.L3206
	cmpb	3200(%rdi), %cl
	je	.L3207
	cmpb	3201(%rdi), %al
	je	.L3208
	cmpb	3202(%rdi), %dl
	je	.L3209
	cmpb	3203(%rdi), %cl
	je	.L3210
	cmpb	3204(%rdi), %al
	je	.L3211
	cmpb	3205(%rdi), %dl
	je	.L3212
	cmpb	3206(%rdi), %cl
	je	.L3213
	cmpb	3207(%rdi), %al
	je	.L3214
	cmpb	3208(%rdi), %dl
	je	.L3215
	cmpb	3209(%rdi), %cl
	je	.L3216
	cmpb	3210(%rdi), %al
	je	.L3217
	cmpb	3211(%rdi), %dl
	je	.L3218
	cmpb	3212(%rdi), %cl
	je	.L3219
	cmpb	3213(%rdi), %al
	je	.L3220
	cmpb	3214(%rdi), %dl
	je	.L3221
	cmpb	3215(%rdi), %cl
	je	.L3222
	cmpb	3216(%rdi), %al
	je	.L3223
	cmpb	3217(%rdi), %dl
	je	.L3224
	cmpb	3218(%rdi), %cl
	je	.L3225
	cmpb	3219(%rdi), %al
	je	.L3226
	cmpb	3220(%rdi), %dl
	je	.L3227
	cmpb	3221(%rdi), %cl
	je	.L3228
	cmpb	3222(%rdi), %al
	je	.L3229
	cmpb	3223(%rdi), %dl
	je	.L3230
	cmpb	3224(%rdi), %cl
	je	.L3231
	cmpb	3225(%rdi), %al
	je	.L3232
	cmpb	3226(%rdi), %dl
	je	.L3233
	cmpb	3227(%rdi), %cl
	je	.L3234
	cmpb	3228(%rdi), %al
	je	.L3235
	cmpb	3229(%rdi), %dl
	je	.L3236
	cmpb	3230(%rdi), %cl
	je	.L3237
	cmpb	3231(%rdi), %al
	je	.L3238
	cmpb	3232(%rdi), %dl
	je	.L3239
	cmpb	3233(%rdi), %cl
	je	.L3240
	cmpb	3234(%rdi), %al
	je	.L3241
	cmpb	3235(%rdi), %dl
	je	.L3242
	cmpb	3236(%rdi), %cl
	je	.L3243
	cmpb	3237(%rdi), %al
	je	.L3244
	cmpb	3238(%rdi), %dl
	je	.L3245
	cmpb	3239(%rdi), %cl
	je	.L3246
	cmpb	3240(%rdi), %al
	je	.L3247
	cmpb	3241(%rdi), %dl
	je	.L3248
	cmpb	3242(%rdi), %cl
	je	.L3249
	cmpb	3243(%rdi), %al
	je	.L3250
	cmpb	3244(%rdi), %dl
	je	.L3251
	cmpb	3245(%rdi), %cl
	je	.L3252
	cmpb	3246(%rdi), %al
	je	.L3253
	cmpb	3247(%rdi), %dl
	je	.L3254
	cmpb	3248(%rdi), %cl
	je	.L3255
	cmpb	3249(%rdi), %al
	je	.L3256
	cmpb	3250(%rdi), %dl
	je	.L3257
	cmpb	3251(%rdi), %cl
	je	.L3258
	cmpb	3252(%rdi), %al
	je	.L3259
	cmpb	3253(%rdi), %dl
	je	.L3260
	cmpb	3254(%rdi), %cl
	je	.L3261
	cmpb	3255(%rdi), %al
	je	.L3262
	cmpb	3256(%rdi), %dl
	je	.L3263
	cmpb	3257(%rdi), %cl
	je	.L3264
	cmpb	3258(%rdi), %al
	je	.L3265
	cmpb	3259(%rdi), %dl
	je	.L3266
	cmpb	3260(%rdi), %cl
	je	.L3267
	cmpb	3261(%rdi), %al
	je	.L3268
	cmpb	3262(%rdi), %dl
	je	.L3269
	cmpb	3263(%rdi), %cl
	je	.L3270
	cmpb	3264(%rdi), %al
	je	.L3271
	cmpb	3265(%rdi), %dl
	je	.L3272
	cmpb	3266(%rdi), %cl
	je	.L3273
	cmpb	3267(%rdi), %al
	je	.L3274
	cmpb	3268(%rdi), %dl
	je	.L3275
	cmpb	3269(%rdi), %cl
	je	.L3276
	cmpb	3270(%rdi), %al
	je	.L3277
	cmpb	3271(%rdi), %dl
	je	.L3278
	cmpb	3272(%rdi), %cl
	je	.L3279
	cmpb	3273(%rdi), %al
	je	.L3280
	cmpb	3274(%rdi), %dl
	je	.L3281
	cmpb	3275(%rdi), %cl
	je	.L3282
	cmpb	3276(%rdi), %al
	je	.L3283
	cmpb	3277(%rdi), %dl
	je	.L3284
	cmpb	3278(%rdi), %cl
	je	.L3285
	cmpb	3279(%rdi), %al
	je	.L3286
	cmpb	3280(%rdi), %dl
	je	.L3287
	cmpb	3281(%rdi), %cl
	je	.L3288
	cmpb	3282(%rdi), %al
	je	.L3289
	cmpb	3283(%rdi), %dl
	je	.L3290
	cmpb	3284(%rdi), %cl
	je	.L3291
	cmpb	3285(%rdi), %al
	je	.L3292
	cmpb	3286(%rdi), %dl
	je	.L3293
	cmpb	3287(%rdi), %cl
	je	.L3294
	cmpb	3288(%rdi), %al
	je	.L3295
	cmpb	3289(%rdi), %dl
	je	.L3296
	cmpb	3290(%rdi), %cl
	je	.L3297
	cmpb	3291(%rdi), %al
	je	.L3298
	cmpb	3292(%rdi), %dl
	je	.L3299
	cmpb	3293(%rdi), %cl
	je	.L3300
	cmpb	3294(%rdi), %al
	je	.L3301
	cmpb	3295(%rdi), %dl
	je	.L3302
	cmpb	3296(%rdi), %cl
	je	.L3303
	cmpb	3297(%rdi), %al
	je	.L3304
	cmpb	3298(%rdi), %dl
	je	.L3305
	cmpb	3299(%rdi), %cl
	je	.L3306
	cmpb	3300(%rdi), %al
	je	.L3307
	cmpb	3301(%rdi), %dl
	je	.L3308
	cmpb	3302(%rdi), %cl
	je	.L3309
	cmpb	3303(%rdi), %al
	je	.L3310
	cmpb	3304(%rdi), %dl
	je	.L3311
	cmpb	3305(%rdi), %cl
	je	.L3312
	cmpb	3306(%rdi), %al
	je	.L3313
	cmpb	3307(%rdi), %dl
	je	.L3314
	cmpb	3308(%rdi), %cl
	je	.L3315
	cmpb	3309(%rdi), %al
	je	.L3316
	cmpb	3310(%rdi), %dl
	je	.L3317
	cmpb	3311(%rdi), %cl
	je	.L3318
	cmpb	3312(%rdi), %al
	je	.L3319
	cmpb	3313(%rdi), %dl
	je	.L3320
	cmpb	3314(%rdi), %cl
	je	.L3321
	cmpb	3315(%rdi), %al
	je	.L3322
	cmpb	3316(%rdi), %dl
	je	.L3323
	cmpb	3317(%rdi), %cl
	je	.L3324
	cmpb	3318(%rdi), %al
	je	.L3325
	cmpb	3319(%rdi), %dl
	je	.L3326
	cmpb	3320(%rdi), %cl
	je	.L3327
	cmpb	3321(%rdi), %al
	je	.L3328
	cmpb	3322(%rdi), %dl
	je	.L3329
	cmpb	3323(%rdi), %cl
	je	.L3330
	cmpb	3324(%rdi), %al
	je	.L3331
	cmpb	3325(%rdi), %dl
	je	.L3332
	cmpb	3326(%rdi), %cl
	je	.L3333
	cmpb	3327(%rdi), %al
	je	.L3334
	cmpb	3328(%rdi), %dl
	je	.L3335
	cmpb	3329(%rdi), %cl
	je	.L3336
	cmpb	3330(%rdi), %al
	je	.L3337
	cmpb	3331(%rdi), %dl
	je	.L3338
	cmpb	3332(%rdi), %cl
	je	.L3339
	cmpb	3333(%rdi), %al
	je	.L3340
	cmpb	3334(%rdi), %dl
	je	.L3341
	cmpb	3335(%rdi), %cl
	je	.L3342
	cmpb	3336(%rdi), %al
	je	.L3343
	cmpb	3337(%rdi), %dl
	je	.L3344
	cmpb	3338(%rdi), %cl
	je	.L3345
	cmpb	3339(%rdi), %al
	je	.L3346
	cmpb	3340(%rdi), %dl
	je	.L3347
	cmpb	3341(%rdi), %cl
	je	.L3348
	cmpb	3342(%rdi), %al
	je	.L3349
	cmpb	3343(%rdi), %dl
	je	.L3350
	cmpb	3344(%rdi), %cl
	je	.L3351
	cmpb	3345(%rdi), %al
	je	.L3352
	cmpb	3346(%rdi), %dl
	je	.L3353
	cmpb	3347(%rdi), %cl
	je	.L3354
	cmpb	3348(%rdi), %al
	je	.L3355
	cmpb	3349(%rdi), %dl
	je	.L3356
	cmpb	3350(%rdi), %cl
	je	.L3357
	cmpb	3351(%rdi), %al
	je	.L3358
	cmpb	3352(%rdi), %dl
	je	.L3359
	cmpb	3353(%rdi), %cl
	je	.L3360
	cmpb	3354(%rdi), %al
	je	.L3361
	cmpb	3355(%rdi), %dl
	je	.L3362
	cmpb	3356(%rdi), %cl
	je	.L3363
	cmpb	3357(%rdi), %al
	je	.L3364
	cmpb	3358(%rdi), %dl
	je	.L3365
	cmpb	3359(%rdi), %cl
	je	.L3366
	cmpb	3360(%rdi), %al
	je	.L3367
	cmpb	3361(%rdi), %dl
	je	.L3368
	cmpb	3362(%rdi), %cl
	je	.L3369
	cmpb	3363(%rdi), %al
	je	.L3370
	cmpb	3364(%rdi), %dl
	je	.L3371
	cmpb	3365(%rdi), %cl
	je	.L3372
	cmpb	3366(%rdi), %al
	je	.L3373
	cmpb	3367(%rdi), %dl
	je	.L3374
	cmpb	3368(%rdi), %cl
	je	.L3375
	cmpb	3369(%rdi), %al
	je	.L3376
	cmpb	3370(%rdi), %dl
	je	.L3377
	cmpb	3371(%rdi), %cl
	je	.L3378
	cmpb	3372(%rdi), %al
	je	.L3379
	cmpb	3373(%rdi), %dl
	je	.L3380
	cmpb	3374(%rdi), %cl
	je	.L3381
	cmpb	3375(%rdi), %al
	je	.L3382
	cmpb	3376(%rdi), %dl
	je	.L3383
	cmpb	3377(%rdi), %cl
	je	.L3384
	cmpb	3378(%rdi), %al
	je	.L3385
	cmpb	3379(%rdi), %dl
	je	.L3386
	cmpb	3380(%rdi), %cl
	je	.L3387
	cmpb	3381(%rdi), %al
	je	.L3388
	cmpb	3382(%rdi), %dl
	je	.L3389
	cmpb	3383(%rdi), %cl
	je	.L3390
	cmpb	3384(%rdi), %al
	je	.L3391
	cmpb	3385(%rdi), %dl
	je	.L3392
	cmpb	3386(%rdi), %cl
	je	.L3393
	cmpb	3387(%rdi), %al
	je	.L3394
	cmpb	3388(%rdi), %dl
	je	.L3395
	cmpb	3389(%rdi), %cl
	je	.L3396
	cmpb	3390(%rdi), %al
	je	.L3397
	cmpb	3391(%rdi), %dl
	je	.L3398
	cmpb	3392(%rdi), %cl
	je	.L3399
	cmpb	3393(%rdi), %al
	je	.L3400
	cmpb	3394(%rdi), %dl
	je	.L3401
	cmpb	3395(%rdi), %cl
	je	.L3402
	cmpb	3396(%rdi), %al
	je	.L3403
	cmpb	3397(%rdi), %dl
	je	.L3404
	cmpb	3398(%rdi), %cl
	je	.L3405
	cmpb	3399(%rdi), %al
	je	.L3406
	cmpb	3400(%rdi), %dl
	je	.L3407
	cmpb	3401(%rdi), %cl
	je	.L3408
	cmpb	3402(%rdi), %al
	je	.L3409
	cmpb	3403(%rdi), %dl
	je	.L3410
	cmpb	3404(%rdi), %cl
	je	.L3411
	cmpb	3405(%rdi), %al
	je	.L3412
	cmpb	3406(%rdi), %dl
	je	.L3413
	cmpb	3407(%rdi), %cl
	je	.L3414
	cmpb	3408(%rdi), %al
	je	.L3415
	cmpb	3409(%rdi), %dl
	je	.L3416
	cmpb	3410(%rdi), %cl
	je	.L3417
	cmpb	3411(%rdi), %al
	je	.L3418
	cmpb	3412(%rdi), %dl
	je	.L3419
	cmpb	3413(%rdi), %cl
	je	.L3420
	cmpb	3414(%rdi), %al
	je	.L3421
	cmpb	3415(%rdi), %dl
	je	.L3422
	cmpb	3416(%rdi), %cl
	je	.L3423
	cmpb	3417(%rdi), %al
	je	.L3424
	cmpb	3418(%rdi), %dl
	je	.L3425
	cmpb	3419(%rdi), %cl
	je	.L3426
	cmpb	3420(%rdi), %al
	je	.L3427
	cmpb	3421(%rdi), %dl
	je	.L3428
	cmpb	3422(%rdi), %cl
	je	.L3429
	cmpb	3423(%rdi), %al
	je	.L3430
	cmpb	3424(%rdi), %dl
	je	.L3431
	cmpb	3425(%rdi), %cl
	je	.L3432
	cmpb	3426(%rdi), %al
	je	.L3433
	cmpb	3427(%rdi), %dl
	je	.L3434
	cmpb	3428(%rdi), %cl
	je	.L3435
	cmpb	3429(%rdi), %al
	je	.L3436
	cmpb	3430(%rdi), %dl
	je	.L3437
	cmpb	3431(%rdi), %cl
	je	.L3438
	cmpb	3432(%rdi), %al
	je	.L3439
	cmpb	3433(%rdi), %dl
	je	.L3440
	cmpb	3434(%rdi), %cl
	je	.L3441
	cmpb	3435(%rdi), %al
	je	.L3442
	cmpb	3436(%rdi), %dl
	je	.L3443
	cmpb	3437(%rdi), %cl
	je	.L3444
	cmpb	3438(%rdi), %al
	je	.L3445
	cmpb	3439(%rdi), %dl
	je	.L3446
	cmpb	3440(%rdi), %cl
	je	.L3447
	cmpb	3441(%rdi), %al
	je	.L3448
	cmpb	3442(%rdi), %dl
	je	.L3449
	cmpb	3443(%rdi), %cl
	je	.L3450
	cmpb	3444(%rdi), %al
	je	.L3451
	cmpb	3445(%rdi), %dl
	je	.L3452
	cmpb	3446(%rdi), %cl
	je	.L3453
	cmpb	3447(%rdi), %al
	je	.L3454
	cmpb	3448(%rdi), %dl
	je	.L3455
	cmpb	3449(%rdi), %cl
	je	.L3456
	cmpb	3450(%rdi), %al
	je	.L3457
	cmpb	3451(%rdi), %dl
	je	.L3458
	cmpb	3452(%rdi), %cl
	je	.L3459
	cmpb	3453(%rdi), %al
	je	.L3460
	cmpb	3454(%rdi), %dl
	je	.L3461
	cmpb	3455(%rdi), %cl
	je	.L3462
	cmpb	3456(%rdi), %al
	je	.L3463
	cmpb	3457(%rdi), %dl
	je	.L3464
	cmpb	3458(%rdi), %cl
	je	.L3465
	cmpb	3459(%rdi), %al
	je	.L3466
	cmpb	3460(%rdi), %dl
	je	.L3467
	cmpb	3461(%rdi), %cl
	je	.L3468
	cmpb	3462(%rdi), %al
	je	.L3469
	cmpb	3463(%rdi), %dl
	je	.L3470
	cmpb	3464(%rdi), %cl
	je	.L3471
	cmpb	3465(%rdi), %al
	je	.L3472
	cmpb	3466(%rdi), %dl
	je	.L3473
	cmpb	3467(%rdi), %cl
	je	.L3474
	cmpb	3468(%rdi), %al
	je	.L3475
	cmpb	3469(%rdi), %dl
	je	.L3476
	cmpb	3470(%rdi), %cl
	je	.L3477
	cmpb	3471(%rdi), %al
	je	.L3478
	cmpb	3472(%rdi), %dl
	je	.L3479
	cmpb	3473(%rdi), %cl
	je	.L3480
	cmpb	3474(%rdi), %al
	je	.L3481
	cmpb	3475(%rdi), %dl
	je	.L3482
	cmpb	3476(%rdi), %cl
	je	.L3483
	cmpb	3477(%rdi), %al
	je	.L3484
	cmpb	3478(%rdi), %dl
	je	.L3485
	cmpb	3479(%rdi), %cl
	je	.L3486
	cmpb	3480(%rdi), %al
	je	.L3487
	cmpb	3481(%rdi), %dl
	je	.L3488
	cmpb	3482(%rdi), %cl
	je	.L3489
	cmpb	3483(%rdi), %al
	je	.L3490
	cmpb	3484(%rdi), %dl
	je	.L3491
	cmpb	3485(%rdi), %cl
	je	.L3492
	cmpb	3486(%rdi), %al
	je	.L3493
	cmpb	3487(%rdi), %dl
	je	.L3494
	cmpb	3488(%rdi), %cl
	je	.L3495
	cmpb	3489(%rdi), %al
	je	.L3496
	cmpb	3490(%rdi), %dl
	je	.L3497
	cmpb	3491(%rdi), %cl
	je	.L3498
	cmpb	3492(%rdi), %al
	je	.L3499
	cmpb	3493(%rdi), %dl
	je	.L3500
	cmpb	3494(%rdi), %cl
	je	.L3501
	cmpb	3495(%rdi), %al
	je	.L3502
	cmpb	3496(%rdi), %dl
	je	.L3503
	cmpb	3497(%rdi), %cl
	je	.L3504
	cmpb	3498(%rdi), %al
	je	.L3505
	cmpb	3499(%rdi), %dl
	je	.L3506
	cmpb	3500(%rdi), %cl
	je	.L3507
	cmpb	3501(%rdi), %al
	je	.L3508
	cmpb	3502(%rdi), %dl
	je	.L3509
	cmpb	3503(%rdi), %cl
	je	.L3510
	cmpb	3504(%rdi), %al
	je	.L3511
	cmpb	3505(%rdi), %dl
	je	.L3512
	cmpb	3506(%rdi), %cl
	je	.L3513
	cmpb	3507(%rdi), %al
	je	.L3514
	cmpb	3508(%rdi), %dl
	je	.L3515
	cmpb	3509(%rdi), %cl
	je	.L3516
	cmpb	3510(%rdi), %al
	je	.L3517
	cmpb	3511(%rdi), %dl
	je	.L3518
	cmpb	3512(%rdi), %cl
	je	.L3519
	cmpb	3513(%rdi), %al
	je	.L3520
	cmpb	3514(%rdi), %dl
	je	.L3521
	cmpb	3515(%rdi), %cl
	je	.L3522
	cmpb	3516(%rdi), %al
	je	.L3523
	cmpb	3517(%rdi), %dl
	je	.L3524
	cmpb	3518(%rdi), %cl
	je	.L3525
	cmpb	3519(%rdi), %al
	je	.L3526
	cmpb	3520(%rdi), %dl
	je	.L3527
	cmpb	3521(%rdi), %cl
	je	.L3528
	cmpb	3522(%rdi), %al
	je	.L3529
	cmpb	3523(%rdi), %dl
	je	.L3530
	cmpb	3524(%rdi), %cl
	je	.L3531
	cmpb	3525(%rdi), %al
	je	.L3532
	cmpb	3526(%rdi), %dl
	je	.L3533
	cmpb	3527(%rdi), %cl
	je	.L3534
	cmpb	3528(%rdi), %al
	je	.L3535
	cmpb	3529(%rdi), %dl
	je	.L3536
	cmpb	3530(%rdi), %cl
	je	.L3537
	cmpb	3531(%rdi), %al
	je	.L3538
	cmpb	3532(%rdi), %dl
	je	.L3539
	cmpb	3533(%rdi), %cl
	je	.L3540
	cmpb	3534(%rdi), %al
	je	.L3541
	cmpb	3535(%rdi), %dl
	je	.L3542
	cmpb	3536(%rdi), %cl
	je	.L3543
	cmpb	3537(%rdi), %al
	je	.L3544
	cmpb	3538(%rdi), %dl
	je	.L3545
	cmpb	3539(%rdi), %cl
	je	.L3546
	cmpb	3540(%rdi), %al
	je	.L3547
	cmpb	3541(%rdi), %dl
	je	.L3548
	cmpb	3542(%rdi), %cl
	je	.L3549
	cmpb	3543(%rdi), %al
	je	.L3550
	cmpb	3544(%rdi), %dl
	je	.L3551
	cmpb	3545(%rdi), %cl
	je	.L3552
	cmpb	3546(%rdi), %al
	je	.L3553
	cmpb	3547(%rdi), %dl
	je	.L3554
	cmpb	3548(%rdi), %cl
	je	.L3555
	cmpb	3549(%rdi), %al
	je	.L3556
	cmpb	3550(%rdi), %dl
	je	.L3557
	cmpb	3551(%rdi), %cl
	je	.L3558
	cmpb	3552(%rdi), %al
	je	.L3559
	cmpb	3553(%rdi), %dl
	je	.L3560
	cmpb	3554(%rdi), %cl
	je	.L3561
	cmpb	3555(%rdi), %al
	je	.L3562
	cmpb	3556(%rdi), %dl
	je	.L3563
	cmpb	3557(%rdi), %cl
	je	.L3564
	cmpb	3558(%rdi), %al
	je	.L3565
	cmpb	3559(%rdi), %dl
	je	.L3566
	cmpb	3560(%rdi), %cl
	je	.L3567
	cmpb	3561(%rdi), %al
	je	.L3568
	cmpb	3562(%rdi), %dl
	je	.L3569
	cmpb	3563(%rdi), %cl
	je	.L3570
	cmpb	3564(%rdi), %al
	je	.L3571
	cmpb	3565(%rdi), %dl
	je	.L3572
	cmpb	3566(%rdi), %cl
	je	.L3573
	cmpb	3567(%rdi), %al
	je	.L3574
	cmpb	3568(%rdi), %dl
	je	.L3575
	cmpb	3569(%rdi), %cl
	je	.L3576
	cmpb	3570(%rdi), %al
	je	.L3577
	cmpb	3571(%rdi), %dl
	je	.L3578
	cmpb	3572(%rdi), %cl
	je	.L3579
	cmpb	3573(%rdi), %al
	je	.L3580
	cmpb	3574(%rdi), %dl
	je	.L3581
	cmpb	3575(%rdi), %cl
	je	.L3582
	cmpb	3576(%rdi), %al
	je	.L3583
	cmpb	3577(%rdi), %dl
	je	.L3584
	cmpb	3578(%rdi), %cl
	je	.L3585
	cmpb	3579(%rdi), %al
	je	.L3586
	cmpb	3580(%rdi), %dl
	je	.L3587
	cmpb	3581(%rdi), %cl
	je	.L3588
	cmpb	3582(%rdi), %al
	je	.L3589
	cmpb	3583(%rdi), %dl
	je	.L3590
	cmpb	3584(%rdi), %cl
	je	.L3591
	cmpb	3585(%rdi), %al
	je	.L3592
	cmpb	3586(%rdi), %dl
	je	.L3593
	cmpb	3587(%rdi), %cl
	je	.L3594
	cmpb	3588(%rdi), %al
	je	.L3595
	cmpb	3589(%rdi), %dl
	je	.L3596
	cmpb	3590(%rdi), %cl
	je	.L3597
	cmpb	3591(%rdi), %al
	je	.L3598
	cmpb	3592(%rdi), %dl
	je	.L3599
	cmpb	3593(%rdi), %cl
	je	.L3600
	cmpb	3594(%rdi), %al
	je	.L3601
	cmpb	3595(%rdi), %dl
	je	.L3602
	cmpb	3596(%rdi), %cl
	je	.L3603
	cmpb	3597(%rdi), %al
	je	.L3604
	cmpb	3598(%rdi), %dl
	je	.L3605
	cmpb	3599(%rdi), %cl
	je	.L3606
	cmpb	3600(%rdi), %al
	je	.L3607
	cmpb	3601(%rdi), %dl
	je	.L3608
	cmpb	3602(%rdi), %cl
	je	.L3609
	cmpb	3603(%rdi), %al
	je	.L3610
	cmpb	3604(%rdi), %dl
	je	.L3611
	cmpb	3605(%rdi), %cl
	je	.L3612
	cmpb	3606(%rdi), %al
	je	.L3613
	cmpb	3607(%rdi), %dl
	je	.L3614
	cmpb	3608(%rdi), %cl
	je	.L3615
	cmpb	3609(%rdi), %al
	je	.L3616
	cmpb	3610(%rdi), %dl
	je	.L3617
	cmpb	3611(%rdi), %cl
	je	.L3618
	cmpb	3612(%rdi), %al
	je	.L3619
	cmpb	3613(%rdi), %dl
	je	.L3620
	cmpb	3614(%rdi), %cl
	je	.L3621
	cmpb	3615(%rdi), %al
	je	.L3622
	cmpb	3616(%rdi), %dl
	je	.L3623
	cmpb	3617(%rdi), %cl
	je	.L3624
	cmpb	3618(%rdi), %al
	je	.L3625
	cmpb	3619(%rdi), %dl
	je	.L3626
	cmpb	3620(%rdi), %cl
	je	.L3627
	cmpb	3621(%rdi), %al
	je	.L3628
	cmpb	3622(%rdi), %dl
	je	.L3629
	cmpb	3623(%rdi), %cl
	je	.L3630
	cmpb	3624(%rdi), %al
	je	.L3631
	cmpb	3625(%rdi), %dl
	je	.L3632
	cmpb	3626(%rdi), %cl
	je	.L3633
	cmpb	3627(%rdi), %al
	je	.L3634
	cmpb	3628(%rdi), %dl
	je	.L3635
	cmpb	3629(%rdi), %cl
	je	.L3636
	cmpb	3630(%rdi), %al
	je	.L3637
	cmpb	3631(%rdi), %dl
	je	.L3638
	cmpb	3632(%rdi), %cl
	je	.L3639
	cmpb	3633(%rdi), %al
	je	.L3640
	cmpb	3634(%rdi), %dl
	je	.L3641
	cmpb	3635(%rdi), %cl
	je	.L3642
	cmpb	3636(%rdi), %al
	je	.L3643
	cmpb	3637(%rdi), %dl
	je	.L3644
	cmpb	3638(%rdi), %cl
	je	.L3645
	cmpb	3639(%rdi), %al
	je	.L3646
	cmpb	3640(%rdi), %dl
	je	.L3647
	cmpb	3641(%rdi), %cl
	je	.L3648
	cmpb	3642(%rdi), %al
	je	.L3649
	cmpb	3643(%rdi), %dl
	je	.L3650
	cmpb	3644(%rdi), %cl
	je	.L3651
	cmpb	3645(%rdi), %al
	je	.L3652
	cmpb	3646(%rdi), %dl
	je	.L3653
	cmpb	3647(%rdi), %cl
	je	.L3654
	cmpb	3648(%rdi), %al
	je	.L3655
	cmpb	3649(%rdi), %dl
	je	.L3656
	cmpb	3650(%rdi), %cl
	je	.L3657
	cmpb	3651(%rdi), %al
	je	.L3658
	cmpb	3652(%rdi), %dl
	je	.L3659
	cmpb	3653(%rdi), %cl
	je	.L3660
	cmpb	3654(%rdi), %al
	je	.L3661
	cmpb	3655(%rdi), %dl
	je	.L3662
	cmpb	3656(%rdi), %cl
	je	.L3663
	cmpb	3657(%rdi), %al
	je	.L3664
	cmpb	3658(%rdi), %dl
	je	.L3665
	cmpb	3659(%rdi), %cl
	je	.L3666
	cmpb	3660(%rdi), %al
	je	.L3667
	cmpb	3661(%rdi), %dl
	je	.L3668
	cmpb	3662(%rdi), %cl
	je	.L3669
	cmpb	3663(%rdi), %al
	je	.L3670
	cmpb	3664(%rdi), %dl
	je	.L3671
	cmpb	3665(%rdi), %cl
	je	.L3672
	cmpb	3666(%rdi), %al
	je	.L3673
	cmpb	3667(%rdi), %dl
	je	.L3674
	cmpb	3668(%rdi), %cl
	je	.L3675
	cmpb	3669(%rdi), %al
	je	.L3676
	cmpb	3670(%rdi), %dl
	je	.L3677
	cmpb	3671(%rdi), %cl
	je	.L3678
	cmpb	3672(%rdi), %al
	je	.L3679
	cmpb	3673(%rdi), %dl
	je	.L3680
	cmpb	3674(%rdi), %cl
	je	.L3681
	cmpb	3675(%rdi), %al
	je	.L3682
	cmpb	3676(%rdi), %dl
	je	.L3683
	cmpb	3677(%rdi), %cl
	je	.L3684
	cmpb	3678(%rdi), %al
	je	.L3685
	cmpb	3679(%rdi), %dl
	je	.L3686
	cmpb	3680(%rdi), %cl
	je	.L3687
	cmpb	3681(%rdi), %al
	je	.L3688
	cmpb	3682(%rdi), %dl
	je	.L3689
	cmpb	3683(%rdi), %cl
	je	.L3690
	cmpb	3684(%rdi), %al
	je	.L3691
	cmpb	3685(%rdi), %dl
	je	.L3692
	cmpb	3686(%rdi), %cl
	je	.L3693
	cmpb	3687(%rdi), %al
	je	.L3694
	cmpb	3688(%rdi), %dl
	je	.L3695
	cmpb	3689(%rdi), %cl
	je	.L3696
	cmpb	3690(%rdi), %al
	je	.L3697
	cmpb	3691(%rdi), %dl
	je	.L3698
	cmpb	3692(%rdi), %cl
	je	.L3699
	cmpb	3693(%rdi), %al
	je	.L3700
	cmpb	3694(%rdi), %dl
	je	.L3701
	cmpb	3695(%rdi), %cl
	je	.L3702
	cmpb	3696(%rdi), %al
	je	.L3703
	cmpb	3697(%rdi), %dl
	je	.L3704
	cmpb	3698(%rdi), %cl
	je	.L3705
	cmpb	3699(%rdi), %al
	je	.L3706
	cmpb	3700(%rdi), %dl
	je	.L3707
	cmpb	3701(%rdi), %cl
	je	.L3708
	cmpb	3702(%rdi), %al
	je	.L3709
	cmpb	3703(%rdi), %dl
	je	.L3710
	cmpb	3704(%rdi), %cl
	je	.L3711
	cmpb	3705(%rdi), %al
	je	.L3712
	cmpb	3706(%rdi), %dl
	je	.L3713
	cmpb	3707(%rdi), %cl
	je	.L3714
	cmpb	3708(%rdi), %al
	je	.L3715
	cmpb	3709(%rdi), %dl
	je	.L3716
	cmpb	3710(%rdi), %cl
	je	.L3717
	cmpb	3711(%rdi), %al
	je	.L3718
	cmpb	3712(%rdi), %dl
	je	.L3719
	cmpb	3713(%rdi), %cl
	je	.L3720
	cmpb	3714(%rdi), %al
	je	.L3721
	cmpb	3715(%rdi), %dl
	je	.L3722
	cmpb	3716(%rdi), %cl
	je	.L3723
	cmpb	3717(%rdi), %al
	je	.L3724
	cmpb	3718(%rdi), %dl
	je	.L3725
	cmpb	3719(%rdi), %cl
	je	.L3726
	cmpb	3720(%rdi), %al
	je	.L3727
	cmpb	3721(%rdi), %dl
	je	.L3728
	cmpb	3722(%rdi), %cl
	je	.L3729
	cmpb	3723(%rdi), %al
	je	.L3730
	cmpb	3724(%rdi), %dl
	je	.L3731
	cmpb	3725(%rdi), %cl
	je	.L3732
	cmpb	3726(%rdi), %al
	je	.L3733
	cmpb	3727(%rdi), %dl
	je	.L3734
	cmpb	3728(%rdi), %cl
	je	.L3735
	cmpb	3729(%rdi), %al
	je	.L3736
	cmpb	3730(%rdi), %dl
	je	.L3737
	cmpb	3731(%rdi), %cl
	je	.L3738
	cmpb	3732(%rdi), %al
	je	.L3739
	cmpb	3733(%rdi), %dl
	je	.L3740
	cmpb	3734(%rdi), %cl
	je	.L3741
	cmpb	3735(%rdi), %al
	je	.L3742
	cmpb	3736(%rdi), %dl
	je	.L3743
	cmpb	3737(%rdi), %cl
	je	.L3744
	cmpb	3738(%rdi), %al
	je	.L3745
	cmpb	3739(%rdi), %dl
	je	.L3746
	cmpb	3740(%rdi), %cl
	je	.L3747
	cmpb	3741(%rdi), %al
	je	.L3748
	cmpb	3742(%rdi), %dl
	je	.L3749
	cmpb	3743(%rdi), %cl
	je	.L3750
	cmpb	3744(%rdi), %al
	je	.L3751
	cmpb	3745(%rdi), %dl
	je	.L3752
	cmpb	3746(%rdi), %cl
	je	.L3753
	cmpb	3747(%rdi), %al
	je	.L3754
	cmpb	3748(%rdi), %dl
	je	.L3755
	cmpb	3749(%rdi), %cl
	je	.L3756
	cmpb	3750(%rdi), %al
	je	.L3757
	cmpb	3751(%rdi), %dl
	je	.L3758
	cmpb	3752(%rdi), %cl
	je	.L3759
	cmpb	3753(%rdi), %al
	je	.L3760
	cmpb	3754(%rdi), %dl
	je	.L3761
	cmpb	3755(%rdi), %cl
	je	.L3762
	cmpb	3756(%rdi), %al
	je	.L3763
	cmpb	3757(%rdi), %dl
	je	.L3764
	cmpb	3758(%rdi), %cl
	je	.L3765
	cmpb	3759(%rdi), %al
	je	.L3766
	cmpb	3760(%rdi), %dl
	je	.L3767
	cmpb	3761(%rdi), %cl
	je	.L3768
	cmpb	3762(%rdi), %al
	je	.L3769
	cmpb	3763(%rdi), %dl
	je	.L3770
	cmpb	3764(%rdi), %cl
	je	.L3771
	cmpb	3765(%rdi), %al
	je	.L3772
	cmpb	3766(%rdi), %dl
	je	.L3773
	cmpb	3767(%rdi), %cl
	je	.L3774
	cmpb	3768(%rdi), %al
	je	.L3775
	cmpb	3769(%rdi), %dl
	je	.L3776
	cmpb	3770(%rdi), %cl
	je	.L3777
	cmpb	3771(%rdi), %al
	je	.L3778
	cmpb	3772(%rdi), %dl
	je	.L3779
	cmpb	3773(%rdi), %cl
	je	.L3780
	cmpb	3774(%rdi), %al
	je	.L3781
	cmpb	3775(%rdi), %dl
	je	.L3782
	cmpb	3776(%rdi), %cl
	je	.L3783
	cmpb	3777(%rdi), %al
	je	.L3784
	cmpb	3778(%rdi), %dl
	je	.L3785
	cmpb	3779(%rdi), %cl
	je	.L3786
	cmpb	3780(%rdi), %al
	je	.L3787
	cmpb	3781(%rdi), %dl
	je	.L3788
	cmpb	3782(%rdi), %cl
	je	.L3789
	cmpb	3783(%rdi), %al
	je	.L3790
	cmpb	3784(%rdi), %dl
	je	.L3791
	cmpb	3785(%rdi), %cl
	je	.L3792
	cmpb	3786(%rdi), %al
	je	.L3793
	cmpb	3787(%rdi), %dl
	je	.L3794
	cmpb	3788(%rdi), %cl
	je	.L3795
	cmpb	3789(%rdi), %al
	je	.L3796
	cmpb	3790(%rdi), %dl
	je	.L3797
	cmpb	3791(%rdi), %cl
	je	.L3798
	cmpb	3792(%rdi), %al
	je	.L3799
	cmpb	3793(%rdi), %dl
	je	.L3800
	cmpb	3794(%rdi), %cl
	je	.L3801
	cmpb	3795(%rdi), %al
	je	.L3802
	cmpb	3796(%rdi), %dl
	je	.L3803
	cmpb	3797(%rdi), %cl
	je	.L3804
	cmpb	3798(%rdi), %al
	je	.L3805
	cmpb	3799(%rdi), %dl
	je	.L3806
	cmpb	3800(%rdi), %cl
	je	.L3807
	cmpb	3801(%rdi), %al
	je	.L3808
	cmpb	3802(%rdi), %dl
	je	.L3809
	cmpb	3803(%rdi), %cl
	je	.L3810
	cmpb	3804(%rdi), %al
	je	.L3811
	cmpb	3805(%rdi), %dl
	je	.L3812
	cmpb	3806(%rdi), %cl
	je	.L3813
	cmpb	3807(%rdi), %al
	je	.L3814
	cmpb	3808(%rdi), %dl
	je	.L3815
	cmpb	3809(%rdi), %cl
	je	.L3816
	cmpb	3810(%rdi), %al
	je	.L3817
	cmpb	3811(%rdi), %dl
	je	.L3818
	cmpb	3812(%rdi), %cl
	je	.L3819
	cmpb	3813(%rdi), %al
	je	.L3820
	cmpb	3814(%rdi), %dl
	je	.L3821
	cmpb	3815(%rdi), %cl
	je	.L3822
	cmpb	3816(%rdi), %al
	je	.L3823
	cmpb	3817(%rdi), %dl
	je	.L3824
	cmpb	3818(%rdi), %cl
	je	.L3825
	cmpb	3819(%rdi), %al
	je	.L3826
	cmpb	3820(%rdi), %dl
	je	.L3827
	cmpb	3821(%rdi), %cl
	je	.L3828
	cmpb	3822(%rdi), %al
	je	.L3829
	cmpb	3823(%rdi), %dl
	je	.L3830
	cmpb	3824(%rdi), %cl
	je	.L3831
	cmpb	3825(%rdi), %al
	je	.L3832
	cmpb	3826(%rdi), %dl
	je	.L3833
	cmpb	3827(%rdi), %cl
	je	.L3834
	cmpb	3828(%rdi), %al
	je	.L3835
	cmpb	3829(%rdi), %dl
	je	.L3836
	cmpb	3830(%rdi), %cl
	je	.L3837
	cmpb	3831(%rdi), %al
	je	.L3838
	cmpb	3832(%rdi), %dl
	je	.L3839
	cmpb	3833(%rdi), %cl
	je	.L3840
	cmpb	3834(%rdi), %al
	je	.L3841
	cmpb	3835(%rdi), %dl
	je	.L3842
	cmpb	3836(%rdi), %cl
	je	.L3843
	cmpb	3837(%rdi), %al
	je	.L3844
	cmpb	3838(%rdi), %dl
	je	.L3845
	cmpb	3839(%rdi), %cl
	je	.L3846
	cmpb	3840(%rdi), %al
	je	.L3847
	cmpb	3841(%rdi), %dl
	je	.L3848
	cmpb	3842(%rdi), %cl
	je	.L3849
	cmpb	3843(%rdi), %al
	je	.L3850
	cmpb	3844(%rdi), %dl
	je	.L3851
	cmpb	3845(%rdi), %cl
	je	.L3852
	cmpb	3846(%rdi), %al
	je	.L3853
	cmpb	3847(%rdi), %dl
	je	.L3854
	cmpb	3848(%rdi), %cl
	je	.L3855
	cmpb	3849(%rdi), %al
	je	.L3856
	cmpb	3850(%rdi), %dl
	je	.L3857
	cmpb	3851(%rdi), %cl
	je	.L3858
	cmpb	3852(%rdi), %al
	je	.L3859
	cmpb	3853(%rdi), %dl
	je	.L3860
	cmpb	3854(%rdi), %cl
	je	.L3861
	cmpb	3855(%rdi), %al
	je	.L3862
	cmpb	3856(%rdi), %dl
	je	.L3863
	cmpb	3857(%rdi), %cl
	je	.L3864
	cmpb	3858(%rdi), %al
	je	.L3865
	cmpb	3859(%rdi), %dl
	je	.L3866
	cmpb	3860(%rdi), %cl
	je	.L3867
	cmpb	3861(%rdi), %al
	je	.L3868
	cmpb	3862(%rdi), %dl
	je	.L3869
	cmpb	3863(%rdi), %cl
	je	.L3870
	cmpb	3864(%rdi), %al
	je	.L3871
	cmpb	3865(%rdi), %dl
	je	.L3872
	cmpb	3866(%rdi), %cl
	je	.L3873
	cmpb	3867(%rdi), %al
	je	.L3874
	cmpb	3868(%rdi), %dl
	je	.L3875
	cmpb	3869(%rdi), %cl
	je	.L3876
	cmpb	3870(%rdi), %al
	je	.L3877
	cmpb	3871(%rdi), %dl
	je	.L3878
	cmpb	3872(%rdi), %cl
	je	.L3879
	cmpb	3873(%rdi), %al
	je	.L3880
	cmpb	3874(%rdi), %dl
	je	.L3881
	cmpb	3875(%rdi), %cl
	je	.L3882
	cmpb	3876(%rdi), %al
	je	.L3883
	cmpb	3877(%rdi), %dl
	je	.L3884
	cmpb	3878(%rdi), %cl
	je	.L3885
	cmpb	3879(%rdi), %al
	je	.L3886
	cmpb	3880(%rdi), %dl
	je	.L3887
	cmpb	3881(%rdi), %cl
	je	.L3888
	cmpb	3882(%rdi), %al
	je	.L3889
	cmpb	3883(%rdi), %dl
	je	.L3890
	cmpb	3884(%rdi), %cl
	je	.L3891
	cmpb	3885(%rdi), %al
	je	.L3892
	cmpb	3886(%rdi), %dl
	je	.L3893
	cmpb	3887(%rdi), %cl
	je	.L3894
	cmpb	3888(%rdi), %al
	je	.L3895
	cmpb	3889(%rdi), %dl
	je	.L3896
	cmpb	3890(%rdi), %cl
	je	.L3897
	cmpb	3891(%rdi), %al
	je	.L3898
	cmpb	3892(%rdi), %dl
	je	.L3899
	cmpb	3893(%rdi), %cl
	je	.L3900
	cmpb	3894(%rdi), %al
	je	.L3901
	cmpb	3895(%rdi), %dl
	je	.L3902
	cmpb	3896(%rdi), %cl
	je	.L3903
	cmpb	3897(%rdi), %al
	je	.L3904
	cmpb	3898(%rdi), %dl
	je	.L3905
	cmpb	3899(%rdi), %cl
	je	.L3906
	cmpb	3900(%rdi), %al
	je	.L3907
	cmpb	3901(%rdi), %dl
	je	.L3908
	cmpb	3902(%rdi), %cl
	je	.L3909
	cmpb	3903(%rdi), %al
	je	.L3910
	cmpb	3904(%rdi), %dl
	je	.L3911
	cmpb	3905(%rdi), %cl
	je	.L3912
	cmpb	3906(%rdi), %al
	je	.L3913
	cmpb	3907(%rdi), %dl
	je	.L3914
	cmpb	3908(%rdi), %cl
	je	.L3915
	cmpb	3909(%rdi), %al
	je	.L3916
	cmpb	3910(%rdi), %dl
	je	.L3917
	cmpb	3911(%rdi), %cl
	je	.L3918
	cmpb	3912(%rdi), %al
	je	.L3919
	cmpb	3913(%rdi), %dl
	je	.L3920
	cmpb	3914(%rdi), %cl
	je	.L3921
	cmpb	3915(%rdi), %al
	je	.L3922
	cmpb	3916(%rdi), %dl
	je	.L3923
	cmpb	3917(%rdi), %cl
	je	.L3924
	cmpb	3918(%rdi), %al
	je	.L3925
	cmpb	3919(%rdi), %dl
	je	.L3926
	cmpb	3920(%rdi), %cl
	je	.L3927
	cmpb	3921(%rdi), %al
	je	.L3928
	cmpb	3922(%rdi), %dl
	je	.L3929
	cmpb	3923(%rdi), %cl
	je	.L3930
	cmpb	3924(%rdi), %al
	je	.L3931
	cmpb	3925(%rdi), %dl
	je	.L3932
	cmpb	3926(%rdi), %cl
	je	.L3933
	cmpb	3927(%rdi), %al
	je	.L3934
	cmpb	3928(%rdi), %dl
	je	.L3935
	cmpb	3929(%rdi), %cl
	je	.L3936
	cmpb	3930(%rdi), %al
	je	.L3937
	cmpb	3931(%rdi), %dl
	je	.L3938
	cmpb	3932(%rdi), %cl
	je	.L3939
	cmpb	3933(%rdi), %al
	je	.L3940
	cmpb	3934(%rdi), %dl
	je	.L3941
	cmpb	3935(%rdi), %cl
	je	.L3942
	cmpb	3936(%rdi), %al
	je	.L3943
	cmpb	3937(%rdi), %dl
	je	.L3944
	cmpb	3938(%rdi), %cl
	je	.L3945
	cmpb	3939(%rdi), %al
	je	.L3946
	cmpb	3940(%rdi), %dl
	je	.L3947
	cmpb	3941(%rdi), %cl
	je	.L3948
	cmpb	3942(%rdi), %al
	je	.L3949
	cmpb	3943(%rdi), %dl
	je	.L3950
	cmpb	3944(%rdi), %cl
	je	.L3951
	cmpb	3945(%rdi), %al
	je	.L3952
	cmpb	3946(%rdi), %dl
	je	.L3953
	cmpb	3947(%rdi), %cl
	je	.L3954
	cmpb	3948(%rdi), %al
	je	.L3955
	cmpb	3949(%rdi), %dl
	je	.L3956
	cmpb	3950(%rdi), %cl
	je	.L3957
	cmpb	3951(%rdi), %al
	je	.L3958
	cmpb	3952(%rdi), %dl
	je	.L3959
	cmpb	3953(%rdi), %cl
	je	.L3960
	cmpb	3954(%rdi), %al
	je	.L3961
	cmpb	3955(%rdi), %dl
	je	.L3962
	cmpb	3956(%rdi), %cl
	je	.L3963
	cmpb	3957(%rdi), %al
	je	.L3964
	cmpb	3958(%rdi), %dl
	je	.L3965
	cmpb	3959(%rdi), %cl
	je	.L3966
	cmpb	3960(%rdi), %al
	je	.L3967
	cmpb	3961(%rdi), %dl
	je	.L3968
	cmpb	3962(%rdi), %cl
	je	.L3969
	cmpb	3963(%rdi), %al
	je	.L3970
	cmpb	3964(%rdi), %dl
	je	.L3971
	cmpb	3965(%rdi), %cl
	je	.L3972
	cmpb	3966(%rdi), %al
	je	.L3973
	cmpb	3967(%rdi), %dl
	je	.L3974
	cmpb	3968(%rdi), %cl
	je	.L3975
	cmpb	3969(%rdi), %al
	je	.L3976
	cmpb	3970(%rdi), %dl
	je	.L3977
	cmpb	3971(%rdi), %cl
	je	.L3978
	cmpb	3972(%rdi), %al
	je	.L3979
	cmpb	3973(%rdi), %dl
	je	.L3980
	cmpb	3974(%rdi), %cl
	je	.L3981
	cmpb	3975(%rdi), %al
	je	.L3982
	cmpb	3976(%rdi), %dl
	je	.L3983
	cmpb	3977(%rdi), %cl
	je	.L3984
	cmpb	3978(%rdi), %al
	je	.L3985
	cmpb	3979(%rdi), %dl
	je	.L3986
	cmpb	3980(%rdi), %cl
	je	.L3987
	cmpb	3981(%rdi), %al
	je	.L3988
	cmpb	3982(%rdi), %dl
	je	.L3989
	cmpb	3983(%rdi), %cl
	je	.L3990
	cmpb	3984(%rdi), %al
	je	.L3991
	cmpb	3985(%rdi), %dl
	je	.L3992
	cmpb	3986(%rdi), %cl
	je	.L3993
	cmpb	3987(%rdi), %al
	je	.L3994
	cmpb	3988(%rdi), %dl
	je	.L3995
	cmpb	3989(%rdi), %cl
	je	.L3996
	cmpb	3990(%rdi), %al
	je	.L3997
	cmpb	3991(%rdi), %dl
	je	.L3998
	cmpb	3992(%rdi), %cl
	je	.L3999
	cmpb	3993(%rdi), %al
	je	.L4000
	cmpb	3994(%rdi), %dl
	je	.L4001
	cmpb	3995(%rdi), %cl
	je	.L4002
	cmpb	3996(%rdi), %al
	je	.L4003
	cmpb	3997(%rdi), %dl
	je	.L4004
	cmpb	3998(%rdi), %cl
	je	.L4005
	cmpb	3999(%rdi), %al
	je	.L4006
	cmpb	4000(%rdi), %dl
	je	.L4007
	cmpb	4001(%rdi), %cl
	je	.L4008
	cmpb	4002(%rdi), %al
	je	.L4009
	cmpb	4003(%rdi), %dl
	je	.L4010
	cmpb	4004(%rdi), %cl
	je	.L4011
	cmpb	4005(%rdi), %al
	je	.L4012
	cmpb	4006(%rdi), %dl
	je	.L4013
	cmpb	4007(%rdi), %cl
	je	.L4014
	cmpb	4008(%rdi), %al
	je	.L4015
	cmpb	4009(%rdi), %dl
	je	.L4016
	cmpb	4010(%rdi), %cl
	je	.L4017
	cmpb	4011(%rdi), %al
	je	.L4018
	cmpb	4012(%rdi), %dl
	je	.L4019
	cmpb	4013(%rdi), %cl
	je	.L4020
	cmpb	4014(%rdi), %al
	je	.L4021
	cmpb	4015(%rdi), %dl
	je	.L4022
	cmpb	4016(%rdi), %cl
	je	.L4023
	cmpb	4017(%rdi), %al
	je	.L4024
	cmpb	4018(%rdi), %dl
	je	.L4025
	cmpb	4019(%rdi), %cl
	je	.L4026
	cmpb	4020(%rdi), %al
	je	.L4027
	cmpb	4021(%rdi), %dl
	je	.L4028
	cmpb	4022(%rdi), %cl
	je	.L4029
	cmpb	4023(%rdi), %al
	je	.L4030
	cmpb	4024(%rdi), %dl
	je	.L4031
	cmpb	4025(%rdi), %cl
	je	.L4032
	cmpb	4026(%rdi), %al
	je	.L4033
	cmpb	4027(%rdi), %dl
	je	.L4034
	cmpb	4028(%rdi), %cl
	je	.L4035
	cmpb	4029(%rdi), %al
	je	.L4036
	cmpb	4030(%rdi), %dl
	je	.L4037
	cmpb	4031(%rdi), %cl
	je	.L4038
	cmpb	4032(%rdi), %al
	je	.L4039
	cmpb	4033(%rdi), %dl
	je	.L4040
	cmpb	4034(%rdi), %cl
	je	.L4041
	cmpb	4035(%rdi), %al
	je	.L4042
	cmpb	4036(%rdi), %dl
	je	.L4043
	cmpb	4037(%rdi), %cl
	je	.L4044
	cmpb	4038(%rdi), %al
	je	.L4045
	cmpb	4039(%rdi), %dl
	je	.L4046
	cmpb	4040(%rdi), %cl
	je	.L4047
	cmpb	4041(%rdi), %al
	je	.L4048
	cmpb	4042(%rdi), %dl
	je	.L4049
	cmpb	4043(%rdi), %cl
	je	.L4050
	cmpb	4044(%rdi), %al
	je	.L4051
	cmpb	4045(%rdi), %dl
	je	.L4052
	cmpb	4046(%rdi), %cl
	je	.L4053
	cmpb	4047(%rdi), %al
	je	.L4054
	cmpb	4048(%rdi), %dl
	je	.L4055
	cmpb	4049(%rdi), %cl
	je	.L4056
	cmpb	4050(%rdi), %al
	je	.L4057
	cmpb	4051(%rdi), %dl
	je	.L4058
	cmpb	4052(%rdi), %cl
	je	.L4059
	cmpb	4053(%rdi), %al
	je	.L4060
	cmpb	4054(%rdi), %dl
	je	.L4061
	cmpb	4055(%rdi), %cl
	je	.L4062
	cmpb	4056(%rdi), %al
	je	.L4063
	cmpb	4057(%rdi), %dl
	je	.L4064
	cmpb	4058(%rdi), %cl
	je	.L4065
	cmpb	4059(%rdi), %al
	je	.L4066
	cmpb	4060(%rdi), %dl
	je	.L4067
	cmpb	4061(%rdi), %cl
	je	.L4068
	cmpb	4062(%rdi), %al
	je	.L4069
	cmpb	4063(%rdi), %dl
	je	.L4070
	cmpb	4064(%rdi), %cl
	je	.L4071
	cmpb	4065(%rdi), %al
	je	.L4072
	cmpb	4066(%rdi), %dl
	je	.L4073
	cmpb	4067(%rdi), %cl
	je	.L4074
	cmpb	4068(%rdi), %al
	je	.L4075
	cmpb	4069(%rdi), %dl
	je	.L4076
	cmpb	4070(%rdi), %cl
	je	.L4077
	cmpb	4071(%rdi), %al
	je	.L4078
	cmpb	4072(%rdi), %dl
	je	.L4079
	cmpb	4073(%rdi), %cl
	je	.L4080
	cmpb	4074(%rdi), %al
	je	.L4081
	cmpb	4075(%rdi), %dl
	je	.L4082
	cmpb	4076(%rdi), %cl
	je	.L4083
	cmpb	4077(%rdi), %al
	je	.L4084
	cmpb	4078(%rdi), %dl
	je	.L4085
	cmpb	4079(%rdi), %cl
	je	.L4086
	cmpb	4080(%rdi), %al
	je	.L4087
	cmpb	4081(%rdi), %dl
	je	.L4088
	cmpb	4082(%rdi), %cl
	je	.L4089
	cmpb	4083(%rdi), %al
	je	.L4090
	cmpb	4084(%rdi), %dl
	je	.L4091
	cmpb	4085(%rdi), %cl
	je	.L4092
	cmpb	4086(%rdi), %al
	je	.L4093
	cmpb	4087(%rdi), %dl
	je	.L4094
	cmpb	4088(%rdi), %cl
	je	.L4095
	cmpb	4089(%rdi), %al
	je	.L4096
	cmpb	4090(%rdi), %dl
	je	.L4097
	cmpb	4091(%rdi), %cl
	je	.L4098
	cmpb	4092(%rdi), %al
	je	.L4099
	cmpb	4093(%rdi), %dl
	je	.L4100
	cmpb	4094(%rdi), %cl
	je	.L4101
	cmpb	4095(%rdi), %al
	je	.L4102
	cmpb	4096(%rdi), %dl
	je	.L4103
	cmpb	4097(%rdi), %cl
	je	.L4104
	cmpb	4098(%rdi), %al
	je	.L4105
	cmpb	4099(%rdi), %dl
	je	.L4106
	cmpb	4100(%rdi), %cl
	je	.L4107
	cmpb	4101(%rdi), %al
	je	.L4108
	cmpb	4102(%rdi), %dl
	je	.L4109
	cmpb	4103(%rdi), %cl
	je	.L4110
	cmpb	4104(%rdi), %al
	je	.L4111
	cmpb	4105(%rdi), %dl
	je	.L4112
	cmpb	4106(%rdi), %cl
	je	.L4113
	cmpb	4107(%rdi), %al
	je	.L4114
	cmpb	4108(%rdi), %dl
	je	.L4115
	cmpb	4109(%rdi), %cl
	je	.L4116
	cmpb	4110(%rdi), %al
	je	.L4117
	cmpb	4111(%rdi), %dl
	je	.L4118
	cmpb	4112(%rdi), %cl
	je	.L4119
	cmpb	4113(%rdi), %al
	je	.L4120
	cmpb	4114(%rdi), %dl
	je	.L4121
	cmpb	4115(%rdi), %cl
	je	.L4122
	cmpb	4116(%rdi), %al
	je	.L4123
	cmpb	4117(%rdi), %dl
	je	.L4124
	cmpb	4118(%rdi), %cl
	je	.L4125
	cmpb	4119(%rdi), %al
	je	.L4126
	cmpb	4120(%rdi), %dl
	je	.L4127
	cmpb	4121(%rdi), %cl
	je	.L4128
	cmpb	4122(%rdi), %al
	je	.L4129
	cmpb	4123(%rdi), %dl
	je	.L4130
	cmpb	4124(%rdi), %cl
	je	.L4131
	cmpb	4125(%rdi), %al
	je	.L4132
	cmpb	4126(%rdi), %dl
	je	.L4133
	cmpb	4127(%rdi), %cl
	je	.L4134
	cmpb	4128(%rdi), %al
	je	.L4135
	cmpb	4129(%rdi), %dl
	je	.L4136
	cmpb	4130(%rdi), %cl
	je	.L4137
	cmpb	4131(%rdi), %al
	je	.L4138
	cmpb	4132(%rdi), %dl
	je	.L4139
	cmpb	4133(%rdi), %cl
	je	.L4140
	cmpb	4134(%rdi), %al
	je	.L4141
	cmpb	4135(%rdi), %dl
	je	.L4142
	cmpb	4136(%rdi), %cl
	je	.L4143
	cmpb	4137(%rdi), %al
	je	.L4144
	cmpb	4138(%rdi), %dl
	je	.L4145
	cmpb	4139(%rdi), %cl
	je	.L4146
	cmpb	4140(%rdi), %al
	je	.L4147
	cmpb	4141(%rdi), %dl
	je	.L4148
	cmpb	4142(%rdi), %cl
	je	.L4149
	cmpb	4143(%rdi), %al
	je	.L4150
	cmpb	4144(%rdi), %dl
	je	.L4151
	cmpb	4145(%rdi), %cl
	je	.L4152
	cmpb	4146(%rdi), %al
	je	.L4153
	cmpb	4147(%rdi), %dl
	je	.L4154
	cmpb	4148(%rdi), %cl
	je	.L4155
	cmpb	4149(%rdi), %al
	je	.L4156
	cmpb	4150(%rdi), %dl
	je	.L4157
	cmpb	4151(%rdi), %cl
	je	.L4158
	cmpb	4152(%rdi), %al
	je	.L4159
	cmpb	4153(%rdi), %dl
	je	.L4160
	cmpb	4154(%rdi), %cl
	je	.L4161
	cmpb	4155(%rdi), %al
	je	.L4162
	cmpb	4156(%rdi), %dl
	je	.L4163
	cmpb	4157(%rdi), %cl
	je	.L4164
	cmpb	4158(%rdi), %al
	je	.L4165
	cmpb	4159(%rdi), %dl
	je	.L4166
	cmpb	4160(%rdi), %cl
	je	.L4167
	cmpb	4161(%rdi), %al
	je	.L4168
	cmpb	4162(%rdi), %dl
	je	.L4169
	cmpb	4163(%rdi), %cl
	je	.L4170
	cmpb	4164(%rdi), %al
	je	.L4171
	cmpb	4165(%rdi), %dl
	je	.L4172
	cmpb	4166(%rdi), %cl
	je	.L4173
	cmpb	4167(%rdi), %al
	je	.L4174
	cmpb	4168(%rdi), %dl
	je	.L4175
	cmpb	4169(%rdi), %cl
	je	.L4176
	cmpb	4170(%rdi), %al
	je	.L4177
	cmpb	4171(%rdi), %dl
	je	.L4178
	cmpb	4172(%rdi), %cl
	je	.L4179
	cmpb	4173(%rdi), %al
	je	.L4180
	cmpb	4174(%rdi), %dl
	je	.L4181
	cmpb	4175(%rdi), %cl
	je	.L4182
	cmpb	4176(%rdi), %al
	je	.L4183
	cmpb	4177(%rdi), %dl
	je	.L4184
	cmpb	4178(%rdi), %cl
	je	.L4185
	cmpb	4179(%rdi), %al
	je	.L4186
	cmpb	4180(%rdi), %dl
	je	.L4187
	cmpb	4181(%rdi), %cl
	je	.L4188
	cmpb	4182(%rdi), %al
	je	.L4189
	cmpb	4183(%rdi), %dl
	je	.L4190
	cmpb	4184(%rdi), %cl
	je	.L4191
	cmpb	4185(%rdi), %al
	je	.L4192
	cmpb	4186(%rdi), %dl
	je	.L4193
	cmpb	4187(%rdi), %cl
	je	.L4194
	cmpb	4188(%rdi), %al
	je	.L4195
	cmpb	4189(%rdi), %dl
	je	.L4196
	cmpb	4190(%rdi), %cl
	je	.L4197
	cmpb	4191(%rdi), %al
	je	.L4198
	cmpb	4192(%rdi), %dl
	je	.L4199
	cmpb	4193(%rdi), %cl
	je	.L4200
	cmpb	4194(%rdi), %al
	je	.L4201
	cmpb	4195(%rdi), %dl
	je	.L4202
	cmpb	4196(%rdi), %cl
	je	.L4203
	cmpb	4197(%rdi), %al
	je	.L4204
	cmpb	4198(%rdi), %dl
	je	.L4205
	cmpb	4199(%rdi), %cl
	je	.L4206
	cmpb	4200(%rdi), %al
	je	.L4207
	cmpb	4201(%rdi), %dl
	je	.L4208
	cmpb	4202(%rdi), %cl
	je	.L4209
	cmpb	4203(%rdi), %al
	je	.L4210
	cmpb	4204(%rdi), %dl
	je	.L4211
	cmpb	4205(%rdi), %cl
	je	.L4212
	cmpb	4206(%rdi), %al
	je	.L4213
	cmpb	4207(%rdi), %dl
	je	.L4214
	cmpb	4208(%rdi), %cl
	je	.L4215
	cmpb	4209(%rdi), %al
	je	.L4216
	cmpb	4210(%rdi), %dl
	je	.L4217
	cmpb	4211(%rdi), %cl
	je	.L4218
	cmpb	4212(%rdi), %al
	je	.L4219
	cmpb	4213(%rdi), %dl
	je	.L4220
	cmpb	4214(%rdi), %cl
	je	.L4221
	cmpb	4215(%rdi), %al
	je	.L4222
	cmpb	4216(%rdi), %dl
	je	.L4223
	cmpb	4217(%rdi), %cl
	je	.L4224
	cmpb	4218(%rdi), %al
	je	.L4225
	cmpb	4219(%rdi), %dl
	je	.L4226
	cmpb	4220(%rdi), %cl
	je	.L4227
	cmpb	4221(%rdi), %al
	je	.L4228
	cmpb	4222(%rdi), %dl
	je	.L4229
	cmpb	4223(%rdi), %cl
	je	.L4230
	cmpb	4224(%rdi), %al
	je	.L4231
	cmpb	4225(%rdi), %dl
	je	.L4232
	cmpb	4226(%rdi), %cl
	je	.L4233
	cmpb	4227(%rdi), %al
	je	.L4234
	cmpb	4228(%rdi), %dl
	je	.L4235
	cmpb	4229(%rdi), %cl
	je	.L4236
	cmpb	4230(%rdi), %al
	je	.L4237
	cmpb	4231(%rdi), %dl
	je	.L4238
	cmpb	4232(%rdi), %cl
	je	.L4239
	cmpb	4233(%rdi), %al
	je	.L4240
	cmpb	4234(%rdi), %dl
	je	.L4241
	cmpb	4235(%rdi), %cl
	je	.L4242
	cmpb	4236(%rdi), %al
	je	.L4243
	cmpb	4237(%rdi), %dl
	je	.L4244
	cmpb	4238(%rdi), %cl
	je	.L4245
	cmpb	4239(%rdi), %al
	je	.L4246
	cmpb	4240(%rdi), %dl
	je	.L4247
	cmpb	4241(%rdi), %cl
	je	.L4248
	cmpb	4242(%rdi), %al
	je	.L4249
	cmpb	4243(%rdi), %dl
	je	.L4250
	cmpb	4244(%rdi), %cl
	je	.L4251
	cmpb	4245(%rdi), %al
	je	.L4252
	cmpb	4246(%rdi), %dl
	je	.L4253
	cmpb	4247(%rdi), %cl
	je	.L4254
	cmpb	4248(%rdi), %al
	je	.L4255
	cmpb	4249(%rdi), %dl
	je	.L4256
	cmpb	4250(%rdi), %cl
	je	.L4257
	cmpb	4251(%rdi), %al
	je	.L4258
	cmpb	4252(%rdi), %dl
	je	.L4259
	cmpb	4253(%rdi), %cl
	je	.L4260
	cmpb	4254(%rdi), %al
	je	.L4261
	cmpb	4255(%rdi), %dl
	je	.L4262
	cmpb	4256(%rdi), %cl
	je	.L4263
	cmpb	4257(%rdi), %al
	je	.L4264
	cmpb	4258(%rdi), %dl
	je	.L4265
	cmpb	4259(%rdi), %cl
	je	.L4266
	cmpb	4260(%rdi), %al
	je	.L4267
	cmpb	4261(%rdi), %dl
	je	.L4268
	cmpb	4262(%rdi), %cl
	je	.L4269
	cmpb	4263(%rdi), %al
	je	.L4270
	cmpb	4264(%rdi), %dl
	je	.L4271
	cmpb	4265(%rdi), %cl
	je	.L4272
	cmpb	4266(%rdi), %al
	je	.L4273
	cmpb	4267(%rdi), %dl
	je	.L4274
	cmpb	4268(%rdi), %cl
	je	.L4275
	cmpb	4269(%rdi), %al
	je	.L4276
	cmpb	4270(%rdi), %dl
	je	.L4277
	cmpb	4271(%rdi), %cl
	je	.L4278
	cmpb	4272(%rdi), %al
	je	.L4279
	cmpb	4273(%rdi), %dl
	je	.L4280
	cmpb	4274(%rdi), %cl
	je	.L4281
	cmpb	4275(%rdi), %al
	je	.L4282
	cmpb	4276(%rdi), %dl
	je	.L4283
	cmpb	4277(%rdi), %cl
	je	.L4284
	cmpb	4278(%rdi), %al
	je	.L4285
	cmpb	4279(%rdi), %dl
	je	.L4286
	cmpb	4280(%rdi), %cl
	je	.L4287
	cmpb	4281(%rdi), %al
	je	.L4288
	cmpb	4282(%rdi), %dl
	je	.L4289
	cmpb	4283(%rdi), %cl
	je	.L4290
	cmpb	4284(%rdi), %al
	je	.L4291
	cmpb	4285(%rdi), %dl
	je	.L4292
	cmpb	4286(%rdi), %cl
	je	.L4293
	cmpb	4287(%rdi), %al
	je	.L4294
	cmpb	4288(%rdi), %dl
	je	.L4295
	cmpb	4289(%rdi), %cl
	je	.L4296
	cmpb	4290(%rdi), %al
	je	.L4297
	cmpb	4291(%rdi), %dl
	je	.L4298
	cmpb	4292(%rdi), %cl
	je	.L4299
	cmpb	4293(%rdi), %al
	je	.L4300
	cmpb	4294(%rdi), %dl
	je	.L4301
	cmpb	4295(%rdi), %cl
	je	.L4302
	cmpb	4296(%rdi), %al
	je	.L4303
	cmpb	4297(%rdi), %dl
	je	.L4304
	cmpb	4298(%rdi), %cl
	je	.L4305
	cmpb	4299(%rdi), %al
	je	.L4306
	cmpb	4300(%rdi), %dl
	je	.L4307
	cmpb	4301(%rdi), %cl
	je	.L4308
	cmpb	4302(%rdi), %al
	je	.L4309
	cmpb	4303(%rdi), %dl
	je	.L4310
	cmpb	4304(%rdi), %cl
	je	.L4311
	cmpb	4305(%rdi), %al
	je	.L4312
	cmpb	4306(%rdi), %dl
	je	.L4313
	cmpb	4307(%rdi), %cl
	je	.L4314
	cmpb	4308(%rdi), %al
	je	.L4315
	cmpb	4309(%rdi), %dl
	je	.L4316
	cmpb	4310(%rdi), %cl
	je	.L4317
	cmpb	4311(%rdi), %al
	je	.L4318
	cmpb	4312(%rdi), %dl
	je	.L4319
	cmpb	4313(%rdi), %cl
	je	.L4320
	cmpb	4314(%rdi), %al
	je	.L4321
	cmpb	4315(%rdi), %dl
	je	.L4322
	cmpb	4316(%rdi), %cl
	je	.L4323
	cmpb	4317(%rdi), %al
	je	.L4324
	cmpb	4318(%rdi), %dl
	je	.L4325
	cmpb	4319(%rdi), %cl
	je	.L4326
	cmpb	4320(%rdi), %al
	je	.L4327
	cmpb	4321(%rdi), %dl
	je	.L4328
	cmpb	4322(%rdi), %cl
	je	.L4329
	cmpb	4323(%rdi), %al
	je	.L4330
	cmpb	4324(%rdi), %dl
	je	.L4331
	cmpb	4325(%rdi), %cl
	je	.L4332
	cmpb	4326(%rdi), %al
	je	.L4333
	cmpb	4327(%rdi), %dl
	je	.L4334
	cmpb	4328(%rdi), %cl
	je	.L4335
	cmpb	4329(%rdi), %al
	je	.L4336
	cmpb	4330(%rdi), %dl
	je	.L4337
	cmpb	4331(%rdi), %cl
	je	.L4338
	cmpb	4332(%rdi), %al
	je	.L4339
	cmpb	4333(%rdi), %dl
	je	.L4340
	cmpb	4334(%rdi), %cl
	je	.L4341
	cmpb	4335(%rdi), %al
	je	.L4342
	cmpb	4336(%rdi), %dl
	je	.L4343
	cmpb	4337(%rdi), %cl
	je	.L4344
	cmpb	4338(%rdi), %al
	je	.L4345
	cmpb	4339(%rdi), %dl
	je	.L4346
	cmpb	4340(%rdi), %cl
	je	.L4347
	cmpb	4341(%rdi), %al
	je	.L4348
	cmpb	4342(%rdi), %dl
	je	.L4349
	cmpb	4343(%rdi), %cl
	je	.L4350
	cmpb	4344(%rdi), %al
	je	.L4351
	cmpb	4345(%rdi), %dl
	je	.L4352
	cmpb	4346(%rdi), %cl
	je	.L4353
	cmpb	4347(%rdi), %al
	je	.L4354
	cmpb	4348(%rdi), %dl
	je	.L4355
	cmpb	4349(%rdi), %cl
	je	.L4356
	cmpb	4350(%rdi), %al
	je	.L4357
	cmpb	4351(%rdi), %dl
	je	.L4358
	cmpb	4352(%rdi), %cl
	je	.L4359
	cmpb	4353(%rdi), %al
	je	.L4360
	cmpb	4354(%rdi), %dl
	je	.L4361
	cmpb	4355(%rdi), %cl
	je	.L4362
	cmpb	4356(%rdi), %al
	je	.L4363
	cmpb	4357(%rdi), %dl
	je	.L4364
	cmpb	4358(%rdi), %cl
	je	.L4365
	cmpb	4359(%rdi), %al
	je	.L4366
	cmpb	4360(%rdi), %dl
	je	.L4367
	cmpb	4361(%rdi), %cl
	je	.L4368
	cmpb	4362(%rdi), %al
	je	.L4369
	cmpb	4363(%rdi), %dl
	je	.L4370
	cmpb	4364(%rdi), %cl
	je	.L4371
	cmpb	4365(%rdi), %al
	je	.L4372
	cmpb	4366(%rdi), %dl
	je	.L4373
	cmpb	4367(%rdi), %cl
	je	.L4374
	cmpb	4368(%rdi), %al
	je	.L4375
	cmpb	4369(%rdi), %dl
	je	.L4376
	cmpb	4370(%rdi), %cl
	je	.L4377
	cmpb	4371(%rdi), %al
	je	.L4378
	cmpb	4372(%rdi), %dl
	je	.L4379
	cmpb	4373(%rdi), %cl
	je	.L4380
	cmpb	4374(%rdi), %al
	je	.L4381
	cmpb	4375(%rdi), %dl
	je	.L4382
	cmpb	4376(%rdi), %cl
	je	.L4383
	cmpb	4377(%rdi), %al
	je	.L4384
	cmpb	4378(%rdi), %dl
	je	.L4385
	cmpb	4379(%rdi), %cl
	je	.L4386
	cmpb	4380(%rdi), %al
	je	.L4387
	cmpb	4381(%rdi), %dl
	je	.L4388
	cmpb	4382(%rdi), %cl
	je	.L4389
	cmpb	4383(%rdi), %al
	je	.L4390
	cmpb	4384(%rdi), %dl
	je	.L4391
	cmpb	4385(%rdi), %cl
	je	.L4392
	cmpb	4386(%rdi), %al
	je	.L4393
	cmpb	4387(%rdi), %dl
	je	.L4394
	cmpb	4388(%rdi), %cl
	je	.L4395
	cmpb	4389(%rdi), %al
	je	.L4396
	cmpb	4390(%rdi), %dl
	je	.L4397
	cmpb	4391(%rdi), %cl
	je	.L4398
	cmpb	4392(%rdi), %al
	je	.L4399
	cmpb	4393(%rdi), %dl
	je	.L4400
	cmpb	4394(%rdi), %cl
	je	.L4401
	cmpb	4395(%rdi), %al
	je	.L4402
	cmpb	4396(%rdi), %dl
	je	.L4403
	cmpb	4397(%rdi), %cl
	je	.L4404
	cmpb	4398(%rdi), %al
	je	.L4405
	cmpb	4399(%rdi), %dl
	je	.L4406
	cmpb	4400(%rdi), %cl
	je	.L4407
	cmpb	4401(%rdi), %al
	je	.L4408
	cmpb	4402(%rdi), %dl
	je	.L4409
	cmpb	4403(%rdi), %cl
	je	.L4410
	cmpb	4404(%rdi), %al
	je	.L4411
	cmpb	4405(%rdi), %dl
	je	.L4412
	cmpb	4406(%rdi), %cl
	je	.L4413
	cmpb	4407(%rdi), %al
	je	.L4414
	cmpb	4408(%rdi), %dl
	je	.L4415
	cmpb	4409(%rdi), %cl
	je	.L4416
	cmpb	4410(%rdi), %al
	je	.L4417
	cmpb	4411(%rdi), %dl
	je	.L4418
	cmpb	4412(%rdi), %cl
	je	.L4419
	cmpb	4413(%rdi), %al
	je	.L4420
	cmpb	4414(%rdi), %dl
	je	.L4421
	cmpb	4415(%rdi), %cl
	je	.L4422
	cmpb	4416(%rdi), %al
	je	.L4423
	cmpb	4417(%rdi), %dl
	je	.L4424
	cmpb	4418(%rdi), %cl
	je	.L4425
	cmpb	4419(%rdi), %al
	je	.L4426
	cmpb	4420(%rdi), %dl
	je	.L4427
	cmpb	4421(%rdi), %cl
	je	.L4428
	cmpb	4422(%rdi), %al
	je	.L4429
	cmpb	4423(%rdi), %dl
	je	.L4430
	cmpb	4424(%rdi), %cl
	je	.L4431
	cmpb	4425(%rdi), %al
	je	.L4432
	cmpb	4426(%rdi), %dl
	je	.L4433
	cmpb	4427(%rdi), %cl
	je	.L4434
	cmpb	4428(%rdi), %al
	je	.L4435
	cmpb	4429(%rdi), %dl
	je	.L4436
	cmpb	4430(%rdi), %cl
	je	.L4437
	cmpb	4431(%rdi), %al
	je	.L4438
	cmpb	4432(%rdi), %dl
	je	.L4439
	cmpb	4433(%rdi), %cl
	je	.L4440
	cmpb	4434(%rdi), %al
	je	.L4441
	cmpb	4435(%rdi), %dl
	je	.L4442
	cmpb	4436(%rdi), %cl
	je	.L4443
	cmpb	4437(%rdi), %al
	je	.L4444
	cmpb	4438(%rdi), %dl
	je	.L4445
	cmpb	4439(%rdi), %cl
	je	.L4446
	cmpb	4440(%rdi), %al
	je	.L4447
	cmpb	4441(%rdi), %dl
	je	.L4448
	cmpb	4442(%rdi), %cl
	je	.L4449
	cmpb	4443(%rdi), %al
	je	.L4450
	cmpb	4444(%rdi), %dl
	je	.L4451
	cmpb	4445(%rdi), %cl
	je	.L4452
	cmpb	4446(%rdi), %al
	je	.L4453
	cmpb	4447(%rdi), %dl
	je	.L4454
	cmpb	4448(%rdi), %cl
	je	.L4455
	cmpb	4449(%rdi), %al
	je	.L4456
	cmpb	4450(%rdi), %dl
	je	.L4457
	cmpb	4451(%rdi), %cl
	je	.L4458
	cmpb	4452(%rdi), %al
	je	.L4459
	cmpb	4453(%rdi), %dl
	je	.L4460
	cmpb	4454(%rdi), %cl
	je	.L4461
	cmpb	4455(%rdi), %al
	je	.L4462
	cmpb	4456(%rdi), %dl
	je	.L4463
	cmpb	4457(%rdi), %cl
	je	.L4464
	cmpb	4458(%rdi), %al
	je	.L4465
	cmpb	4459(%rdi), %dl
	je	.L4466
	cmpb	4460(%rdi), %cl
	je	.L4467
	cmpb	4461(%rdi), %al
	je	.L4468
	cmpb	4462(%rdi), %dl
	je	.L4469
	cmpb	4463(%rdi), %cl
	je	.L4470
	cmpb	4464(%rdi), %al
	je	.L4471
	cmpb	4465(%rdi), %dl
	je	.L4472
	cmpb	4466(%rdi), %cl
	je	.L4473
	cmpb	4467(%rdi), %al
	je	.L4474
	cmpb	4468(%rdi), %dl
	je	.L4475
	cmpb	4469(%rdi), %cl
	je	.L4476
	cmpb	4470(%rdi), %al
	je	.L4477
	cmpb	4471(%rdi), %dl
	je	.L4478
	cmpb	4472(%rdi), %cl
	je	.L4479
	cmpb	4473(%rdi), %al
	je	.L4480
	cmpb	4474(%rdi), %dl
	je	.L4481
	cmpb	4475(%rdi), %cl
	je	.L4482
	cmpb	4476(%rdi), %al
	je	.L4483
	cmpb	4477(%rdi), %dl
	je	.L4484
	cmpb	4478(%rdi), %cl
	je	.L4485
	cmpb	4479(%rdi), %al
	je	.L4486
	cmpb	4480(%rdi), %dl
	je	.L4487
	cmpb	4481(%rdi), %cl
	je	.L4488
	cmpb	4482(%rdi), %al
	je	.L4489
	cmpb	4483(%rdi), %dl
	je	.L4490
	cmpb	4484(%rdi), %cl
	je	.L4491
	cmpb	4485(%rdi), %al
	je	.L4492
	cmpb	4486(%rdi), %dl
	je	.L4493
	cmpb	4487(%rdi), %cl
	je	.L4494
	cmpb	4488(%rdi), %al
	je	.L4495
	cmpb	4489(%rdi), %dl
	je	.L4496
	cmpb	4490(%rdi), %cl
	je	.L4497
	cmpb	4491(%rdi), %al
	je	.L4498
	cmpb	4492(%rdi), %dl
	je	.L4499
	cmpb	4493(%rdi), %cl
	je	.L4500
	cmpb	4494(%rdi), %al
	je	.L4501
	cmpb	4495(%rdi), %dl
	je	.L4502
	cmpb	4496(%rdi), %cl
	je	.L4503
	cmpb	4497(%rdi), %al
	je	.L4504
	cmpb	4498(%rdi), %dl
	je	.L4505
	cmpb	4499(%rdi), %cl
	je	.L4506
	cmpb	4500(%rdi), %al
	je	.L4507
	cmpb	4501(%rdi), %dl
	je	.L4508
	cmpb	4502(%rdi), %cl
	je	.L4509
	cmpb	4503(%rdi), %al
	je	.L4510
	cmpb	4504(%rdi), %dl
	je	.L4511
	cmpb	4505(%rdi), %cl
	je	.L4512
	cmpb	4506(%rdi), %al
	je	.L4513
	cmpb	4507(%rdi), %dl
	je	.L4514
	cmpb	4508(%rdi), %cl
	je	.L4515
	cmpb	4509(%rdi), %al
	je	.L4516
	cmpb	4510(%rdi), %dl
	je	.L4517
	cmpb	4511(%rdi), %cl
	je	.L4518
	cmpb	4512(%rdi), %al
	je	.L4519
	cmpb	4513(%rdi), %dl
	je	.L4520
	cmpb	4514(%rdi), %cl
	je	.L4521
	cmpb	4515(%rdi), %al
	je	.L4522
	cmpb	4516(%rdi), %dl
	je	.L4523
	cmpb	4517(%rdi), %cl
	je	.L4524
	cmpb	4518(%rdi), %al
	je	.L4525
	cmpb	4519(%rdi), %dl
	je	.L4526
	cmpb	4520(%rdi), %cl
	je	.L4527
	cmpb	4521(%rdi), %al
	je	.L4528
	cmpb	4522(%rdi), %dl
	je	.L4529
	cmpb	4523(%rdi), %cl
	je	.L4530
	cmpb	4524(%rdi), %al
	je	.L4531
	cmpb	4525(%rdi), %dl
	je	.L4532
	cmpb	4526(%rdi), %cl
	je	.L4533
	cmpb	4527(%rdi), %al
	je	.L4534
	cmpb	4528(%rdi), %dl
	je	.L4535
	cmpb	4529(%rdi), %cl
	je	.L4536
	cmpb	4530(%rdi), %al
	je	.L4537
	cmpb	4531(%rdi), %dl
	je	.L4538
	cmpb	4532(%rdi), %cl
	je	.L4539
	cmpb	4533(%rdi), %al
	je	.L4540
	cmpb	4534(%rdi), %dl
	je	.L4541
	cmpb	4535(%rdi), %cl
	je	.L4542
	cmpb	4536(%rdi), %al
	je	.L4543
	cmpb	4537(%rdi), %dl
	je	.L4544
	cmpb	4538(%rdi), %cl
	je	.L4545
	cmpb	4539(%rdi), %al
	je	.L4546
	cmpb	4540(%rdi), %dl
	je	.L4547
	cmpb	4541(%rdi), %cl
	je	.L4548
	cmpb	4542(%rdi), %al
	je	.L4549
	cmpb	4543(%rdi), %dl
	je	.L4550
	cmpb	4544(%rdi), %cl
	je	.L4551
	cmpb	4545(%rdi), %al
	je	.L4552
	cmpb	4546(%rdi), %dl
	je	.L4553
	cmpb	4547(%rdi), %cl
	je	.L4554
	cmpb	4548(%rdi), %al
	je	.L4555
	cmpb	4549(%rdi), %dl
	je	.L4556
	cmpb	4550(%rdi), %cl
	je	.L4557
	cmpb	4551(%rdi), %al
	je	.L4558
	cmpb	4552(%rdi), %dl
	je	.L4559
	cmpb	4553(%rdi), %cl
	je	.L4560
	cmpb	4554(%rdi), %al
	je	.L4561
	cmpb	4555(%rdi), %dl
	je	.L4562
	cmpb	4556(%rdi), %cl
	je	.L4563
	cmpb	4557(%rdi), %al
	je	.L4564
	cmpb	4558(%rdi), %dl
	je	.L4565
	cmpb	4559(%rdi), %cl
	je	.L4566
	cmpb	4560(%rdi), %al
	je	.L4567
	cmpb	4561(%rdi), %dl
	je	.L4568
	cmpb	4562(%rdi), %cl
	je	.L4569
	cmpb	4563(%rdi), %al
	je	.L4570
	cmpb	4564(%rdi), %dl
	je	.L4571
	cmpb	4565(%rdi), %cl
	je	.L4572
	cmpb	4566(%rdi), %al
	je	.L4573
	cmpb	4567(%rdi), %dl
	je	.L4574
	cmpb	4568(%rdi), %cl
	je	.L4575
	cmpb	4569(%rdi), %al
	je	.L4576
	cmpb	4570(%rdi), %dl
	je	.L4577
	cmpb	4571(%rdi), %cl
	je	.L4578
	cmpb	4572(%rdi), %al
	je	.L4579
	cmpb	4573(%rdi), %dl
	je	.L4580
	cmpb	4574(%rdi), %cl
	je	.L4581
	cmpb	4575(%rdi), %al
	je	.L4582
	cmpb	4576(%rdi), %dl
	je	.L4583
	cmpb	4577(%rdi), %cl
	je	.L4584
	cmpb	4578(%rdi), %al
	je	.L4585
	cmpb	4579(%rdi), %dl
	je	.L4586
	cmpb	4580(%rdi), %cl
	je	.L4587
	cmpb	4581(%rdi), %al
	je	.L4588
	cmpb	4582(%rdi), %dl
	je	.L4589
	cmpb	4583(%rdi), %cl
	je	.L4590
	cmpb	4584(%rdi), %al
	je	.L4591
	cmpb	4585(%rdi), %dl
	je	.L4592
	cmpb	4586(%rdi), %cl
	je	.L4593
	cmpb	4587(%rdi), %al
	je	.L4594
	cmpb	4588(%rdi), %dl
	je	.L4595
	cmpb	4589(%rdi), %cl
	je	.L4596
	cmpb	4590(%rdi), %al
	je	.L4597
	cmpb	4591(%rdi), %dl
	je	.L4598
	cmpb	4592(%rdi), %cl
	je	.L4599
	cmpb	4593(%rdi), %al
	je	.L4600
	cmpb	4594(%rdi), %dl
	je	.L4601
	cmpb	4595(%rdi), %cl
	je	.L4602
	cmpb	4596(%rdi), %al
	je	.L4603
	cmpb	4597(%rdi), %dl
	je	.L4604
	cmpb	4598(%rdi), %cl
	je	.L4605
	cmpb	4599(%rdi), %al
	je	.L4606
	cmpb	4600(%rdi), %dl
	je	.L4607
	cmpb	4601(%rdi), %cl
	je	.L4608
	cmpb	4602(%rdi), %al
	je	.L4609
	cmpb	4603(%rdi), %dl
	je	.L4610
	cmpb	4604(%rdi), %cl
	je	.L4611
	cmpb	4605(%rdi), %al
	je	.L4612
	cmpb	4606(%rdi), %dl
	je	.L4613
	cmpb	4607(%rdi), %cl
	je	.L4614
	cmpb	4608(%rdi), %al
	je	.L4615
	cmpb	4609(%rdi), %dl
	je	.L4616
	cmpb	4610(%rdi), %cl
	je	.L4617
	cmpb	4611(%rdi), %al
	je	.L4618
	cmpb	4612(%rdi), %dl
	je	.L4619
	cmpb	4613(%rdi), %cl
	je	.L4620
	cmpb	4614(%rdi), %al
	je	.L4621
	cmpb	4615(%rdi), %dl
	je	.L4622
	cmpb	4616(%rdi), %cl
	je	.L4623
	cmpb	4617(%rdi), %al
	je	.L4624
	cmpb	4618(%rdi), %dl
	je	.L4625
	cmpb	4619(%rdi), %cl
	je	.L4626
	cmpb	4620(%rdi), %al
	je	.L4627
	cmpb	4621(%rdi), %dl
	je	.L4628
	cmpb	4622(%rdi), %cl
	je	.L4629
	cmpb	4623(%rdi), %al
	je	.L4630
	cmpb	4624(%rdi), %dl
	je	.L4631
	cmpb	4625(%rdi), %cl
	je	.L4632
	cmpb	4626(%rdi), %al
	je	.L4633
	cmpb	4627(%rdi), %dl
	je	.L4634
	cmpb	4628(%rdi), %cl
	je	.L4635
	cmpb	4629(%rdi), %al
	je	.L4636
	cmpb	4630(%rdi), %dl
	je	.L4637
	cmpb	4631(%rdi), %cl
	je	.L4638
	cmpb	4632(%rdi), %al
	je	.L4639
	cmpb	4633(%rdi), %dl
	je	.L4640
	cmpb	4634(%rdi), %cl
	je	.L4641
	cmpb	4635(%rdi), %al
	je	.L4642
	cmpb	4636(%rdi), %dl
	je	.L4643
	cmpb	4637(%rdi), %cl
	je	.L4644
	cmpb	4638(%rdi), %al
	je	.L4645
	cmpb	4639(%rdi), %dl
	je	.L4646
	cmpb	4640(%rdi), %cl
	je	.L4647
	cmpb	4641(%rdi), %al
	je	.L4648
	cmpb	4642(%rdi), %dl
	je	.L4649
	cmpb	4643(%rdi), %cl
	je	.L4650
	cmpb	4644(%rdi), %al
	je	.L4651
	cmpb	4645(%rdi), %dl
	je	.L4652
	cmpb	4646(%rdi), %cl
	je	.L4653
	cmpb	4647(%rdi), %al
	je	.L4654
	cmpb	4648(%rdi), %dl
	je	.L4655
	cmpb	4649(%rdi), %cl
	je	.L4656
	cmpb	4650(%rdi), %al
	je	.L4657
	cmpb	4651(%rdi), %dl
	je	.L4658
	cmpb	4652(%rdi), %cl
	je	.L4659
	cmpb	4653(%rdi), %al
	je	.L4660
	cmpb	4654(%rdi), %dl
	je	.L4661
	cmpb	4655(%rdi), %cl
	je	.L4662
	cmpb	4656(%rdi), %al
	je	.L4663
	cmpb	4657(%rdi), %dl
	je	.L4664
	cmpb	4658(%rdi), %cl
	je	.L4665
	cmpb	4659(%rdi), %al
	je	.L4666
	cmpb	4660(%rdi), %dl
	je	.L4667
	cmpb	4661(%rdi), %cl
	je	.L4668
	cmpb	4662(%rdi), %al
	je	.L4669
	cmpb	4663(%rdi), %dl
	je	.L4670
	cmpb	4664(%rdi), %cl
	je	.L4671
	cmpb	4665(%rdi), %al
	je	.L4672
	cmpb	4666(%rdi), %dl
	je	.L4673
	cmpb	4667(%rdi), %cl
	je	.L4674
	cmpb	4668(%rdi), %al
	je	.L4675
	cmpb	4669(%rdi), %dl
	je	.L4676
	cmpb	4670(%rdi), %cl
	je	.L4677
	cmpb	4671(%rdi), %al
	je	.L4678
	cmpb	4672(%rdi), %dl
	je	.L4679
	cmpb	4673(%rdi), %cl
	je	.L4680
	cmpb	4674(%rdi), %al
	je	.L4681
	cmpb	4675(%rdi), %dl
	je	.L4682
	cmpb	4676(%rdi), %cl
	je	.L4683
	cmpb	4677(%rdi), %al
	je	.L4684
	cmpb	4678(%rdi), %dl
	je	.L4685
	cmpb	4679(%rdi), %cl
	je	.L4686
	cmpb	4680(%rdi), %al
	je	.L4687
	cmpb	4681(%rdi), %dl
	je	.L4688
	cmpb	4682(%rdi), %cl
	je	.L4689
	cmpb	4683(%rdi), %al
	je	.L4690
	cmpb	4684(%rdi), %dl
	je	.L4691
	cmpb	4685(%rdi), %cl
	je	.L4692
	cmpb	4686(%rdi), %al
	je	.L4693
	cmpb	4687(%rdi), %dl
	je	.L4694
	cmpb	4688(%rdi), %cl
	je	.L4695
	cmpb	4689(%rdi), %al
	je	.L4696
	cmpb	4690(%rdi), %dl
	je	.L4697
	cmpb	4691(%rdi), %cl
	je	.L4698
	cmpb	4692(%rdi), %al
	je	.L4699
	cmpb	4693(%rdi), %dl
	je	.L4700
	cmpb	4694(%rdi), %cl
	je	.L4701
	cmpb	4695(%rdi), %al
	je	.L4702
	cmpb	4696(%rdi), %dl
	je	.L4703
	cmpb	4697(%rdi), %cl
	je	.L4704
	cmpb	4698(%rdi), %al
	je	.L4705
	cmpb	4699(%rdi), %dl
	je	.L4706
	cmpb	4700(%rdi), %cl
	je	.L4707
	cmpb	4701(%rdi), %al
	je	.L4708
	cmpb	4702(%rdi), %dl
	je	.L4709
	cmpb	4703(%rdi), %cl
	je	.L4710
	cmpb	4704(%rdi), %al
	je	.L4711
	cmpb	4705(%rdi), %dl
	je	.L4712
	cmpb	4706(%rdi), %cl
	je	.L4713
	cmpb	4707(%rdi), %al
	je	.L4714
	cmpb	4708(%rdi), %dl
	je	.L4715
	cmpb	4709(%rdi), %cl
	je	.L4716
	cmpb	4710(%rdi), %al
	je	.L4717
	cmpb	4711(%rdi), %dl
	je	.L4718
	cmpb	4712(%rdi), %cl
	je	.L4719
	cmpb	4713(%rdi), %al
	je	.L4720
	cmpb	4714(%rdi), %dl
	je	.L4721
	cmpb	4715(%rdi), %cl
	je	.L4722
	cmpb	4716(%rdi), %al
	je	.L4723
	cmpb	4717(%rdi), %dl
	je	.L4724
	cmpb	4718(%rdi), %cl
	je	.L4725
	cmpb	4719(%rdi), %al
	je	.L4726
	cmpb	4720(%rdi), %dl
	je	.L4727
	cmpb	4721(%rdi), %cl
	je	.L4728
	cmpb	4722(%rdi), %al
	je	.L4729
	cmpb	4723(%rdi), %dl
	je	.L4730
	cmpb	4724(%rdi), %cl
	je	.L4731
	cmpb	4725(%rdi), %al
	je	.L4732
	cmpb	4726(%rdi), %dl
	je	.L4733
	cmpb	4727(%rdi), %cl
	je	.L4734
	cmpb	4728(%rdi), %al
	je	.L4735
	cmpb	4729(%rdi), %dl
	je	.L4736
	cmpb	4730(%rdi), %cl
	je	.L4737
	cmpb	4731(%rdi), %al
	je	.L4738
	cmpb	4732(%rdi), %dl
	je	.L4739
	cmpb	4733(%rdi), %cl
	je	.L4740
	cmpb	4734(%rdi), %al
	je	.L4741
	cmpb	4735(%rdi), %dl
	je	.L4742
	cmpb	4736(%rdi), %cl
	je	.L4743
	cmpb	4737(%rdi), %al
	je	.L4744
	cmpb	4738(%rdi), %dl
	je	.L4745
	cmpb	4739(%rdi), %cl
	je	.L4746
	cmpb	4740(%rdi), %al
	je	.L4747
	cmpb	4741(%rdi), %dl
	je	.L4748
	cmpb	4742(%rdi), %cl
	je	.L4749
	cmpb	4743(%rdi), %al
	je	.L4750
	cmpb	4744(%rdi), %dl
	je	.L4751
	cmpb	4745(%rdi), %cl
	je	.L4752
	cmpb	4746(%rdi), %al
	je	.L4753
	cmpb	4747(%rdi), %dl
	je	.L4754
	cmpb	4748(%rdi), %cl
	je	.L4755
	cmpb	4749(%rdi), %al
	je	.L4756
	cmpb	4750(%rdi), %dl
	je	.L4757
	cmpb	4751(%rdi), %cl
	je	.L4758
	cmpb	4752(%rdi), %al
	je	.L4759
	cmpb	4753(%rdi), %dl
	je	.L4760
	cmpb	4754(%rdi), %cl
	je	.L4761
	cmpb	4755(%rdi), %al
	je	.L4762
	cmpb	4756(%rdi), %dl
	je	.L4763
	cmpb	4757(%rdi), %cl
	je	.L4764
	cmpb	4758(%rdi), %al
	je	.L4765
	cmpb	4759(%rdi), %dl
	je	.L4766
	cmpb	4760(%rdi), %cl
	je	.L4767
	cmpb	4761(%rdi), %al
	je	.L4768
	cmpb	4762(%rdi), %dl
	je	.L4769
	cmpb	4763(%rdi), %cl
	je	.L4770
	cmpb	4764(%rdi), %al
	je	.L4771
	cmpb	4765(%rdi), %dl
	je	.L4772
	cmpb	4766(%rdi), %cl
	je	.L4773
	cmpb	4767(%rdi), %al
	je	.L4774
	cmpb	4768(%rdi), %dl
	je	.L4775
	cmpb	4769(%rdi), %cl
	je	.L4776
	cmpb	4770(%rdi), %al
	je	.L4777
	cmpb	4771(%rdi), %dl
	je	.L4778
	cmpb	4772(%rdi), %cl
	je	.L4779
	cmpb	4773(%rdi), %al
	je	.L4780
	cmpb	4774(%rdi), %dl
	je	.L4781
	cmpb	4775(%rdi), %cl
	je	.L4782
	cmpb	4776(%rdi), %al
	je	.L4783
	cmpb	4777(%rdi), %dl
	je	.L4784
	cmpb	4778(%rdi), %cl
	je	.L4785
	cmpb	4779(%rdi), %al
	je	.L4786
	cmpb	4780(%rdi), %dl
	je	.L4787
	cmpb	4781(%rdi), %cl
	je	.L4788
	cmpb	4782(%rdi), %al
	je	.L4789
	cmpb	4783(%rdi), %dl
	je	.L4790
	cmpb	4784(%rdi), %cl
	je	.L4791
	cmpb	4785(%rdi), %al
	je	.L4792
	cmpb	4786(%rdi), %dl
	je	.L4793
	cmpb	4787(%rdi), %cl
	je	.L4794
	cmpb	4788(%rdi), %al
	je	.L4795
	cmpb	4789(%rdi), %dl
	je	.L4796
	cmpb	4790(%rdi), %cl
	je	.L4797
	cmpb	4791(%rdi), %al
	je	.L4798
	cmpb	4792(%rdi), %dl
	je	.L4799
	cmpb	4793(%rdi), %cl
	je	.L4800
	cmpb	4794(%rdi), %al
	je	.L4801
	cmpb	4795(%rdi), %dl
	je	.L4802
	cmpb	4796(%rdi), %cl
	je	.L4803
	cmpb	4797(%rdi), %al
	je	.L4804
	cmpb	4798(%rdi), %dl
	je	.L4805
	cmpb	4799(%rdi), %cl
	je	.L4806
	cmpb	4800(%rdi), %al
	je	.L4807
	cmpb	4801(%rdi), %dl
	je	.L4808
	cmpb	4802(%rdi), %cl
	je	.L4809
	cmpb	4803(%rdi), %al
	je	.L4810
	cmpb	4804(%rdi), %dl
	je	.L4811
	cmpb	4805(%rdi), %cl
	je	.L4812
	cmpb	4806(%rdi), %al
	je	.L4813
	cmpb	4807(%rdi), %dl
	je	.L4814
	cmpb	4808(%rdi), %cl
	je	.L4815
	cmpb	4809(%rdi), %al
	je	.L4816
	cmpb	4810(%rdi), %dl
	je	.L4817
	cmpb	4811(%rdi), %cl
	je	.L4818
	cmpb	4812(%rdi), %al
	je	.L4819
	cmpb	4813(%rdi), %dl
	je	.L4820
	cmpb	4814(%rdi), %cl
	je	.L4821
	cmpb	4815(%rdi), %al
	je	.L4822
	cmpb	4816(%rdi), %dl
	je	.L4823
	cmpb	4817(%rdi), %cl
	je	.L4824
	cmpb	4818(%rdi), %al
	je	.L4825
	cmpb	4819(%rdi), %dl
	je	.L4826
	cmpb	4820(%rdi), %cl
	je	.L4827
	cmpb	4821(%rdi), %al
	je	.L4828
	cmpb	4822(%rdi), %dl
	je	.L4829
	cmpb	4823(%rdi), %cl
	je	.L4830
	cmpb	4824(%rdi), %al
	je	.L4831
	cmpb	4825(%rdi), %dl
	je	.L4832
	cmpb	4826(%rdi), %cl
	je	.L4833
	cmpb	4827(%rdi), %al
	je	.L4834
	cmpb	4828(%rdi), %dl
	je	.L4835
	cmpb	4829(%rdi), %cl
	je	.L4836
	cmpb	4830(%rdi), %al
	je	.L4837
	cmpb	4831(%rdi), %dl
	je	.L4838
	cmpb	4832(%rdi), %cl
	je	.L4839
	cmpb	4833(%rdi), %al
	je	.L4840
	cmpb	4834(%rdi), %dl
	je	.L4841
	cmpb	4835(%rdi), %cl
	je	.L4842
	cmpb	4836(%rdi), %al
	je	.L4843
	cmpb	4837(%rdi), %dl
	je	.L4844
	cmpb	4838(%rdi), %cl
	je	.L4845
	cmpb	4839(%rdi), %al
	je	.L4846
	cmpb	4840(%rdi), %dl
	je	.L4847
	cmpb	4841(%rdi), %cl
	je	.L4848
	cmpb	4842(%rdi), %al
	je	.L4849
	cmpb	4843(%rdi), %dl
	je	.L4850
	cmpb	4844(%rdi), %cl
	je	.L4851
	cmpb	4845(%rdi), %al
	je	.L4852
	cmpb	4846(%rdi), %dl
	je	.L4853
	cmpb	4847(%rdi), %cl
	je	.L4854
	cmpb	4848(%rdi), %al
	je	.L4855
	cmpb	4849(%rdi), %dl
	je	.L4856
	cmpb	4850(%rdi), %cl
	je	.L4857
	cmpb	4851(%rdi), %al
	je	.L4858
	cmpb	4852(%rdi), %dl
	je	.L4859
	cmpb	4853(%rdi), %cl
	je	.L4860
	cmpb	4854(%rdi), %al
	je	.L4861
	cmpb	4855(%rdi), %dl
	je	.L4862
	cmpb	4856(%rdi), %cl
	je	.L4863
	cmpb	4857(%rdi), %al
	je	.L4864
	cmpb	4858(%rdi), %dl
	je	.L4865
	cmpb	4859(%rdi), %cl
	je	.L4866
	cmpb	4860(%rdi), %al
	je	.L4867
	cmpb	4861(%rdi), %dl
	je	.L4868
	cmpb	4862(%rdi), %cl
	je	.L4869
	cmpb	4863(%rdi), %al
	je	.L4870
	cmpb	4864(%rdi), %dl
	je	.L4871
	cmpb	4865(%rdi), %cl
	je	.L4872
	cmpb	4866(%rdi), %al
	je	.L4873
	cmpb	4867(%rdi), %dl
	je	.L4874
	cmpb	4868(%rdi), %cl
	je	.L4875
	cmpb	4869(%rdi), %al
	je	.L4876
	cmpb	4870(%rdi), %dl
	je	.L4877
	cmpb	4871(%rdi), %cl
	je	.L4878
	cmpb	4872(%rdi), %al
	je	.L4879
	cmpb	4873(%rdi), %dl
	je	.L4880
	cmpb	4874(%rdi), %cl
	je	.L4881
	cmpb	4875(%rdi), %al
	je	.L4882
	cmpb	4876(%rdi), %dl
	je	.L4883
	cmpb	4877(%rdi), %cl
	je	.L4884
	cmpb	4878(%rdi), %al
	je	.L4885
	cmpb	4879(%rdi), %dl
	je	.L4886
	cmpb	4880(%rdi), %cl
	je	.L4887
	cmpb	4881(%rdi), %al
	je	.L4888
	cmpb	4882(%rdi), %dl
	je	.L4889
	cmpb	4883(%rdi), %cl
	je	.L4890
	cmpb	4884(%rdi), %al
	je	.L4891
	cmpb	4885(%rdi), %dl
	je	.L4892
	cmpb	4886(%rdi), %cl
	je	.L4893
	cmpb	4887(%rdi), %al
	je	.L4894
	cmpb	4888(%rdi), %dl
	je	.L4895
	cmpb	4889(%rdi), %cl
	je	.L4896
	cmpb	4890(%rdi), %al
	je	.L4897
	cmpb	4891(%rdi), %dl
	je	.L4898
	cmpb	4892(%rdi), %cl
	je	.L4899
	cmpb	4893(%rdi), %al
	je	.L4900
	cmpb	4894(%rdi), %dl
	je	.L4901
	cmpb	4895(%rdi), %cl
	je	.L4902
	cmpb	4896(%rdi), %al
	je	.L4903
	cmpb	4897(%rdi), %dl
	je	.L4904
	cmpb	4898(%rdi), %cl
	je	.L4905
	cmpb	4899(%rdi), %al
	je	.L4906
	cmpb	4900(%rdi), %dl
	je	.L4907
	cmpb	4901(%rdi), %cl
	je	.L4908
	cmpb	4902(%rdi), %al
	je	.L4909
	cmpb	4903(%rdi), %dl
	je	.L4910
	cmpb	4904(%rdi), %cl
	je	.L4911
	cmpb	4905(%rdi), %al
	je	.L4912
	cmpb	4906(%rdi), %dl
	je	.L4913
	cmpb	4907(%rdi), %cl
	je	.L4914
	cmpb	4908(%rdi), %al
	je	.L4915
	cmpb	4909(%rdi), %dl
	je	.L4916
	cmpb	4910(%rdi), %cl
	je	.L4917
	cmpb	4911(%rdi), %al
	je	.L4918
	cmpb	4912(%rdi), %dl
	je	.L4919
	cmpb	4913(%rdi), %cl
	je	.L4920
	cmpb	4914(%rdi), %al
	je	.L4921
	cmpb	4915(%rdi), %dl
	je	.L4922
	cmpb	4916(%rdi), %cl
	je	.L4923
	cmpb	4917(%rdi), %al
	je	.L4924
	cmpb	4918(%rdi), %dl
	je	.L4925
	cmpb	4919(%rdi), %cl
	je	.L4926
	cmpb	4920(%rdi), %al
	je	.L4927
	cmpb	4921(%rdi), %dl
	je	.L4928
	cmpb	4922(%rdi), %cl
	je	.L4929
	cmpb	4923(%rdi), %al
	je	.L4930
	cmpb	4924(%rdi), %dl
	je	.L4931
	cmpb	4925(%rdi), %cl
	je	.L4932
	cmpb	4926(%rdi), %al
	je	.L4933
	cmpb	4927(%rdi), %dl
	je	.L4934
	cmpb	4928(%rdi), %cl
	je	.L4935
	cmpb	4929(%rdi), %al
	je	.L4936
	cmpb	4930(%rdi), %dl
	je	.L4937
	cmpb	4931(%rdi), %cl
	je	.L4938
	cmpb	4932(%rdi), %al
	je	.L4939
	cmpb	4933(%rdi), %dl
	je	.L4940
	cmpb	4934(%rdi), %cl
	je	.L4941
	cmpb	4935(%rdi), %al
	je	.L4942
	cmpb	4936(%rdi), %dl
	je	.L4943
	cmpb	4937(%rdi), %cl
	je	.L4944
	cmpb	4938(%rdi), %al
	je	.L4945
	cmpb	4939(%rdi), %dl
	je	.L4946
	cmpb	4940(%rdi), %cl
	je	.L4947
	cmpb	4941(%rdi), %al
	je	.L4948
	cmpb	4942(%rdi), %dl
	je	.L4949
	cmpb	4943(%rdi), %cl
	je	.L4950
	cmpb	4944(%rdi), %al
	je	.L4951
	cmpb	4945(%rdi), %dl
	je	.L4952
	cmpb	4946(%rdi), %cl
	je	.L4953
	cmpb	4947(%rdi), %al
	je	.L4954
	cmpb	4948(%rdi), %dl
	je	.L4955
	cmpb	4949(%rdi), %cl
	je	.L4956
	cmpb	4950(%rdi), %al
	je	.L4957
	cmpb	4951(%rdi), %dl
	je	.L4958
	cmpb	4952(%rdi), %cl
	je	.L4959
	cmpb	4953(%rdi), %al
	je	.L4960
	cmpb	4954(%rdi), %dl
	je	.L4961
	cmpb	4955(%rdi), %cl
	je	.L4962
	cmpb	4956(%rdi), %al
	je	.L4963
	cmpb	4957(%rdi), %dl
	je	.L4964
	cmpb	4958(%rdi), %cl
	je	.L4965
	cmpb	4959(%rdi), %al
	je	.L4966
	cmpb	4960(%rdi), %dl
	je	.L4967
	cmpb	4961(%rdi), %cl
	je	.L4968
	cmpb	4962(%rdi), %al
	je	.L4969
	cmpb	4963(%rdi), %dl
	je	.L4970
	cmpb	4964(%rdi), %cl
	je	.L4971
	cmpb	4965(%rdi), %al
	je	.L4972
	cmpb	4966(%rdi), %dl
	je	.L4973
	cmpb	4967(%rdi), %cl
	je	.L4974
	cmpb	4968(%rdi), %al
	je	.L4975
	cmpb	4969(%rdi), %dl
	je	.L4976
	cmpb	4970(%rdi), %cl
	je	.L4977
	cmpb	4971(%rdi), %al
	je	.L4978
	cmpb	4972(%rdi), %dl
	je	.L4979
	cmpb	4973(%rdi), %cl
	je	.L4980
	cmpb	4974(%rdi), %al
	je	.L4981
	cmpb	4975(%rdi), %dl
	je	.L4982
	cmpb	4976(%rdi), %cl
	je	.L4983
	cmpb	4977(%rdi), %al
	je	.L4984
	cmpb	4978(%rdi), %dl
	je	.L4985
	cmpb	4979(%rdi), %cl
	je	.L4986
	cmpb	4980(%rdi), %al
	je	.L4987
	cmpb	4981(%rdi), %dl
	je	.L4988
	cmpb	4982(%rdi), %cl
	je	.L4989
	cmpb	4983(%rdi), %al
	je	.L4990
	cmpb	4984(%rdi), %dl
	je	.L4991
	cmpb	4985(%rdi), %cl
	je	.L4992
	cmpb	4986(%rdi), %al
	je	.L4993
	cmpb	4987(%rdi), %dl
	je	.L4994
	cmpb	4988(%rdi), %cl
	je	.L4995
	cmpb	4989(%rdi), %al
	je	.L4996
	cmpb	4990(%rdi), %dl
	je	.L4997
	cmpb	4991(%rdi), %cl
	je	.L4998
	cmpb	4992(%rdi), %al
	je	.L4999
	cmpb	4993(%rdi), %dl
	je	.L5000
	cmpb	4994(%rdi), %cl
	je	.L5001
	cmpb	4995(%rdi), %al
	je	.L5002
	cmpb	4996(%rdi), %dl
	je	.L5003
	cmpb	4997(%rdi), %cl
	je	.L5004
	cmpb	4998(%rdi), %al
	je	.L5005
	cmpb	4999(%rdi), %dl
	je	.L5006
	cmpb	5000(%rdi), %cl
	je	.L5007
	cmpb	5001(%rdi), %al
	je	.L5008
	cmpb	5002(%rdi), %dl
	je	.L5009
	cmpb	5003(%rdi), %cl
	je	.L5010
	cmpb	5004(%rdi), %al
	je	.L5011
	cmpb	5005(%rdi), %dl
	je	.L5012
	cmpb	5006(%rdi), %cl
	je	.L5013
	cmpb	5007(%rdi), %al
	je	.L5014
	cmpb	5008(%rdi), %dl
	je	.L5015
	cmpb	5009(%rdi), %cl
	je	.L5016
	cmpb	5010(%rdi), %al
	je	.L5017
	cmpb	5011(%rdi), %dl
	je	.L5018
	cmpb	5012(%rdi), %cl
	je	.L5019
	cmpb	5013(%rdi), %al
	je	.L5020
	cmpb	5014(%rdi), %dl
	je	.L5021
	cmpb	5015(%rdi), %cl
	je	.L5022
	cmpb	5016(%rdi), %al
	je	.L5023
	cmpb	5017(%rdi), %dl
	je	.L5024
	cmpb	5018(%rdi), %cl
	je	.L5025
	cmpb	5019(%rdi), %al
	je	.L5026
	cmpb	5020(%rdi), %dl
	je	.L5027
	cmpb	5021(%rdi), %cl
	je	.L5028
	cmpb	5022(%rdi), %al
	je	.L5029
	cmpb	5023(%rdi), %dl
	je	.L5030
	cmpb	5024(%rdi), %cl
	je	.L5031
	cmpb	5025(%rdi), %al
	je	.L5032
	cmpb	5026(%rdi), %dl
	je	.L5033
	cmpb	5027(%rdi), %cl
	je	.L5034
	cmpb	5028(%rdi), %al
	je	.L5035
	cmpb	5029(%rdi), %dl
	je	.L5036
	cmpb	5030(%rdi), %cl
	je	.L5037
	cmpb	5031(%rdi), %al
	je	.L5038
	cmpb	5032(%rdi), %dl
	je	.L5039
	cmpb	5033(%rdi), %cl
	je	.L5040
	cmpb	5034(%rdi), %al
	je	.L5041
	cmpb	5035(%rdi), %dl
	je	.L5042
	cmpb	5036(%rdi), %cl
	je	.L5043
	cmpb	5037(%rdi), %al
	je	.L5044
	cmpb	5038(%rdi), %dl
	je	.L5045
	cmpb	5039(%rdi), %cl
	je	.L5046
	cmpb	5040(%rdi), %al
	je	.L5047
	cmpb	5041(%rdi), %dl
	je	.L5048
	cmpb	5042(%rdi), %cl
	je	.L5049
	cmpb	5043(%rdi), %al
	je	.L5050
	cmpb	5044(%rdi), %dl
	je	.L5051
	cmpb	5045(%rdi), %cl
	je	.L5052
	cmpb	5046(%rdi), %al
	je	.L5053
	cmpb	5047(%rdi), %dl
	je	.L5054
	cmpb	5048(%rdi), %cl
	je	.L5055
	cmpb	5049(%rdi), %al
	je	.L5056
	cmpb	5050(%rdi), %dl
	je	.L5057
	cmpb	5051(%rdi), %cl
	je	.L5058
	cmpb	5052(%rdi), %al
	je	.L5059
	cmpb	5053(%rdi), %dl
	je	.L5060
	cmpb	5054(%rdi), %cl
	je	.L5061
	cmpb	5055(%rdi), %al
	je	.L5062
	cmpb	5056(%rdi), %dl
	je	.L5063
	cmpb	5057(%rdi), %cl
	je	.L5064
	cmpb	5058(%rdi), %al
	je	.L5065
	cmpb	5059(%rdi), %dl
	je	.L5066
	cmpb	5060(%rdi), %cl
	je	.L5067
	cmpb	5061(%rdi), %al
	je	.L5068
	cmpb	5062(%rdi), %dl
	je	.L5069
	cmpb	5063(%rdi), %cl
	je	.L5070
	cmpb	5064(%rdi), %al
	je	.L5071
	cmpb	5065(%rdi), %dl
	je	.L5072
	cmpb	5066(%rdi), %cl
	je	.L5073
	cmpb	5067(%rdi), %al
	je	.L5074
	cmpb	5068(%rdi), %dl
	je	.L5075
	cmpb	5069(%rdi), %cl
	je	.L5076
	cmpb	5070(%rdi), %al
	je	.L5077
	cmpb	5071(%rdi), %dl
	je	.L5078
	cmpb	5072(%rdi), %cl
	je	.L5079
	cmpb	5073(%rdi), %al
	je	.L5080
	cmpb	5074(%rdi), %dl
	je	.L5081
	cmpb	5075(%rdi), %cl
	je	.L5082
	cmpb	5076(%rdi), %al
	je	.L5083
	cmpb	5077(%rdi), %dl
	je	.L5084
	cmpb	5078(%rdi), %cl
	je	.L5085
	cmpb	5079(%rdi), %al
	je	.L5086
	cmpb	5080(%rdi), %dl
	je	.L5087
	cmpb	5081(%rdi), %cl
	je	.L5088
	cmpb	5082(%rdi), %al
	je	.L5089
	cmpb	5083(%rdi), %dl
	je	.L5090
	cmpb	5084(%rdi), %cl
	je	.L5091
	cmpb	5085(%rdi), %al
	je	.L5092
	cmpb	5086(%rdi), %dl
	je	.L5093
	cmpb	5087(%rdi), %cl
	je	.L5094
	cmpb	5088(%rdi), %al
	je	.L5095
	cmpb	5089(%rdi), %dl
	je	.L5096
	cmpb	5090(%rdi), %cl
	je	.L5097
	cmpb	5091(%rdi), %al
	je	.L5098
	cmpb	5092(%rdi), %dl
	je	.L5099
	cmpb	5093(%rdi), %cl
	je	.L5100
	cmpb	5094(%rdi), %al
	je	.L5101
	cmpb	5095(%rdi), %dl
	je	.L5102
	cmpb	5096(%rdi), %cl
	je	.L5103
	cmpb	5097(%rdi), %al
	je	.L5104
	cmpb	5098(%rdi), %dl
	je	.L5105
	cmpb	5099(%rdi), %cl
	je	.L5106
	cmpb	5100(%rdi), %al
	je	.L5107
	cmpb	5101(%rdi), %dl
	je	.L5108
	cmpb	5102(%rdi), %cl
	je	.L5109
	cmpb	5103(%rdi), %al
	je	.L5110
	cmpb	5104(%rdi), %dl
	je	.L5111
	cmpb	5105(%rdi), %cl
	je	.L5112
	cmpb	5106(%rdi), %al
	je	.L5113
	cmpb	5107(%rdi), %dl
	je	.L5114
	cmpb	5108(%rdi), %cl
	je	.L5115
	cmpb	5109(%rdi), %al
	je	.L5116
	cmpb	5110(%rdi), %dl
	je	.L5117
	cmpb	5111(%rdi), %cl
	je	.L5118
	cmpb	5112(%rdi), %al
	je	.L5119
	cmpb	5113(%rdi), %dl
	je	.L5120
	cmpb	5114(%rdi), %cl
	je	.L5121
	cmpb	5115(%rdi), %al
	je	.L5122
	cmpb	5116(%rdi), %dl
	je	.L5123
	cmpb	5117(%rdi), %cl
	je	.L5124
	cmpb	5118(%rdi), %al
	je	.L5125
	cmpb	5119(%rdi), %dl
	je	.L5126
	cmpb	5120(%rdi), %cl
	je	.L5127
	cmpb	5121(%rdi), %al
	je	.L5128
	cmpb	5122(%rdi), %dl
	je	.L5129
	cmpb	5123(%rdi), %cl
	je	.L5130
	cmpb	5124(%rdi), %al
	je	.L5131
	cmpb	5125(%rdi), %dl
	je	.L5132
	cmpb	5126(%rdi), %cl
	je	.L5133
	cmpb	5127(%rdi), %al
	je	.L5134
	cmpb	5128(%rdi), %dl
	je	.L5135
	cmpb	5129(%rdi), %cl
	je	.L5136
	cmpb	5130(%rdi), %al
	je	.L5137
	cmpb	5131(%rdi), %dl
	je	.L5138
	cmpb	5132(%rdi), %cl
	je	.L5139
	cmpb	5133(%rdi), %al
	je	.L5140
	cmpb	5134(%rdi), %dl
	je	.L5141
	cmpb	5135(%rdi), %cl
	je	.L5142
	cmpb	5136(%rdi), %al
	je	.L5143
	cmpb	5137(%rdi), %dl
	je	.L5144
	cmpb	5138(%rdi), %cl
	je	.L5145
	cmpb	5139(%rdi), %al
	je	.L5146
	cmpb	5140(%rdi), %dl
	je	.L5147
	cmpb	5141(%rdi), %cl
	je	.L5148
	cmpb	5142(%rdi), %al
	je	.L5149
	cmpb	5143(%rdi), %dl
	je	.L5150
	cmpb	5144(%rdi), %cl
	je	.L5151
	cmpb	5145(%rdi), %al
	je	.L5152
	cmpb	5146(%rdi), %dl
	je	.L5153
	cmpb	5147(%rdi), %cl
	je	.L5154
	cmpb	5148(%rdi), %al
	je	.L5155
	cmpb	5149(%rdi), %dl
	je	.L5156
	cmpb	5150(%rdi), %cl
	je	.L5157
	cmpb	5151(%rdi), %al
	je	.L5158
	cmpb	5152(%rdi), %dl
	je	.L5159
	cmpb	5153(%rdi), %cl
	je	.L5160
	cmpb	5154(%rdi), %al
	je	.L5161
	cmpb	5155(%rdi), %dl
	je	.L5162
	cmpb	5156(%rdi), %cl
	je	.L5163
	cmpb	5157(%rdi), %al
	je	.L5164
	cmpb	5158(%rdi), %dl
	je	.L5165
	cmpb	5159(%rdi), %cl
	je	.L5166
	cmpb	5160(%rdi), %al
	je	.L5167
	cmpb	5161(%rdi), %dl
	je	.L5168
	cmpb	5162(%rdi), %cl
	je	.L5169
	cmpb	5163(%rdi), %al
	je	.L5170
	cmpb	5164(%rdi), %dl
	je	.L5171
	cmpb	5165(%rdi), %cl
	je	.L5172
	cmpb	5166(%rdi), %al
	je	.L5173
	cmpb	5167(%rdi), %dl
	je	.L5174
	cmpb	5168(%rdi), %cl
	je	.L5175
	cmpb	5169(%rdi), %al
	je	.L5176
	cmpb	5170(%rdi), %dl
	je	.L5177
	cmpb	5171(%rdi), %cl
	je	.L5178
	cmpb	5172(%rdi), %al
	je	.L5179
	cmpb	5173(%rdi), %dl
	je	.L5180
	cmpb	5174(%rdi), %cl
	je	.L5181
	cmpb	5175(%rdi), %al
	je	.L5182
	cmpb	5176(%rdi), %dl
	je	.L5183
	cmpb	5177(%rdi), %cl
	je	.L5184
	cmpb	5178(%rdi), %al
	je	.L5185
	cmpb	5179(%rdi), %dl
	je	.L5186
	cmpb	5180(%rdi), %cl
	je	.L5187
	cmpb	5181(%rdi), %al
	je	.L5188
	cmpb	5182(%rdi), %dl
	je	.L5189
	cmpb	5183(%rdi), %cl
	je	.L5190
	cmpb	5184(%rdi), %al
	je	.L5191
	cmpb	5185(%rdi), %dl
	je	.L5192
	cmpb	5186(%rdi), %cl
	je	.L5193
	cmpb	5187(%rdi), %al
	je	.L5194
	cmpb	5188(%rdi), %dl
	je	.L5195
	cmpb	5189(%rdi), %cl
	je	.L5196
	cmpb	5190(%rdi), %al
	je	.L5197
	cmpb	5191(%rdi), %dl
	je	.L5198
	cmpb	5192(%rdi), %cl
	je	.L5199
	cmpb	5193(%rdi), %al
	je	.L5200
	cmpb	5194(%rdi), %dl
	je	.L5201
	cmpb	5195(%rdi), %cl
	je	.L5202
	cmpb	5196(%rdi), %al
	je	.L5203
	cmpb	5197(%rdi), %dl
	je	.L5204
	cmpb	5198(%rdi), %cl
	je	.L5205
	cmpb	5199(%rdi), %al
	je	.L5206
	cmpb	5200(%rdi), %dl
	je	.L5207
	cmpb	5201(%rdi), %cl
	je	.L5208
	cmpb	5202(%rdi), %al
	je	.L5209
	cmpb	5203(%rdi), %dl
	je	.L5210
	cmpb	5204(%rdi), %cl
	je	.L5211
	cmpb	5205(%rdi), %al
	je	.L5212
	cmpb	5206(%rdi), %dl
	je	.L5213
	cmpb	5207(%rdi), %cl
	je	.L5214
	cmpb	5208(%rdi), %al
	je	.L5215
	cmpb	5209(%rdi), %dl
	je	.L5216
	cmpb	5210(%rdi), %cl
	je	.L5217
	cmpb	5211(%rdi), %al
	je	.L5218
	cmpb	5212(%rdi), %dl
	je	.L5219
	cmpb	5213(%rdi), %cl
	je	.L5220
	cmpb	5214(%rdi), %al
	je	.L5221
	cmpb	5215(%rdi), %dl
	je	.L5222
	cmpb	5216(%rdi), %cl
	je	.L5223
	cmpb	5217(%rdi), %al
	je	.L5224
	cmpb	5218(%rdi), %dl
	je	.L5225
	cmpb	5219(%rdi), %cl
	je	.L5226
	cmpb	5220(%rdi), %al
	je	.L5227
	cmpb	5221(%rdi), %dl
	je	.L5228
	cmpb	5222(%rdi), %cl
	je	.L5229
	cmpb	5223(%rdi), %al
	je	.L5230
	cmpb	5224(%rdi), %dl
	je	.L5231
	cmpb	5225(%rdi), %cl
	je	.L5232
	cmpb	5226(%rdi), %al
	je	.L5233
	cmpb	5227(%rdi), %dl
	je	.L5234
	cmpb	5228(%rdi), %cl
	je	.L5235
	cmpb	5229(%rdi), %al
	je	.L5236
	cmpb	5230(%rdi), %dl
	je	.L5237
	cmpb	5231(%rdi), %cl
	je	.L5238
	cmpb	5232(%rdi), %al
	je	.L5239
	cmpb	5233(%rdi), %dl
	je	.L5240
	cmpb	5234(%rdi), %cl
	je	.L5241
	cmpb	5235(%rdi), %al
	je	.L5242
	cmpb	5236(%rdi), %dl
	je	.L5243
	cmpb	5237(%rdi), %cl
	je	.L5244
	cmpb	5238(%rdi), %al
	je	.L5245
	cmpb	5239(%rdi), %dl
	je	.L5246
	cmpb	5240(%rdi), %cl
	je	.L5247
	cmpb	5241(%rdi), %al
	je	.L5248
	cmpb	5242(%rdi), %dl
	je	.L5249
	cmpb	5243(%rdi), %cl
	je	.L5250
	cmpb	5244(%rdi), %al
	je	.L5251
	cmpb	5245(%rdi), %dl
	je	.L5252
	cmpb	5246(%rdi), %cl
	je	.L5253
	cmpb	5247(%rdi), %al
	je	.L5254
	cmpb	5248(%rdi), %dl
	je	.L5255
	cmpb	5249(%rdi), %cl
	je	.L5256
	cmpb	5250(%rdi), %al
	je	.L5257
	cmpb	5251(%rdi), %dl
	je	.L5258
	cmpb	5252(%rdi), %cl
	je	.L5259
	cmpb	5253(%rdi), %al
	je	.L5260
	cmpb	5254(%rdi), %dl
	je	.L5261
	cmpb	5255(%rdi), %cl
	je	.L5262
	cmpb	5256(%rdi), %al
	je	.L5263
	cmpb	5257(%rdi), %dl
	je	.L5264
	cmpb	5258(%rdi), %cl
	je	.L5265
	cmpb	5259(%rdi), %al
	je	.L5266
	cmpb	5260(%rdi), %dl
	je	.L5267
	cmpb	5261(%rdi), %cl
	je	.L5268
	cmpb	5262(%rdi), %al
	je	.L5269
	cmpb	5263(%rdi), %dl
	je	.L5270
	cmpb	5264(%rdi), %cl
	je	.L5271
	cmpb	5265(%rdi), %al
	je	.L5272
	cmpb	5266(%rdi), %dl
	je	.L5273
	cmpb	5267(%rdi), %cl
	je	.L5274
	cmpb	5268(%rdi), %al
	je	.L5275
	cmpb	5269(%rdi), %dl
	je	.L5276
	cmpb	5270(%rdi), %cl
	je	.L5277
	cmpb	5271(%rdi), %al
	je	.L5278
	cmpb	5272(%rdi), %dl
	je	.L5279
	cmpb	5273(%rdi), %cl
	je	.L5280
	cmpb	5274(%rdi), %al
	je	.L5281
	cmpb	5275(%rdi), %dl
	je	.L5282
	cmpb	5276(%rdi), %cl
	je	.L5283
	cmpb	5277(%rdi), %al
	je	.L5284
	cmpb	5278(%rdi), %dl
	je	.L5285
	cmpb	5279(%rdi), %cl
	je	.L5286
	cmpb	5280(%rdi), %al
	je	.L5287
	cmpb	5281(%rdi), %dl
	je	.L5288
	cmpb	5282(%rdi), %cl
	je	.L5289
	cmpb	5283(%rdi), %al
	je	.L5290
	cmpb	5284(%rdi), %dl
	je	.L5291
	cmpb	5285(%rdi), %cl
	je	.L5292
	cmpb	5286(%rdi), %al
	je	.L5293
	cmpb	5287(%rdi), %dl
	je	.L5294
	cmpb	5288(%rdi), %cl
	je	.L5295
	cmpb	5289(%rdi), %al
	je	.L5296
	cmpb	5290(%rdi), %dl
	je	.L5297
	cmpb	5291(%rdi), %cl
	je	.L5298
	cmpb	5292(%rdi), %al
	je	.L5299
	cmpb	5293(%rdi), %dl
	je	.L5300
	cmpb	5294(%rdi), %cl
	je	.L5301
	cmpb	5295(%rdi), %al
	je	.L5302
	cmpb	5296(%rdi), %dl
	je	.L5303
	cmpb	5297(%rdi), %cl
	je	.L5304
	cmpb	5298(%rdi), %al
	je	.L5305
	cmpb	5299(%rdi), %dl
	je	.L5306
	cmpb	5300(%rdi), %cl
	je	.L5307
	cmpb	5301(%rdi), %al
	je	.L5308
	cmpb	5302(%rdi), %dl
	je	.L5309
	cmpb	5303(%rdi), %cl
	je	.L5310
	cmpb	5304(%rdi), %al
	je	.L5311
	cmpb	5305(%rdi), %dl
	je	.L5312
	cmpb	5306(%rdi), %cl
	je	.L5313
	cmpb	5307(%rdi), %al
	je	.L5314
	cmpb	5308(%rdi), %dl
	je	.L5315
	cmpb	5309(%rdi), %cl
	je	.L5316
	cmpb	5310(%rdi), %al
	je	.L5317
	cmpb	5311(%rdi), %dl
	je	.L5318
	cmpb	5312(%rdi), %cl
	je	.L5319
	cmpb	5313(%rdi), %al
	je	.L5320
	cmpb	5314(%rdi), %dl
	je	.L5321
	cmpb	5315(%rdi), %cl
	je	.L5322
	cmpb	5316(%rdi), %al
	je	.L5323
	cmpb	5317(%rdi), %dl
	je	.L5324
	cmpb	5318(%rdi), %cl
	je	.L5325
	cmpb	5319(%rdi), %al
	je	.L5326
	cmpb	5320(%rdi), %dl
	je	.L5327
	cmpb	5321(%rdi), %cl
	je	.L5328
	cmpb	5322(%rdi), %al
	je	.L5329
	cmpb	5323(%rdi), %dl
	je	.L5330
	cmpb	5324(%rdi), %cl
	je	.L5331
	cmpb	5325(%rdi), %al
	je	.L5332
	cmpb	5326(%rdi), %dl
	je	.L5333
	cmpb	5327(%rdi), %cl
	je	.L5334
	cmpb	5328(%rdi), %al
	je	.L5335
	cmpb	5329(%rdi), %dl
	je	.L5336
	cmpb	5330(%rdi), %cl
	je	.L5337
	cmpb	5331(%rdi), %al
	je	.L5338
	cmpb	5332(%rdi), %dl
	je	.L5339
	cmpb	5333(%rdi), %cl
	je	.L5340
	cmpb	5334(%rdi), %al
	je	.L5341
	cmpb	5335(%rdi), %dl
	je	.L5342
	cmpb	5336(%rdi), %cl
	je	.L5343
	cmpb	5337(%rdi), %al
	je	.L5344
	cmpb	5338(%rdi), %dl
	je	.L5345
	cmpb	5339(%rdi), %cl
	je	.L5346
	cmpb	5340(%rdi), %al
	je	.L5347
	cmpb	5341(%rdi), %dl
	je	.L5348
	cmpb	5342(%rdi), %cl
	je	.L5349
	cmpb	5343(%rdi), %al
	je	.L5350
	cmpb	5344(%rdi), %dl
	je	.L5351
	cmpb	5345(%rdi), %cl
	je	.L5352
	cmpb	5346(%rdi), %al
	je	.L5353
	cmpb	5347(%rdi), %dl
	je	.L5354
	cmpb	5348(%rdi), %cl
	je	.L5355
	cmpb	5349(%rdi), %al
	je	.L5356
	cmpb	5350(%rdi), %dl
	je	.L5357
	cmpb	5351(%rdi), %cl
	je	.L5358
	cmpb	5352(%rdi), %al
	je	.L5359
	cmpb	5353(%rdi), %dl
	je	.L5360
	cmpb	5354(%rdi), %cl
	je	.L5361
	cmpb	5355(%rdi), %al
	je	.L5362
	cmpb	5356(%rdi), %dl
	je	.L5363
	cmpb	5357(%rdi), %cl
	je	.L5364
	cmpb	5358(%rdi), %al
	je	.L5365
	cmpb	5359(%rdi), %dl
	je	.L5366
	cmpb	5360(%rdi), %cl
	je	.L5367
	cmpb	5361(%rdi), %al
	je	.L5368
	cmpb	5362(%rdi), %dl
	je	.L5369
	cmpb	5363(%rdi), %cl
	je	.L5370
	cmpb	5364(%rdi), %al
	je	.L5371
	cmpb	5365(%rdi), %dl
	je	.L5372
	cmpb	5366(%rdi), %cl
	je	.L5373
	cmpb	5367(%rdi), %al
	je	.L5374
	cmpb	5368(%rdi), %dl
	je	.L5375
	cmpb	5369(%rdi), %cl
	je	.L5376
	cmpb	5370(%rdi), %al
	je	.L5377
	cmpb	5371(%rdi), %dl
	je	.L5378
	cmpb	5372(%rdi), %cl
	je	.L5379
	cmpb	5373(%rdi), %al
	je	.L5380
	cmpb	5374(%rdi), %dl
	je	.L5381
	cmpb	5375(%rdi), %cl
	je	.L5382
	cmpb	5376(%rdi), %al
	je	.L5383
	cmpb	5377(%rdi), %dl
	je	.L5384
	cmpb	5378(%rdi), %cl
	je	.L5385
	cmpb	5379(%rdi), %al
	je	.L5386
	cmpb	5380(%rdi), %dl
	je	.L5387
	cmpb	5381(%rdi), %cl
	je	.L5388
	cmpb	5382(%rdi), %al
	je	.L5389
	cmpb	5383(%rdi), %dl
	je	.L5390
	cmpb	5384(%rdi), %cl
	je	.L5391
	cmpb	5385(%rdi), %al
	je	.L5392
	cmpb	5386(%rdi), %dl
	je	.L5393
	cmpb	5387(%rdi), %cl
	je	.L5394
	cmpb	5388(%rdi), %al
	je	.L5395
	cmpb	5389(%rdi), %dl
	je	.L5396
	cmpb	5390(%rdi), %cl
	je	.L5397
	cmpb	5391(%rdi), %al
	je	.L5398
	cmpb	5392(%rdi), %dl
	je	.L5399
	cmpb	5393(%rdi), %cl
	je	.L5400
	cmpb	5394(%rdi), %al
	je	.L5401
	cmpb	5395(%rdi), %dl
	je	.L5402
	cmpb	5396(%rdi), %cl
	je	.L5403
	cmpb	5397(%rdi), %al
	je	.L5404
	cmpb	5398(%rdi), %dl
	je	.L5405
	cmpb	5399(%rdi), %cl
	je	.L5406
	cmpb	5400(%rdi), %al
	je	.L5407
	cmpb	5401(%rdi), %dl
	je	.L5408
	cmpb	5402(%rdi), %cl
	je	.L5409
	cmpb	5403(%rdi), %al
	je	.L5410
	cmpb	5404(%rdi), %dl
	je	.L5411
	cmpb	5405(%rdi), %cl
	je	.L5412
	cmpb	5406(%rdi), %al
	je	.L5413
	cmpb	5407(%rdi), %dl
	je	.L5414
	cmpb	5408(%rdi), %cl
	je	.L5415
	cmpb	5409(%rdi), %al
	je	.L5416
	cmpb	5410(%rdi), %dl
	je	.L5417
	cmpb	5411(%rdi), %cl
	je	.L5418
	cmpb	5412(%rdi), %al
	je	.L5419
	cmpb	5413(%rdi), %dl
	je	.L5420
	cmpb	5414(%rdi), %cl
	je	.L5421
	cmpb	5415(%rdi), %al
	je	.L5422
	cmpb	5416(%rdi), %dl
	je	.L5423
	cmpb	5417(%rdi), %cl
	je	.L5424
	cmpb	5418(%rdi), %al
	je	.L5425
	cmpb	5419(%rdi), %dl
	je	.L5426
	cmpb	5420(%rdi), %cl
	je	.L5427
	cmpb	5421(%rdi), %al
	je	.L5428
	cmpb	5422(%rdi), %dl
	je	.L5429
	cmpb	5423(%rdi), %cl
	je	.L5430
	cmpb	5424(%rdi), %al
	je	.L5431
	cmpb	5425(%rdi), %dl
	je	.L5432
	cmpb	5426(%rdi), %cl
	je	.L5433
	cmpb	5427(%rdi), %al
	je	.L5434
	cmpb	5428(%rdi), %dl
	je	.L5435
	cmpb	5429(%rdi), %cl
	je	.L5436
	cmpb	5430(%rdi), %al
	je	.L5437
	cmpb	5431(%rdi), %dl
	je	.L5438
	cmpb	5432(%rdi), %cl
	je	.L5439
	cmpb	5433(%rdi), %al
	je	.L5440
	cmpb	5434(%rdi), %dl
	je	.L5441
	cmpb	5435(%rdi), %cl
	je	.L5442
	cmpb	5436(%rdi), %al
	je	.L5443
	cmpb	5437(%rdi), %dl
	je	.L5444
	cmpb	5438(%rdi), %cl
	je	.L5445
	cmpb	5439(%rdi), %al
	je	.L5446
	cmpb	5440(%rdi), %dl
	je	.L5447
	cmpb	5441(%rdi), %cl
	je	.L5448
	cmpb	5442(%rdi), %al
	je	.L5449
	cmpb	5443(%rdi), %dl
	je	.L5450
	cmpb	5444(%rdi), %cl
	je	.L5451
	cmpb	5445(%rdi), %al
	je	.L5452
	cmpb	5446(%rdi), %dl
	je	.L5453
	cmpb	5447(%rdi), %cl
	je	.L5454
	cmpb	5448(%rdi), %al
	je	.L5455
	cmpb	5449(%rdi), %dl
	je	.L5456
	cmpb	5450(%rdi), %cl
	je	.L5457
	cmpb	5451(%rdi), %al
	je	.L5458
	cmpb	5452(%rdi), %dl
	je	.L5459
	cmpb	5453(%rdi), %cl
	je	.L5460
	cmpb	5454(%rdi), %al
	je	.L5461
	cmpb	5455(%rdi), %dl
	je	.L5462
	cmpb	5456(%rdi), %cl
	je	.L5463
	cmpb	5457(%rdi), %al
	je	.L5464
	cmpb	5458(%rdi), %dl
	je	.L5465
	cmpb	5459(%rdi), %cl
	je	.L5466
	cmpb	5460(%rdi), %al
	je	.L5467
	cmpb	5461(%rdi), %dl
	je	.L5468
	cmpb	5462(%rdi), %cl
	je	.L5469
	cmpb	5463(%rdi), %al
	je	.L5470
	cmpb	5464(%rdi), %dl
	je	.L5471
	cmpb	5465(%rdi), %cl
	je	.L5472
	cmpb	5466(%rdi), %al
	je	.L5473
	cmpb	5467(%rdi), %dl
	je	.L5474
	cmpb	5468(%rdi), %cl
	je	.L5475
	cmpb	5469(%rdi), %al
	je	.L5476
	cmpb	5470(%rdi), %dl
	je	.L5477
	cmpb	5471(%rdi), %cl
	je	.L5478
	cmpb	5472(%rdi), %al
	je	.L5479
	cmpb	5473(%rdi), %dl
	je	.L5480
	cmpb	5474(%rdi), %cl
	je	.L5481
	cmpb	5475(%rdi), %al
	je	.L5482
	cmpb	5476(%rdi), %dl
	je	.L5483
	cmpb	5477(%rdi), %cl
	je	.L5484
	cmpb	5478(%rdi), %al
	je	.L5485
	cmpb	5479(%rdi), %dl
	je	.L5486
	cmpb	5480(%rdi), %cl
	je	.L5487
	cmpb	5481(%rdi), %al
	je	.L5488
	cmpb	5482(%rdi), %dl
	je	.L5489
	cmpb	5483(%rdi), %cl
	je	.L5490
	cmpb	5484(%rdi), %al
	je	.L5491
	cmpb	5485(%rdi), %dl
	je	.L5492
	cmpb	5486(%rdi), %cl
	je	.L5493
	cmpb	5487(%rdi), %al
	je	.L5494
	cmpb	5488(%rdi), %dl
	je	.L5495
	cmpb	5489(%rdi), %cl
	je	.L5496
	cmpb	5490(%rdi), %al
	je	.L5497
	cmpb	5491(%rdi), %dl
	je	.L5498
	cmpb	5492(%rdi), %cl
	je	.L5499
	cmpb	5493(%rdi), %al
	je	.L5500
	cmpb	5494(%rdi), %dl
	je	.L5501
	cmpb	5495(%rdi), %cl
	je	.L5502
	cmpb	5496(%rdi), %al
	je	.L5503
	cmpb	5497(%rdi), %dl
	je	.L5504
	cmpb	5498(%rdi), %cl
	je	.L5505
	cmpb	5499(%rdi), %al
	je	.L5506
	cmpb	5500(%rdi), %dl
	je	.L5507
	cmpb	5501(%rdi), %cl
	je	.L5508
	cmpb	5502(%rdi), %al
	je	.L5509
	cmpb	5503(%rdi), %dl
	je	.L5510
	cmpb	5504(%rdi), %cl
	je	.L5511
	cmpb	5505(%rdi), %al
	je	.L5512
	cmpb	5506(%rdi), %dl
	je	.L5513
	cmpb	5507(%rdi), %cl
	je	.L5514
	cmpb	5508(%rdi), %al
	je	.L5515
	cmpb	5509(%rdi), %dl
	je	.L5516
	cmpb	5510(%rdi), %cl
	je	.L5517
	cmpb	5511(%rdi), %al
	je	.L5518
	cmpb	5512(%rdi), %dl
	je	.L5519
	cmpb	5513(%rdi), %cl
	je	.L5520
	cmpb	5514(%rdi), %al
	je	.L5521
	cmpb	5515(%rdi), %dl
	je	.L5522
	cmpb	5516(%rdi), %cl
	je	.L5523
	cmpb	5517(%rdi), %al
	je	.L5524
	cmpb	5518(%rdi), %dl
	je	.L5525
	cmpb	5519(%rdi), %cl
	je	.L5526
	cmpb	5520(%rdi), %al
	je	.L5527
	cmpb	5521(%rdi), %dl
	je	.L5528
	cmpb	5522(%rdi), %cl
	je	.L5529
	cmpb	5523(%rdi), %al
	je	.L5530
	cmpb	5524(%rdi), %dl
	je	.L5531
	cmpb	5525(%rdi), %cl
	je	.L5532
	cmpb	5526(%rdi), %al
	je	.L5533
	cmpb	5527(%rdi), %dl
	je	.L5534
	cmpb	5528(%rdi), %cl
	je	.L5535
	cmpb	5529(%rdi), %al
	je	.L5536
	cmpb	5530(%rdi), %dl
	je	.L5537
	cmpb	5531(%rdi), %cl
	je	.L5538
	cmpb	5532(%rdi), %al
	je	.L5539
	cmpb	5533(%rdi), %dl
	je	.L5540
	cmpb	5534(%rdi), %cl
	je	.L5541
	cmpb	5535(%rdi), %al
	je	.L5542
	cmpb	5536(%rdi), %dl
	je	.L5543
	cmpb	5537(%rdi), %cl
	je	.L5544
	cmpb	5538(%rdi), %al
	je	.L5545
	cmpb	5539(%rdi), %dl
	je	.L5546
	cmpb	5540(%rdi), %cl
	je	.L5547
	cmpb	5541(%rdi), %al
	je	.L5548
	cmpb	5542(%rdi), %dl
	je	.L5549
	cmpb	5543(%rdi), %cl
	je	.L5550
	cmpb	5544(%rdi), %al
	je	.L5551
	cmpb	5545(%rdi), %dl
	je	.L5552
	cmpb	5546(%rdi), %cl
	je	.L5553
	cmpb	5547(%rdi), %al
	je	.L5554
	cmpb	5548(%rdi), %dl
	je	.L5555
	cmpb	5549(%rdi), %cl
	je	.L5556
	cmpb	5550(%rdi), %al
	je	.L5557
	cmpb	5551(%rdi), %dl
	je	.L5558
	cmpb	5552(%rdi), %cl
	je	.L5559
	cmpb	5553(%rdi), %al
	je	.L5560
	cmpb	5554(%rdi), %dl
	je	.L5561
	cmpb	5555(%rdi), %cl
	je	.L5562
	cmpb	5556(%rdi), %al
	je	.L5563
	cmpb	5557(%rdi), %dl
	je	.L5564
	cmpb	5558(%rdi), %cl
	je	.L5565
	cmpb	5559(%rdi), %al
	je	.L5566
	cmpb	5560(%rdi), %dl
	je	.L5567
	cmpb	5561(%rdi), %cl
	je	.L5568
	cmpb	5562(%rdi), %al
	je	.L5569
	cmpb	5563(%rdi), %dl
	je	.L5570
	cmpb	5564(%rdi), %cl
	je	.L5571
	cmpb	5565(%rdi), %al
	je	.L5572
	cmpb	5566(%rdi), %dl
	je	.L5573
	cmpb	5567(%rdi), %cl
	je	.L5574
	cmpb	5568(%rdi), %al
	je	.L5575
	cmpb	5569(%rdi), %dl
	je	.L5576
	cmpb	5570(%rdi), %cl
	je	.L5577
	cmpb	5571(%rdi), %al
	je	.L5578
	cmpb	5572(%rdi), %dl
	je	.L5579
	cmpb	5573(%rdi), %cl
	je	.L5580
	cmpb	5574(%rdi), %al
	je	.L5581
	cmpb	5575(%rdi), %dl
	je	.L5582
	cmpb	5576(%rdi), %cl
	je	.L5583
	cmpb	5577(%rdi), %al
	je	.L5584
	cmpb	5578(%rdi), %dl
	je	.L5585
	cmpb	5579(%rdi), %cl
	je	.L5586
	cmpb	5580(%rdi), %al
	je	.L5587
	cmpb	5581(%rdi), %dl
	je	.L5588
	cmpb	5582(%rdi), %cl
	je	.L5589
	cmpb	5583(%rdi), %al
	je	.L5590
	cmpb	5584(%rdi), %dl
	je	.L5591
	cmpb	5585(%rdi), %cl
	je	.L5592
	cmpb	5586(%rdi), %al
	je	.L5593
	cmpb	5587(%rdi), %dl
	je	.L5594
	cmpb	5588(%rdi), %cl
	je	.L5595
	cmpb	5589(%rdi), %al
	je	.L5596
	cmpb	5590(%rdi), %dl
	je	.L5597
	cmpb	5591(%rdi), %cl
	je	.L5598
	cmpb	5592(%rdi), %al
	je	.L5599
	cmpb	5593(%rdi), %dl
	je	.L5600
	cmpb	5594(%rdi), %cl
	je	.L5601
	cmpb	5595(%rdi), %al
	je	.L5602
	cmpb	5596(%rdi), %dl
	je	.L5603
	cmpb	5597(%rdi), %cl
	je	.L5604
	cmpb	5598(%rdi), %al
	je	.L5605
	cmpb	5599(%rdi), %dl
	je	.L5606
	cmpb	5600(%rdi), %cl
	je	.L5607
	cmpb	5601(%rdi), %al
	je	.L5608
	cmpb	5602(%rdi), %dl
	je	.L5609
	cmpb	5603(%rdi), %cl
	je	.L5610
	cmpb	5604(%rdi), %al
	je	.L5611
	cmpb	5605(%rdi), %dl
	je	.L5612
	cmpb	5606(%rdi), %cl
	je	.L5613
	cmpb	5607(%rdi), %al
	je	.L5614
	cmpb	5608(%rdi), %dl
	je	.L5615
	cmpb	5609(%rdi), %cl
	je	.L5616
	cmpb	5610(%rdi), %al
	je	.L5617
	cmpb	5611(%rdi), %dl
	je	.L5618
	cmpb	5612(%rdi), %cl
	je	.L5619
	cmpb	5613(%rdi), %al
	je	.L5620
	cmpb	5614(%rdi), %dl
	je	.L5621
	cmpb	5615(%rdi), %cl
	je	.L5622
	cmpb	5616(%rdi), %al
	je	.L5623
	cmpb	5617(%rdi), %dl
	je	.L5624
	cmpb	5618(%rdi), %cl
	je	.L5625
	cmpb	5619(%rdi), %al
	je	.L5626
	cmpb	5620(%rdi), %dl
	je	.L5627
	cmpb	5621(%rdi), %cl
	je	.L5628
	cmpb	5622(%rdi), %al
	je	.L5629
	cmpb	5623(%rdi), %dl
	je	.L5630
	cmpb	5624(%rdi), %cl
	je	.L5631
	cmpb	5625(%rdi), %al
	je	.L5632
	cmpb	5626(%rdi), %dl
	je	.L5633
	cmpb	5627(%rdi), %cl
	je	.L5634
	cmpb	5628(%rdi), %al
	je	.L5635
	cmpb	5629(%rdi), %dl
	je	.L5636
	cmpb	5630(%rdi), %cl
	je	.L5637
	cmpb	5631(%rdi), %al
	je	.L5638
	cmpb	5632(%rdi), %dl
	je	.L5639
	cmpb	5633(%rdi), %cl
	je	.L5640
	cmpb	5634(%rdi), %al
	je	.L5641
	cmpb	5635(%rdi), %dl
	je	.L5642
	cmpb	5636(%rdi), %cl
	je	.L5643
	cmpb	5637(%rdi), %al
	je	.L5644
	cmpb	5638(%rdi), %dl
	je	.L5645
	cmpb	5639(%rdi), %cl
	je	.L5646
	cmpb	5640(%rdi), %al
	je	.L5647
	cmpb	5641(%rdi), %dl
	je	.L5648
	cmpb	5642(%rdi), %cl
	je	.L5649
	cmpb	5643(%rdi), %al
	je	.L5650
	cmpb	5644(%rdi), %dl
	je	.L5651
	cmpb	5645(%rdi), %cl
	je	.L5652
	cmpb	5646(%rdi), %al
	je	.L5653
	cmpb	5647(%rdi), %dl
	je	.L5654
	cmpb	5648(%rdi), %cl
	je	.L5655
	cmpb	5649(%rdi), %al
	je	.L5656
	cmpb	5650(%rdi), %dl
	je	.L5657
	cmpb	5651(%rdi), %cl
	je	.L5658
	cmpb	5652(%rdi), %al
	je	.L5659
	cmpb	5653(%rdi), %dl
	je	.L5660
	cmpb	5654(%rdi), %cl
	je	.L5661
	cmpb	5655(%rdi), %al
	je	.L5662
	cmpb	5656(%rdi), %dl
	je	.L5663
	cmpb	5657(%rdi), %cl
	je	.L5664
	cmpb	5658(%rdi), %al
	je	.L5665
	cmpb	5659(%rdi), %dl
	je	.L5666
	cmpb	5660(%rdi), %cl
	je	.L5667
	cmpb	5661(%rdi), %al
	je	.L5668
	cmpb	5662(%rdi), %dl
	je	.L5669
	cmpb	5663(%rdi), %cl
	je	.L5670
	cmpb	5664(%rdi), %al
	je	.L5671
	cmpb	5665(%rdi), %dl
	je	.L5672
	cmpb	5666(%rdi), %cl
	je	.L5673
	cmpb	5667(%rdi), %al
	je	.L5674
	cmpb	5668(%rdi), %dl
	je	.L5675
	cmpb	5669(%rdi), %cl
	je	.L5676
	cmpb	5670(%rdi), %al
	je	.L5677
	cmpb	5671(%rdi), %dl
	je	.L5678
	cmpb	5672(%rdi), %cl
	je	.L5679
	cmpb	5673(%rdi), %al
	je	.L5680
	cmpb	5674(%rdi), %dl
	je	.L5681
	cmpb	5675(%rdi), %cl
	je	.L5682
	cmpb	5676(%rdi), %al
	je	.L5683
	cmpb	5677(%rdi), %dl
	je	.L5684
	cmpb	5678(%rdi), %cl
	je	.L5685
	cmpb	5679(%rdi), %al
	je	.L5686
	cmpb	5680(%rdi), %dl
	je	.L5687
	cmpb	5681(%rdi), %cl
	je	.L5688
	cmpb	5682(%rdi), %al
	je	.L5689
	cmpb	5683(%rdi), %dl
	je	.L5690
	cmpb	5684(%rdi), %cl
	je	.L5691
	cmpb	5685(%rdi), %al
	je	.L5692
	cmpb	5686(%rdi), %dl
	je	.L5693
	cmpb	5687(%rdi), %cl
	je	.L5694
	cmpb	5688(%rdi), %al
	je	.L5695
	cmpb	5689(%rdi), %dl
	je	.L5696
	cmpb	5690(%rdi), %cl
	je	.L5697
	cmpb	5691(%rdi), %al
	je	.L5698
	cmpb	5692(%rdi), %dl
	je	.L5699
	cmpb	5693(%rdi), %cl
	je	.L5700
	cmpb	5694(%rdi), %al
	je	.L5701
	cmpb	5695(%rdi), %dl
	je	.L5702
	cmpb	5696(%rdi), %cl
	je	.L5703
	cmpb	5697(%rdi), %al
	je	.L5704
	cmpb	5698(%rdi), %dl
	je	.L5705
	cmpb	5699(%rdi), %cl
	je	.L5706
	cmpb	5700(%rdi), %al
	je	.L5707
	cmpb	5701(%rdi), %dl
	je	.L5708
	cmpb	5702(%rdi), %cl
	je	.L5709
	cmpb	5703(%rdi), %al
	je	.L5710
	cmpb	5704(%rdi), %dl
	je	.L5711
	cmpb	5705(%rdi), %cl
	je	.L5712
	cmpb	5706(%rdi), %al
	je	.L5713
	cmpb	5707(%rdi), %dl
	je	.L5714
	cmpb	5708(%rdi), %cl
	je	.L5715
	cmpb	5709(%rdi), %al
	je	.L5716
	cmpb	5710(%rdi), %dl
	je	.L5717
	cmpb	5711(%rdi), %cl
	je	.L5718
	cmpb	5712(%rdi), %al
	je	.L5719
	cmpb	5713(%rdi), %dl
	je	.L5720
	cmpb	5714(%rdi), %cl
	je	.L5721
	cmpb	5715(%rdi), %al
	je	.L5722
	cmpb	5716(%rdi), %dl
	je	.L5723
	cmpb	5717(%rdi), %cl
	je	.L5724
	cmpb	5718(%rdi), %al
	je	.L5725
	cmpb	5719(%rdi), %dl
	je	.L5726
	cmpb	5720(%rdi), %cl
	je	.L5727
	cmpb	5721(%rdi), %al
	je	.L5728
	cmpb	5722(%rdi), %dl
	je	.L5729
	cmpb	5723(%rdi), %cl
	je	.L5730
	cmpb	5724(%rdi), %al
	je	.L5731
	cmpb	5725(%rdi), %dl
	je	.L5732
	cmpb	5726(%rdi), %cl
	je	.L5733
	cmpb	5727(%rdi), %al
	je	.L5734
	cmpb	5728(%rdi), %dl
	je	.L5735
	cmpb	5729(%rdi), %cl
	je	.L5736
	cmpb	5730(%rdi), %al
	je	.L5737
	cmpb	5731(%rdi), %dl
	je	.L5738
	cmpb	5732(%rdi), %cl
	je	.L5739
	cmpb	5733(%rdi), %al
	je	.L5740
	cmpb	5734(%rdi), %dl
	je	.L5741
	cmpb	5735(%rdi), %cl
	je	.L5742
	cmpb	5736(%rdi), %al
	je	.L5743
	cmpb	5737(%rdi), %dl
	je	.L5744
	cmpb	5738(%rdi), %cl
	je	.L5745
	cmpb	5739(%rdi), %al
	je	.L5746
	cmpb	5740(%rdi), %dl
	je	.L5747
	cmpb	5741(%rdi), %cl
	je	.L5748
	cmpb	5742(%rdi), %al
	je	.L5749
	cmpb	5743(%rdi), %dl
	je	.L5750
	cmpb	5744(%rdi), %cl
	je	.L5751
	cmpb	5745(%rdi), %al
	je	.L5752
	cmpb	5746(%rdi), %dl
	je	.L5753
	cmpb	5747(%rdi), %cl
	je	.L5754
	cmpb	5748(%rdi), %al
	je	.L5755
	cmpb	5749(%rdi), %dl
	je	.L5756
	cmpb	5750(%rdi), %cl
	je	.L5757
	cmpb	5751(%rdi), %al
	je	.L5758
	cmpb	5752(%rdi), %dl
	je	.L5759
	cmpb	5753(%rdi), %cl
	je	.L5760
	cmpb	5754(%rdi), %al
	je	.L5761
	cmpb	5755(%rdi), %dl
	je	.L5762
	cmpb	5756(%rdi), %cl
	je	.L5763
	cmpb	5757(%rdi), %al
	je	.L5764
	cmpb	5758(%rdi), %dl
	je	.L5765
	cmpb	5759(%rdi), %cl
	je	.L5766
	cmpb	5760(%rdi), %al
	je	.L5767
	cmpb	5761(%rdi), %dl
	je	.L5768
	cmpb	5762(%rdi), %cl
	je	.L5769
	cmpb	5763(%rdi), %al
	je	.L5770
	cmpb	5764(%rdi), %dl
	je	.L5771
	cmpb	5765(%rdi), %cl
	je	.L5772
	cmpb	5766(%rdi), %al
	je	.L5773
	cmpb	5767(%rdi), %dl
	je	.L5774
	cmpb	5768(%rdi), %cl
	je	.L5775
	cmpb	5769(%rdi), %al
	je	.L5776
	cmpb	5770(%rdi), %dl
	je	.L5777
	cmpb	5771(%rdi), %cl
	je	.L5778
	cmpb	5772(%rdi), %al
	je	.L5779
	cmpb	5773(%rdi), %dl
	je	.L5780
	cmpb	5774(%rdi), %cl
	je	.L5781
	cmpb	5775(%rdi), %al
	je	.L5782
	cmpb	5776(%rdi), %dl
	je	.L5783
	cmpb	5777(%rdi), %cl
	je	.L5784
	cmpb	5778(%rdi), %al
	je	.L5785
	cmpb	5779(%rdi), %dl
	je	.L5786
	cmpb	5780(%rdi), %cl
	je	.L5787
	cmpb	5781(%rdi), %al
	je	.L5788
	cmpb	5782(%rdi), %dl
	je	.L5789
	cmpb	5783(%rdi), %cl
	je	.L5790
	cmpb	5784(%rdi), %al
	je	.L5791
	cmpb	5785(%rdi), %dl
	je	.L5792
	cmpb	5786(%rdi), %cl
	je	.L5793
	cmpb	5787(%rdi), %al
	je	.L5794
	cmpb	5788(%rdi), %dl
	je	.L5795
	cmpb	5789(%rdi), %cl
	je	.L5796
	cmpb	5790(%rdi), %al
	je	.L5797
	cmpb	5791(%rdi), %dl
	je	.L5798
	cmpb	5792(%rdi), %cl
	je	.L5799
	cmpb	5793(%rdi), %al
	je	.L5800
	cmpb	5794(%rdi), %dl
	je	.L5801
	cmpb	5795(%rdi), %cl
	je	.L5802
	cmpb	5796(%rdi), %al
	je	.L5803
	cmpb	5797(%rdi), %dl
	je	.L5804
	cmpb	5798(%rdi), %cl
	je	.L5805
	cmpb	5799(%rdi), %al
	je	.L5806
	cmpb	5800(%rdi), %dl
	je	.L5807
	cmpb	5801(%rdi), %cl
	je	.L5808
	cmpb	5802(%rdi), %al
	je	.L5809
	cmpb	5803(%rdi), %dl
	je	.L5810
	cmpb	5804(%rdi), %cl
	je	.L5811
	cmpb	5805(%rdi), %al
	je	.L5812
	cmpb	5806(%rdi), %dl
	je	.L5813
	cmpb	5807(%rdi), %cl
	je	.L5814
	cmpb	5808(%rdi), %al
	je	.L5815
	cmpb	5809(%rdi), %dl
	je	.L5816
	cmpb	5810(%rdi), %cl
	je	.L5817
	cmpb	5811(%rdi), %al
	je	.L5818
	cmpb	5812(%rdi), %dl
	je	.L5819
	cmpb	5813(%rdi), %cl
	je	.L5820
	cmpb	5814(%rdi), %al
	je	.L5821
	cmpb	5815(%rdi), %dl
	je	.L5822
	cmpb	5816(%rdi), %cl
	je	.L5823
	cmpb	5817(%rdi), %al
	je	.L5824
	cmpb	5818(%rdi), %dl
	je	.L5825
	cmpb	5819(%rdi), %cl
	je	.L5826
	cmpb	5820(%rdi), %al
	je	.L5827
	cmpb	5821(%rdi), %dl
	je	.L5828
	cmpb	5822(%rdi), %cl
	je	.L5829
	cmpb	5823(%rdi), %al
	je	.L5830
	cmpb	5824(%rdi), %dl
	je	.L5831
	cmpb	5825(%rdi), %cl
	je	.L5832
	cmpb	5826(%rdi), %al
	je	.L5833
	cmpb	5827(%rdi), %dl
	je	.L5834
	cmpb	5828(%rdi), %cl
	je	.L5835
	cmpb	5829(%rdi), %al
	je	.L5836
	cmpb	5830(%rdi), %dl
	je	.L5837
	cmpb	5831(%rdi), %cl
	je	.L5838
	cmpb	5832(%rdi), %al
	je	.L5839
	cmpb	5833(%rdi), %dl
	je	.L5840
	cmpb	5834(%rdi), %cl
	je	.L5841
	cmpb	5835(%rdi), %al
	je	.L5842
	cmpb	5836(%rdi), %dl
	je	.L5843
	cmpb	5837(%rdi), %cl
	je	.L5844
	cmpb	5838(%rdi), %al
	je	.L5845
	cmpb	5839(%rdi), %dl
	je	.L5846
	cmpb	5840(%rdi), %cl
	je	.L5847
	cmpb	5841(%rdi), %al
	je	.L5848
	cmpb	5842(%rdi), %dl
	je	.L5849
	cmpb	5843(%rdi), %cl
	je	.L5850
	cmpb	5844(%rdi), %al
	je	.L5851
	cmpb	5845(%rdi), %dl
	je	.L5852
	cmpb	5846(%rdi), %cl
	je	.L5853
	cmpb	5847(%rdi), %al
	je	.L5854
	cmpb	5848(%rdi), %dl
	je	.L5855
	cmpb	5849(%rdi), %cl
	je	.L5856
	cmpb	5850(%rdi), %al
	je	.L5857
	cmpb	5851(%rdi), %dl
	je	.L5858
	cmpb	5852(%rdi), %cl
	je	.L5859
	cmpb	5853(%rdi), %al
	je	.L5860
	cmpb	5854(%rdi), %dl
	je	.L5861
	cmpb	5855(%rdi), %cl
	je	.L5862
	cmpb	5856(%rdi), %al
	je	.L5863
	cmpb	5857(%rdi), %dl
	je	.L5864
	cmpb	5858(%rdi), %cl
	je	.L5865
	cmpb	5859(%rdi), %al
	je	.L5866
	cmpb	5860(%rdi), %dl
	je	.L5867
	cmpb	5861(%rdi), %cl
	je	.L5868
	cmpb	5862(%rdi), %al
	je	.L5869
	cmpb	5863(%rdi), %dl
	je	.L5870
	cmpb	5864(%rdi), %cl
	je	.L5871
	cmpb	5865(%rdi), %al
	je	.L5872
	cmpb	5866(%rdi), %dl
	je	.L5873
	cmpb	5867(%rdi), %cl
	je	.L5874
	cmpb	5868(%rdi), %al
	je	.L5875
	cmpb	5869(%rdi), %dl
	je	.L5876
	cmpb	5870(%rdi), %cl
	je	.L5877
	cmpb	5871(%rdi), %al
	je	.L5878
	cmpb	5872(%rdi), %dl
	je	.L5879
	cmpb	5873(%rdi), %cl
	je	.L5880
	cmpb	5874(%rdi), %al
	je	.L5881
	cmpb	5875(%rdi), %dl
	je	.L5882
	cmpb	5876(%rdi), %cl
	je	.L5883
	cmpb	5877(%rdi), %al
	je	.L5884
	cmpb	5878(%rdi), %dl
	je	.L5885
	cmpb	5879(%rdi), %cl
	je	.L5886
	cmpb	5880(%rdi), %al
	je	.L5887
	cmpb	5881(%rdi), %dl
	je	.L5888
	cmpb	5882(%rdi), %cl
	je	.L5889
	cmpb	5883(%rdi), %al
	je	.L5890
	cmpb	5884(%rdi), %dl
	je	.L5891
	cmpb	5885(%rdi), %cl
	je	.L5892
	cmpb	5886(%rdi), %al
	je	.L5893
	cmpb	5887(%rdi), %dl
	je	.L5894
	cmpb	5888(%rdi), %cl
	je	.L5895
	cmpb	5889(%rdi), %al
	je	.L5896
	cmpb	5890(%rdi), %dl
	je	.L5897
	cmpb	5891(%rdi), %cl
	je	.L5898
	cmpb	5892(%rdi), %al
	je	.L5899
	cmpb	5893(%rdi), %dl
	je	.L5900
	cmpb	5894(%rdi), %cl
	je	.L5901
	cmpb	5895(%rdi), %al
	je	.L5902
	cmpb	5896(%rdi), %dl
	je	.L5903
	cmpb	5897(%rdi), %cl
	je	.L5904
	cmpb	5898(%rdi), %al
	je	.L5905
	cmpb	5899(%rdi), %dl
	je	.L5906
	cmpb	5900(%rdi), %cl
	je	.L5907
	cmpb	5901(%rdi), %al
	je	.L5908
	cmpb	5902(%rdi), %dl
	je	.L5909
	cmpb	5903(%rdi), %cl
	je	.L5910
	cmpb	5904(%rdi), %al
	je	.L5911
	cmpb	5905(%rdi), %dl
	je	.L5912
	cmpb	5906(%rdi), %cl
	je	.L5913
	cmpb	5907(%rdi), %al
	je	.L5914
	cmpb	5908(%rdi), %dl
	je	.L5915
	cmpb	5909(%rdi), %cl
	je	.L5916
	cmpb	5910(%rdi), %al
	je	.L5917
	cmpb	5911(%rdi), %dl
	je	.L5918
	cmpb	5912(%rdi), %cl
	je	.L5919
	cmpb	5913(%rdi), %al
	je	.L5920
	cmpb	5914(%rdi), %dl
	je	.L5921
	cmpb	5915(%rdi), %cl
	je	.L5922
	cmpb	5916(%rdi), %al
	je	.L5923
	cmpb	5917(%rdi), %dl
	je	.L5924
	cmpb	5918(%rdi), %cl
	je	.L5925
	cmpb	5919(%rdi), %al
	je	.L5926
	cmpb	5920(%rdi), %dl
	je	.L5927
	cmpb	5921(%rdi), %cl
	je	.L5928
	cmpb	5922(%rdi), %al
	je	.L5929
	cmpb	5923(%rdi), %dl
	je	.L5930
	cmpb	5924(%rdi), %cl
	je	.L5931
	cmpb	5925(%rdi), %al
	je	.L5932
	cmpb	5926(%rdi), %dl
	je	.L5933
	cmpb	5927(%rdi), %cl
	je	.L5934
	cmpb	5928(%rdi), %al
	je	.L5935
	cmpb	5929(%rdi), %dl
	je	.L5936
	cmpb	5930(%rdi), %cl
	je	.L5937
	cmpb	5931(%rdi), %al
	je	.L5938
	cmpb	5932(%rdi), %dl
	je	.L5939
	cmpb	5933(%rdi), %cl
	je	.L5940
	cmpb	5934(%rdi), %al
	je	.L5941
	cmpb	5935(%rdi), %dl
	je	.L5942
	cmpb	5936(%rdi), %cl
	je	.L5943
	cmpb	5937(%rdi), %al
	je	.L5944
	cmpb	5938(%rdi), %dl
	je	.L5945
	cmpb	5939(%rdi), %cl
	je	.L5946
	cmpb	5940(%rdi), %al
	je	.L5947
	cmpb	5941(%rdi), %dl
	je	.L5948
	cmpb	5942(%rdi), %cl
	je	.L5949
	cmpb	5943(%rdi), %al
	je	.L5950
	cmpb	5944(%rdi), %dl
	je	.L5951
	cmpb	5945(%rdi), %cl
	je	.L5952
	cmpb	5946(%rdi), %al
	je	.L5953
	cmpb	5947(%rdi), %dl
	je	.L5954
	cmpb	5948(%rdi), %cl
	je	.L5955
	cmpb	5949(%rdi), %al
	je	.L5956
	cmpb	5950(%rdi), %dl
	je	.L5957
	cmpb	5951(%rdi), %cl
	je	.L5958
	cmpb	5952(%rdi), %al
	je	.L5959
	cmpb	5953(%rdi), %dl
	je	.L5960
	cmpb	5954(%rdi), %cl
	je	.L5961
	cmpb	5955(%rdi), %al
	je	.L5962
	cmpb	5956(%rdi), %dl
	je	.L5963
	cmpb	5957(%rdi), %cl
	je	.L5964
	cmpb	5958(%rdi), %al
	je	.L5965
	cmpb	5959(%rdi), %dl
	je	.L5966
	cmpb	5960(%rdi), %cl
	je	.L5967
	cmpb	5961(%rdi), %al
	je	.L5968
	cmpb	5962(%rdi), %dl
	je	.L5969
	cmpb	5963(%rdi), %cl
	je	.L5970
	cmpb	5964(%rdi), %al
	je	.L5971
	cmpb	5965(%rdi), %dl
	je	.L5972
	cmpb	5966(%rdi), %cl
	je	.L5973
	cmpb	5967(%rdi), %al
	je	.L5974
	cmpb	5968(%rdi), %dl
	je	.L5975
	cmpb	5969(%rdi), %cl
	je	.L5976
	cmpb	5970(%rdi), %al
	je	.L5977
	cmpb	5971(%rdi), %dl
	je	.L5978
	cmpb	5972(%rdi), %cl
	je	.L5979
	cmpb	5973(%rdi), %al
	je	.L5980
	cmpb	5974(%rdi), %dl
	je	.L5981
	cmpb	5975(%rdi), %cl
	je	.L5982
	cmpb	5976(%rdi), %al
	je	.L5983
	cmpb	5977(%rdi), %dl
	je	.L5984
	cmpb	5978(%rdi), %cl
	je	.L5985
	cmpb	5979(%rdi), %al
	je	.L5986
	cmpb	5980(%rdi), %dl
	je	.L5987
	cmpb	5981(%rdi), %cl
	je	.L5988
	cmpb	5982(%rdi), %al
	je	.L5989
	cmpb	5983(%rdi), %dl
	je	.L5990
	cmpb	5984(%rdi), %cl
	je	.L5991
	cmpb	5985(%rdi), %al
	je	.L5992
	cmpb	5986(%rdi), %dl
	je	.L5993
	cmpb	5987(%rdi), %cl
	je	.L5994
	cmpb	5988(%rdi), %al
	je	.L5995
	cmpb	5989(%rdi), %dl
	je	.L5996
	cmpb	5990(%rdi), %cl
	je	.L5997
	cmpb	5991(%rdi), %al
	je	.L5998
	cmpb	5992(%rdi), %dl
	je	.L5999
	cmpb	5993(%rdi), %cl
	je	.L6000
	cmpb	5994(%rdi), %al
	je	.L6001
	cmpb	5995(%rdi), %dl
	je	.L6002
	cmpb	5996(%rdi), %cl
	je	.L6003
	cmpb	5997(%rdi), %al
	je	.L6004
	cmpb	5998(%rdi), %dl
	je	.L6005
	cmpb	5999(%rdi), %cl
	je	.L6006
	cmpb	6000(%rdi), %al
	je	.L6007
	cmpb	6001(%rdi), %dl
	je	.L6008
	cmpb	6002(%rdi), %cl
	je	.L6009
	cmpb	6003(%rdi), %al
	je	.L6010
	cmpb	6004(%rdi), %dl
	je	.L6011
	cmpb	6005(%rdi), %cl
	je	.L6012
	cmpb	6006(%rdi), %al
	je	.L6013
	cmpb	6007(%rdi), %dl
	je	.L6014
	cmpb	6008(%rdi), %cl
	je	.L6015
	cmpb	6009(%rdi), %al
	je	.L6016
	cmpb	6010(%rdi), %dl
	je	.L6017
	cmpb	6011(%rdi), %cl
	je	.L6018
	cmpb	6012(%rdi), %al
	je	.L6019
	cmpb	6013(%rdi), %dl
	je	.L6020
	cmpb	6014(%rdi), %cl
	je	.L6021
	cmpb	6015(%rdi), %al
	je	.L6022
	cmpb	6016(%rdi), %dl
	je	.L6023
	cmpb	6017(%rdi), %cl
	je	.L6024
	cmpb	6018(%rdi), %al
	je	.L6025
	cmpb	6019(%rdi), %dl
	je	.L6026
	cmpb	6020(%rdi), %cl
	je	.L6027
	cmpb	6021(%rdi), %al
	je	.L6028
	cmpb	6022(%rdi), %dl
	je	.L6029
	cmpb	6023(%rdi), %cl
	je	.L6030
	cmpb	6024(%rdi), %al
	je	.L6031
	cmpb	6025(%rdi), %dl
	je	.L6032
	cmpb	6026(%rdi), %cl
	je	.L6033
	cmpb	6027(%rdi), %al
	je	.L6034
	cmpb	6028(%rdi), %dl
	je	.L6035
	cmpb	6029(%rdi), %cl
	je	.L6036
	cmpb	6030(%rdi), %al
	je	.L6037
	cmpb	6031(%rdi), %dl
	je	.L6038
	cmpb	6032(%rdi), %cl
	je	.L6039
	cmpb	6033(%rdi), %al
	je	.L6040
	cmpb	6034(%rdi), %dl
	je	.L6041
	cmpb	6035(%rdi), %cl
	je	.L6042
	cmpb	6036(%rdi), %al
	je	.L6043
	cmpb	6037(%rdi), %dl
	je	.L6044
	cmpb	6038(%rdi), %cl
	je	.L6045
	cmpb	6039(%rdi), %al
	je	.L6046
	cmpb	6040(%rdi), %dl
	je	.L6047
	cmpb	6041(%rdi), %cl
	je	.L6048
	cmpb	6042(%rdi), %al
	je	.L6049
	cmpb	6043(%rdi), %dl
	je	.L6050
	cmpb	6044(%rdi), %cl
	je	.L6051
	cmpb	6045(%rdi), %al
	je	.L6052
	cmpb	6046(%rdi), %dl
	je	.L6053
	cmpb	6047(%rdi), %cl
	je	.L6054
	cmpb	6048(%rdi), %al
	je	.L6055
	cmpb	6049(%rdi), %dl
	je	.L6056
	cmpb	6050(%rdi), %cl
	je	.L6057
	cmpb	6051(%rdi), %al
	je	.L6058
	cmpb	6052(%rdi), %dl
	je	.L6059
	cmpb	6053(%rdi), %cl
	je	.L6060
	cmpb	6054(%rdi), %al
	je	.L6061
	cmpb	6055(%rdi), %dl
	je	.L6062
	cmpb	6056(%rdi), %cl
	je	.L6063
	cmpb	6057(%rdi), %al
	je	.L6064
	cmpb	6058(%rdi), %dl
	je	.L6065
	cmpb	6059(%rdi), %cl
	je	.L6066
	cmpb	6060(%rdi), %al
	je	.L6067
	cmpb	6061(%rdi), %dl
	je	.L6068
	cmpb	6062(%rdi), %cl
	je	.L6069
	cmpb	6063(%rdi), %al
	je	.L6070
	cmpb	6064(%rdi), %dl
	je	.L6071
	cmpb	6065(%rdi), %cl
	je	.L6072
	cmpb	6066(%rdi), %al
	je	.L6073
	cmpb	6067(%rdi), %dl
	je	.L6074
	cmpb	6068(%rdi), %cl
	je	.L6075
	cmpb	6069(%rdi), %al
	je	.L6076
	cmpb	6070(%rdi), %dl
	je	.L6077
	cmpb	6071(%rdi), %cl
	je	.L6078
	cmpb	6072(%rdi), %al
	je	.L6079
	cmpb	6073(%rdi), %dl
	je	.L6080
	cmpb	6074(%rdi), %cl
	je	.L6081
	cmpb	6075(%rdi), %al
	je	.L6082
	cmpb	6076(%rdi), %dl
	je	.L6083
	cmpb	6077(%rdi), %cl
	je	.L6084
	cmpb	6078(%rdi), %al
	je	.L6085
	cmpb	6079(%rdi), %dl
	je	.L6086
	cmpb	6080(%rdi), %cl
	je	.L6087
	cmpb	6081(%rdi), %al
	je	.L6088
	cmpb	6082(%rdi), %dl
	je	.L6089
	cmpb	6083(%rdi), %cl
	je	.L6090
	cmpb	6084(%rdi), %al
	je	.L6091
	cmpb	6085(%rdi), %dl
	je	.L6092
	cmpb	6086(%rdi), %cl
	je	.L6093
	cmpb	6087(%rdi), %al
	je	.L6094
	cmpb	6088(%rdi), %dl
	je	.L6095
	cmpb	6089(%rdi), %cl
	je	.L6096
	cmpb	6090(%rdi), %al
	je	.L6097
	cmpb	6091(%rdi), %dl
	je	.L6098
	cmpb	6092(%rdi), %cl
	je	.L6099
	cmpb	6093(%rdi), %al
	je	.L6100
	cmpb	6094(%rdi), %dl
	je	.L6101
	cmpb	6095(%rdi), %cl
	je	.L6102
	cmpb	6096(%rdi), %al
	je	.L6103
	cmpb	6097(%rdi), %dl
	je	.L6104
	cmpb	6098(%rdi), %cl
	je	.L6105
	cmpb	6099(%rdi), %al
	je	.L6106
	cmpb	6100(%rdi), %dl
	je	.L6107
	cmpb	6101(%rdi), %cl
	je	.L6108
	cmpb	6102(%rdi), %al
	je	.L6109
	cmpb	6103(%rdi), %dl
	je	.L6110
	cmpb	6104(%rdi), %cl
	je	.L6111
	cmpb	6105(%rdi), %al
	je	.L6112
	cmpb	6106(%rdi), %dl
	je	.L6113
	cmpb	6107(%rdi), %cl
	je	.L6114
	cmpb	6108(%rdi), %al
	je	.L6115
	cmpb	6109(%rdi), %dl
	je	.L6116
	cmpb	6110(%rdi), %cl
	je	.L6117
	cmpb	6111(%rdi), %al
	je	.L6118
	cmpb	6112(%rdi), %dl
	je	.L6119
	cmpb	6113(%rdi), %cl
	je	.L6120
	cmpb	6114(%rdi), %al
	je	.L6121
	cmpb	6115(%rdi), %dl
	je	.L6122
	cmpb	6116(%rdi), %cl
	je	.L6123
	cmpb	6117(%rdi), %al
	je	.L6124
	cmpb	6118(%rdi), %dl
	je	.L6125
	cmpb	6119(%rdi), %cl
	je	.L6126
	cmpb	6120(%rdi), %al
	je	.L6127
	cmpb	6121(%rdi), %dl
	je	.L6128
	cmpb	6122(%rdi), %cl
	je	.L6129
	cmpb	6123(%rdi), %al
	je	.L6130
	cmpb	6124(%rdi), %dl
	je	.L6131
	cmpb	6125(%rdi), %cl
	je	.L6132
	cmpb	6126(%rdi), %al
	je	.L6133
	cmpb	6127(%rdi), %dl
	je	.L6134
	cmpb	6128(%rdi), %cl
	je	.L6135
	cmpb	6129(%rdi), %al
	je	.L6136
	cmpb	6130(%rdi), %dl
	je	.L6137
	cmpb	6131(%rdi), %cl
	je	.L6138
	cmpb	6132(%rdi), %al
	je	.L6139
	cmpb	6133(%rdi), %dl
	je	.L6140
	cmpb	6134(%rdi), %cl
	je	.L6141
	cmpb	6135(%rdi), %al
	je	.L6142
	cmpb	6136(%rdi), %dl
	je	.L6143
	cmpb	6137(%rdi), %cl
	je	.L6144
	cmpb	6138(%rdi), %al
	je	.L6145
	cmpb	6139(%rdi), %dl
	je	.L6146
	cmpb	6140(%rdi), %cl
	je	.L6147
	cmpb	6141(%rdi), %al
	je	.L6148
	cmpb	6142(%rdi), %dl
	je	.L6149
	cmpb	6143(%rdi), %cl
	je	.L6150
	cmpb	6144(%rdi), %al
	je	.L6151
	cmpb	6145(%rdi), %dl
	je	.L6152
	cmpb	6146(%rdi), %cl
	je	.L6153
	cmpb	6147(%rdi), %al
	je	.L6154
	cmpb	6148(%rdi), %dl
	je	.L6155
	cmpb	6149(%rdi), %cl
	je	.L6156
	cmpb	6150(%rdi), %al
	je	.L6157
	cmpb	6151(%rdi), %dl
	je	.L6158
	cmpb	6152(%rdi), %cl
	je	.L6159
	cmpb	6153(%rdi), %al
	je	.L6160
	cmpb	6154(%rdi), %dl
	je	.L6161
	cmpb	6155(%rdi), %cl
	je	.L6162
	cmpb	6156(%rdi), %al
	je	.L6163
	cmpb	6157(%rdi), %dl
	je	.L6164
	cmpb	6158(%rdi), %cl
	je	.L6165
	cmpb	6159(%rdi), %al
	je	.L6166
	cmpb	6160(%rdi), %dl
	je	.L6167
	cmpb	6161(%rdi), %cl
	je	.L6168
	cmpb	6162(%rdi), %al
	je	.L6169
	cmpb	6163(%rdi), %dl
	je	.L6170
	cmpb	6164(%rdi), %cl
	je	.L6171
	cmpb	6165(%rdi), %al
	je	.L6172
	cmpb	6166(%rdi), %dl
	je	.L6173
	cmpb	6167(%rdi), %cl
	je	.L6174
	cmpb	6168(%rdi), %al
	je	.L6175
	cmpb	6169(%rdi), %dl
	je	.L6176
	cmpb	6170(%rdi), %cl
	je	.L6177
	cmpb	6171(%rdi), %al
	je	.L6178
	cmpb	6172(%rdi), %dl
	je	.L6179
	cmpb	6173(%rdi), %cl
	je	.L6180
	cmpb	6174(%rdi), %al
	je	.L6181
	cmpb	6175(%rdi), %dl
	je	.L6182
	cmpb	6176(%rdi), %cl
	je	.L6183
	cmpb	6177(%rdi), %al
	je	.L6184
	cmpb	6178(%rdi), %dl
	je	.L6185
	cmpb	6179(%rdi), %cl
	je	.L6186
	cmpb	6180(%rdi), %al
	je	.L6187
	cmpb	6181(%rdi), %dl
	je	.L6188
	cmpb	6182(%rdi), %cl
	je	.L6189
	cmpb	6183(%rdi), %al
	je	.L6190
	cmpb	6184(%rdi), %dl
	je	.L6191
	cmpb	6185(%rdi), %cl
	je	.L6192
	cmpb	6186(%rdi), %al
	je	.L6193
	cmpb	6187(%rdi), %dl
	je	.L6194
	cmpb	6188(%rdi), %cl
	je	.L6195
	cmpb	6189(%rdi), %al
	je	.L6196
	cmpb	6190(%rdi), %dl
	je	.L6197
	cmpb	6191(%rdi), %cl
	je	.L6198
	cmpb	6192(%rdi), %al
	je	.L6199
	cmpb	6193(%rdi), %dl
	je	.L6200
	cmpb	6194(%rdi), %cl
	je	.L6201
	cmpb	6195(%rdi), %al
	je	.L6202
	cmpb	6196(%rdi), %dl
	je	.L6203
	cmpb	6197(%rdi), %cl
	je	.L6204
	cmpb	6198(%rdi), %al
	je	.L6205
	cmpb	6199(%rdi), %dl
	je	.L6206
	cmpb	6200(%rdi), %cl
	je	.L6207
	cmpb	6201(%rdi), %al
	je	.L6208
	cmpb	6202(%rdi), %dl
	je	.L6209
	cmpb	6203(%rdi), %cl
	je	.L6210
	cmpb	6204(%rdi), %al
	je	.L6211
	cmpb	6205(%rdi), %dl
	je	.L6212
	cmpb	6206(%rdi), %cl
	je	.L6213
	cmpb	6207(%rdi), %al
	je	.L6214
	cmpb	6208(%rdi), %dl
	je	.L6215
	cmpb	6209(%rdi), %cl
	je	.L6216
	cmpb	6210(%rdi), %al
	je	.L6217
	cmpb	6211(%rdi), %dl
	je	.L6218
	cmpb	6212(%rdi), %cl
	je	.L6219
	cmpb	6213(%rdi), %al
	je	.L6220
	cmpb	6214(%rdi), %dl
	je	.L6221
	cmpb	6215(%rdi), %cl
	je	.L6222
	cmpb	6216(%rdi), %al
	je	.L6223
	cmpb	6217(%rdi), %dl
	je	.L6224
	cmpb	6218(%rdi), %cl
	je	.L6225
	cmpb	6219(%rdi), %al
	je	.L6226
	cmpb	6220(%rdi), %dl
	je	.L6227
	cmpb	6221(%rdi), %cl
	je	.L6228
	cmpb	6222(%rdi), %al
	je	.L6229
	cmpb	6223(%rdi), %dl
	je	.L6230
	cmpb	6224(%rdi), %cl
	je	.L6231
	cmpb	6225(%rdi), %al
	je	.L6232
	cmpb	6226(%rdi), %dl
	je	.L6233
	cmpb	6227(%rdi), %cl
	je	.L6234
	cmpb	6228(%rdi), %al
	je	.L6235
	cmpb	6229(%rdi), %dl
	je	.L6236
	cmpb	6230(%rdi), %cl
	je	.L6237
	cmpb	6231(%rdi), %al
	je	.L6238
	cmpb	6232(%rdi), %dl
	je	.L6239
	cmpb	6233(%rdi), %cl
	je	.L6240
	cmpb	6234(%rdi), %al
	je	.L6241
	cmpb	6235(%rdi), %dl
	je	.L6242
	cmpb	6236(%rdi), %cl
	je	.L6243
	cmpb	6237(%rdi), %al
	je	.L6244
	cmpb	6238(%rdi), %dl
	je	.L6245
	cmpb	6239(%rdi), %cl
	je	.L6246
	cmpb	6240(%rdi), %al
	je	.L6247
	cmpb	6241(%rdi), %dl
	je	.L6248
	cmpb	6242(%rdi), %cl
	je	.L6249
	cmpb	6243(%rdi), %al
	je	.L6250
	cmpb	6244(%rdi), %dl
	je	.L6251
	cmpb	6245(%rdi), %cl
	je	.L6252
	cmpb	6246(%rdi), %al
	je	.L6253
	cmpb	6247(%rdi), %dl
	je	.L6254
	cmpb	6248(%rdi), %cl
	je	.L6255
	cmpb	6249(%rdi), %al
	je	.L6256
	cmpb	6250(%rdi), %dl
	je	.L6257
	cmpb	6251(%rdi), %cl
	je	.L6258
	cmpb	6252(%rdi), %al
	je	.L6259
	cmpb	6253(%rdi), %dl
	je	.L6260
	cmpb	6254(%rdi), %cl
	je	.L6261
	cmpb	6255(%rdi), %al
	je	.L6262
	cmpb	6256(%rdi), %dl
	je	.L6263
	cmpb	6257(%rdi), %cl
	je	.L6264
	cmpb	6258(%rdi), %al
	je	.L6265
	cmpb	6259(%rdi), %dl
	je	.L6266
	cmpb	6260(%rdi), %cl
	je	.L6267
	cmpb	6261(%rdi), %al
	je	.L6268
	cmpb	6262(%rdi), %dl
	je	.L6269
	cmpb	6263(%rdi), %cl
	je	.L6270
	cmpb	6264(%rdi), %al
	je	.L6271
	cmpb	6265(%rdi), %dl
	je	.L6272
	cmpb	6266(%rdi), %cl
	je	.L6273
	cmpb	6267(%rdi), %al
	je	.L6274
	cmpb	6268(%rdi), %dl
	je	.L6275
	cmpb	6269(%rdi), %cl
	je	.L6276
	cmpb	6270(%rdi), %al
	je	.L6277
	cmpb	6271(%rdi), %dl
	je	.L6278
	cmpb	6272(%rdi), %cl
	je	.L6279
	cmpb	6273(%rdi), %al
	je	.L6280
	cmpb	6274(%rdi), %dl
	je	.L6281
	cmpb	6275(%rdi), %cl
	je	.L6282
	cmpb	6276(%rdi), %al
	je	.L6283
	cmpb	6277(%rdi), %dl
	je	.L6284
	cmpb	6278(%rdi), %cl
	je	.L6285
	cmpb	6279(%rdi), %al
	je	.L6286
	cmpb	6280(%rdi), %dl
	je	.L6287
	cmpb	6281(%rdi), %cl
	je	.L6288
	cmpb	6282(%rdi), %al
	je	.L6289
	cmpb	6283(%rdi), %dl
	je	.L6290
	cmpb	6284(%rdi), %cl
	je	.L6291
	cmpb	6285(%rdi), %al
	je	.L6292
	cmpb	6286(%rdi), %dl
	je	.L6293
	cmpb	6287(%rdi), %cl
	je	.L6294
	cmpb	6288(%rdi), %al
	je	.L6295
	cmpb	6289(%rdi), %dl
	je	.L6296
	cmpb	6290(%rdi), %cl
	je	.L6297
	cmpb	6291(%rdi), %al
	je	.L6298
	cmpb	6292(%rdi), %dl
	je	.L6299
	cmpb	6293(%rdi), %cl
	je	.L6300
	cmpb	6294(%rdi), %al
	je	.L6301
	cmpb	6295(%rdi), %dl
	je	.L6302
	cmpb	6296(%rdi), %cl
	je	.L6303
	cmpb	6297(%rdi), %al
	je	.L6304
	cmpb	6298(%rdi), %dl
	je	.L6305
	cmpb	6299(%rdi), %cl
	je	.L6306
	cmpb	6300(%rdi), %al
	je	.L6307
	cmpb	6301(%rdi), %dl
	je	.L6308
	cmpb	6302(%rdi), %cl
	je	.L6309
	cmpb	6303(%rdi), %al
	je	.L6310
	cmpb	6304(%rdi), %dl
	je	.L6311
	cmpb	6305(%rdi), %cl
	je	.L6312
	cmpb	6306(%rdi), %al
	je	.L6313
	cmpb	6307(%rdi), %dl
	je	.L6314
	cmpb	6308(%rdi), %cl
	je	.L6315
	cmpb	6309(%rdi), %al
	je	.L6316
	cmpb	6310(%rdi), %dl
	je	.L6317
	cmpb	6311(%rdi), %cl
	je	.L6318
	cmpb	6312(%rdi), %al
	je	.L6319
	cmpb	6313(%rdi), %dl
	je	.L6320
	cmpb	6314(%rdi), %cl
	je	.L6321
	cmpb	6315(%rdi), %al
	je	.L6322
	cmpb	6316(%rdi), %dl
	je	.L6323
	cmpb	6317(%rdi), %cl
	je	.L6324
	cmpb	6318(%rdi), %al
	je	.L6325
	cmpb	6319(%rdi), %dl
	je	.L6326
	cmpb	6320(%rdi), %cl
	je	.L6327
	cmpb	6321(%rdi), %al
	je	.L6328
	cmpb	6322(%rdi), %dl
	je	.L6329
	cmpb	6323(%rdi), %cl
	je	.L6330
	cmpb	6324(%rdi), %al
	je	.L6331
	cmpb	6325(%rdi), %dl
	je	.L6332
	cmpb	6326(%rdi), %cl
	je	.L6333
	cmpb	6327(%rdi), %al
	je	.L6334
	cmpb	6328(%rdi), %dl
	je	.L6335
	cmpb	6329(%rdi), %cl
	je	.L6336
	cmpb	6330(%rdi), %al
	je	.L6337
	cmpb	6331(%rdi), %dl
	je	.L6338
	cmpb	6332(%rdi), %cl
	je	.L6339
	cmpb	6333(%rdi), %al
	je	.L6340
	cmpb	6334(%rdi), %dl
	je	.L6341
	cmpb	6335(%rdi), %cl
	je	.L6342
	cmpb	6336(%rdi), %al
	je	.L6343
	cmpb	6337(%rdi), %dl
	je	.L6344
	cmpb	6338(%rdi), %cl
	je	.L6345
	cmpb	6339(%rdi), %al
	je	.L6346
	cmpb	6340(%rdi), %dl
	je	.L6347
	cmpb	6341(%rdi), %cl
	je	.L6348
	cmpb	6342(%rdi), %al
	je	.L6349
	cmpb	6343(%rdi), %dl
	je	.L6350
	cmpb	6344(%rdi), %cl
	je	.L6351
	cmpb	6345(%rdi), %al
	je	.L6352
	cmpb	6346(%rdi), %dl
	je	.L6353
	cmpb	6347(%rdi), %cl
	je	.L6354
	cmpb	6348(%rdi), %al
	je	.L6355
	cmpb	6349(%rdi), %dl
	je	.L6356
	cmpb	6350(%rdi), %cl
	je	.L6357
	cmpb	6351(%rdi), %al
	je	.L6358
	cmpb	6352(%rdi), %dl
	je	.L6359
	cmpb	6353(%rdi), %cl
	je	.L6360
	cmpb	6354(%rdi), %al
	je	.L6361
	cmpb	6355(%rdi), %dl
	je	.L6362
	cmpb	6356(%rdi), %cl
	je	.L6363
	cmpb	6357(%rdi), %al
	je	.L6364
	cmpb	6358(%rdi), %dl
	je	.L6365
	cmpb	6359(%rdi), %cl
	je	.L6366
	cmpb	6360(%rdi), %al
	je	.L6367
	cmpb	6361(%rdi), %dl
	je	.L6368
	cmpb	6362(%rdi), %cl
	je	.L6369
	cmpb	6363(%rdi), %al
	je	.L6370
	cmpb	6364(%rdi), %dl
	je	.L6371
	cmpb	6365(%rdi), %cl
	je	.L6372
	cmpb	6366(%rdi), %al
	je	.L6373
	cmpb	6367(%rdi), %dl
	je	.L6374
	cmpb	6368(%rdi), %cl
	je	.L6375
	cmpb	6369(%rdi), %al
	je	.L6376
	cmpb	6370(%rdi), %dl
	je	.L6377
	cmpb	6371(%rdi), %cl
	je	.L6378
	cmpb	6372(%rdi), %al
	je	.L6379
	cmpb	6373(%rdi), %dl
	je	.L6380
	cmpb	6374(%rdi), %cl
	je	.L6381
	cmpb	6375(%rdi), %al
	je	.L6382
	cmpb	6376(%rdi), %dl
	je	.L6383
	cmpb	6377(%rdi), %cl
	je	.L6384
	cmpb	6378(%rdi), %al
	je	.L6385
	cmpb	6379(%rdi), %dl
	je	.L6386
	cmpb	6380(%rdi), %cl
	je	.L6387
	cmpb	6381(%rdi), %al
	je	.L6388
	cmpb	6382(%rdi), %dl
	je	.L6389
	cmpb	6383(%rdi), %cl
	je	.L6390
	cmpb	6384(%rdi), %al
	je	.L6391
	cmpb	6385(%rdi), %dl
	je	.L6392
	cmpb	6386(%rdi), %cl
	je	.L6393
	cmpb	6387(%rdi), %al
	je	.L6394
	cmpb	6388(%rdi), %dl
	je	.L6395
	cmpb	6389(%rdi), %cl
	je	.L6396
	cmpb	6390(%rdi), %al
	je	.L6397
	cmpb	6391(%rdi), %dl
	je	.L6398
	cmpb	6392(%rdi), %cl
	je	.L6399
	cmpb	6393(%rdi), %al
	je	.L6400
	cmpb	6394(%rdi), %dl
	je	.L6401
	cmpb	6395(%rdi), %cl
	je	.L6402
	cmpb	6396(%rdi), %al
	je	.L6403
	cmpb	6397(%rdi), %dl
	je	.L6404
	cmpb	6398(%rdi), %cl
	je	.L6405
	cmpb	6399(%rdi), %al
	je	.L6406
	cmpb	6400(%rdi), %dl
	je	.L6407
	cmpb	6401(%rdi), %cl
	je	.L6408
	cmpb	6402(%rdi), %al
	je	.L6409
	cmpb	6403(%rdi), %dl
	je	.L6410
	cmpb	6404(%rdi), %cl
	je	.L6411
	cmpb	6405(%rdi), %al
	je	.L6412
	cmpb	6406(%rdi), %dl
	je	.L6413
	cmpb	6407(%rdi), %cl
	je	.L6414
	cmpb	6408(%rdi), %al
	je	.L6415
	cmpb	6409(%rdi), %dl
	je	.L6416
	cmpb	6410(%rdi), %cl
	je	.L6417
	cmpb	6411(%rdi), %al
	je	.L6418
	cmpb	6412(%rdi), %dl
	je	.L6419
	cmpb	6413(%rdi), %cl
	je	.L6420
	cmpb	6414(%rdi), %al
	je	.L6421
	cmpb	6415(%rdi), %dl
	je	.L6422
	cmpb	6416(%rdi), %cl
	je	.L6423
	cmpb	6417(%rdi), %al
	je	.L6424
	cmpb	6418(%rdi), %dl
	je	.L6425
	cmpb	6419(%rdi), %cl
	je	.L6426
	cmpb	6420(%rdi), %al
	je	.L6427
	cmpb	6421(%rdi), %dl
	je	.L6428
	cmpb	6422(%rdi), %cl
	je	.L6429
	cmpb	6423(%rdi), %al
	je	.L6430
	cmpb	6424(%rdi), %dl
	je	.L6431
	cmpb	6425(%rdi), %cl
	je	.L6432
	cmpb	6426(%rdi), %al
	je	.L6433
	cmpb	6427(%rdi), %dl
	je	.L6434
	cmpb	6428(%rdi), %cl
	je	.L6435
	cmpb	6429(%rdi), %al
	je	.L6436
	cmpb	6430(%rdi), %dl
	je	.L6437
	cmpb	6431(%rdi), %cl
	je	.L6438
	cmpb	6432(%rdi), %al
	je	.L6439
	cmpb	6433(%rdi), %dl
	je	.L6440
	cmpb	6434(%rdi), %cl
	je	.L6441
	cmpb	6435(%rdi), %al
	je	.L6442
	cmpb	6436(%rdi), %dl
	je	.L6443
	cmpb	6437(%rdi), %cl
	je	.L6444
	cmpb	6438(%rdi), %al
	je	.L6445
	cmpb	6439(%rdi), %dl
	je	.L6446
	cmpb	6440(%rdi), %cl
	je	.L6447
	cmpb	6441(%rdi), %al
	je	.L6448
	cmpb	6442(%rdi), %dl
	je	.L6449
	cmpb	6443(%rdi), %cl
	je	.L6450
	cmpb	6444(%rdi), %al
	je	.L6451
	cmpb	6445(%rdi), %dl
	je	.L6452
	cmpb	6446(%rdi), %cl
	je	.L6453
	cmpb	6447(%rdi), %al
	je	.L6454
	cmpb	6448(%rdi), %dl
	je	.L6455
	cmpb	6449(%rdi), %cl
	je	.L6456
	cmpb	6450(%rdi), %al
	je	.L6457
	cmpb	6451(%rdi), %dl
	je	.L6458
	cmpb	6452(%rdi), %cl
	je	.L6459
	cmpb	6453(%rdi), %al
	je	.L6460
	cmpb	6454(%rdi), %dl
	je	.L6461
	cmpb	6455(%rdi), %cl
	je	.L6462
	cmpb	6456(%rdi), %al
	je	.L6463
	cmpb	6457(%rdi), %dl
	je	.L6464
	cmpb	6458(%rdi), %cl
	je	.L6465
	cmpb	6459(%rdi), %al
	je	.L6466
	cmpb	6460(%rdi), %dl
	je	.L6467
	cmpb	6461(%rdi), %cl
	je	.L6468
	cmpb	6462(%rdi), %al
	je	.L6469
	cmpb	6463(%rdi), %dl
	je	.L6470
	cmpb	6464(%rdi), %cl
	je	.L6471
	cmpb	6465(%rdi), %al
	je	.L6472
	cmpb	6466(%rdi), %dl
	je	.L6473
	cmpb	6467(%rdi), %cl
	je	.L6474
	cmpb	6468(%rdi), %al
	je	.L6475
	cmpb	6469(%rdi), %dl
	je	.L6476
	cmpb	6470(%rdi), %cl
	je	.L6477
	cmpb	6471(%rdi), %al
	je	.L6478
	cmpb	6472(%rdi), %dl
	je	.L6479
	cmpb	6473(%rdi), %cl
	je	.L6480
	cmpb	6474(%rdi), %al
	je	.L6481
	cmpb	6475(%rdi), %dl
	je	.L6482
	cmpb	6476(%rdi), %cl
	je	.L6483
	cmpb	6477(%rdi), %al
	je	.L6484
	cmpb	6478(%rdi), %dl
	je	.L6485
	cmpb	6479(%rdi), %cl
	je	.L6486
	cmpb	6480(%rdi), %al
	je	.L6487
	cmpb	6481(%rdi), %dl
	je	.L6488
	cmpb	6482(%rdi), %cl
	je	.L6489
	cmpb	6483(%rdi), %al
	je	.L6490
	cmpb	6484(%rdi), %dl
	je	.L6491
	cmpb	6485(%rdi), %cl
	je	.L6492
	cmpb	6486(%rdi), %al
	je	.L6493
	cmpb	6487(%rdi), %dl
	je	.L6494
	cmpb	6488(%rdi), %cl
	je	.L6495
	cmpb	6489(%rdi), %al
	je	.L6496
	cmpb	6490(%rdi), %dl
	je	.L6497
	cmpb	6491(%rdi), %cl
	je	.L6498
	cmpb	6492(%rdi), %al
	je	.L6499
	cmpb	6493(%rdi), %dl
	je	.L6500
	cmpb	6494(%rdi), %cl
	je	.L6501
	cmpb	6495(%rdi), %al
	je	.L6502
	cmpb	6496(%rdi), %dl
	je	.L6503
	cmpb	6497(%rdi), %cl
	je	.L6504
	cmpb	6498(%rdi), %al
	je	.L6505
	cmpb	6499(%rdi), %dl
	je	.L6506
	cmpb	6500(%rdi), %cl
	je	.L6507
	cmpb	6501(%rdi), %al
	je	.L6508
	cmpb	6502(%rdi), %dl
	je	.L6509
	cmpb	6503(%rdi), %cl
	je	.L6510
	cmpb	6504(%rdi), %al
	je	.L6511
	cmpb	6505(%rdi), %dl
	je	.L6512
	cmpb	6506(%rdi), %cl
	je	.L6513
	cmpb	6507(%rdi), %al
	je	.L6514
	cmpb	6508(%rdi), %dl
	je	.L6515
	cmpb	6509(%rdi), %cl
	je	.L6516
	cmpb	6510(%rdi), %al
	je	.L6517
	cmpb	6511(%rdi), %dl
	je	.L6518
	cmpb	6512(%rdi), %cl
	je	.L6519
	cmpb	6513(%rdi), %al
	je	.L6520
	cmpb	6514(%rdi), %dl
	je	.L6521
	cmpb	6515(%rdi), %cl
	je	.L6522
	cmpb	6516(%rdi), %al
	je	.L6523
	cmpb	6517(%rdi), %dl
	je	.L6524
	cmpb	6518(%rdi), %cl
	je	.L6525
	cmpb	6519(%rdi), %al
	je	.L6526
	cmpb	6520(%rdi), %dl
	je	.L6527
	cmpb	6521(%rdi), %cl
	je	.L6528
	cmpb	6522(%rdi), %al
	je	.L6529
	cmpb	6523(%rdi), %dl
	je	.L6530
	cmpb	6524(%rdi), %cl
	je	.L6531
	cmpb	6525(%rdi), %al
	je	.L6532
	cmpb	6526(%rdi), %dl
	je	.L6533
	cmpb	6527(%rdi), %cl
	je	.L6534
	cmpb	6528(%rdi), %al
	je	.L6535
	cmpb	6529(%rdi), %dl
	je	.L6536
	cmpb	6530(%rdi), %cl
	je	.L6537
	cmpb	6531(%rdi), %al
	je	.L6538
	cmpb	6532(%rdi), %dl
	je	.L6539
	cmpb	6533(%rdi), %cl
	je	.L6540
	cmpb	6534(%rdi), %al
	je	.L6541
	cmpb	6535(%rdi), %dl
	je	.L6542
	cmpb	6536(%rdi), %cl
	je	.L6543
	cmpb	6537(%rdi), %al
	je	.L6544
	cmpb	6538(%rdi), %dl
	je	.L6545
	cmpb	6539(%rdi), %cl
	je	.L6546
	cmpb	6540(%rdi), %al
	je	.L6547
	cmpb	6541(%rdi), %dl
	je	.L6548
	cmpb	6542(%rdi), %cl
	je	.L6549
	cmpb	6543(%rdi), %al
	je	.L6550
	cmpb	6544(%rdi), %dl
	je	.L6551
	cmpb	6545(%rdi), %cl
	je	.L6552
	cmpb	6546(%rdi), %al
	je	.L6553
	cmpb	6547(%rdi), %dl
	je	.L6554
	cmpb	6548(%rdi), %cl
	je	.L6555
	cmpb	6549(%rdi), %al
	je	.L6556
	cmpb	6550(%rdi), %dl
	je	.L6557
	cmpb	6551(%rdi), %cl
	je	.L6558
	cmpb	6552(%rdi), %al
	je	.L6559
	cmpb	6553(%rdi), %dl
	je	.L6560
	cmpb	6554(%rdi), %cl
	je	.L6561
	cmpb	6555(%rdi), %al
	je	.L6562
	cmpb	6556(%rdi), %dl
	je	.L6563
	cmpb	6557(%rdi), %cl
	je	.L6564
	cmpb	6558(%rdi), %al
	je	.L6565
	cmpb	6559(%rdi), %dl
	je	.L6566
	cmpb	6560(%rdi), %cl
	je	.L6567
	cmpb	6561(%rdi), %al
	je	.L6568
	cmpb	6562(%rdi), %dl
	je	.L6569
	cmpb	6563(%rdi), %cl
	je	.L6570
	cmpb	6564(%rdi), %al
	je	.L6571
	cmpb	6565(%rdi), %dl
	je	.L6572
	cmpb	6566(%rdi), %cl
	je	.L6573
	cmpb	6567(%rdi), %al
	je	.L6574
	cmpb	6568(%rdi), %dl
	je	.L6575
	cmpb	6569(%rdi), %cl
	je	.L6576
	cmpb	6570(%rdi), %al
	je	.L6577
	cmpb	6571(%rdi), %dl
	je	.L6578
	cmpb	6572(%rdi), %cl
	je	.L6579
	cmpb	6573(%rdi), %al
	je	.L6580
	cmpb	6574(%rdi), %dl
	je	.L6581
	cmpb	6575(%rdi), %cl
	je	.L6582
	cmpb	6576(%rdi), %al
	je	.L6583
	cmpb	6577(%rdi), %dl
	je	.L6584
	cmpb	6578(%rdi), %cl
	je	.L6585
	cmpb	6579(%rdi), %al
	je	.L6586
	cmpb	6580(%rdi), %dl
	je	.L6587
	cmpb	6581(%rdi), %cl
	je	.L6588
	cmpb	6582(%rdi), %al
	je	.L6589
	cmpb	6583(%rdi), %dl
	je	.L6590
	cmpb	6584(%rdi), %cl
	je	.L6591
	cmpb	6585(%rdi), %al
	je	.L6592
	cmpb	6586(%rdi), %dl
	je	.L6593
	cmpb	6587(%rdi), %cl
	je	.L6594
	cmpb	6588(%rdi), %al
	je	.L6595
	cmpb	6589(%rdi), %dl
	je	.L6596
	cmpb	6590(%rdi), %cl
	je	.L6597
	cmpb	6591(%rdi), %al
	je	.L6598
	cmpb	6592(%rdi), %dl
	je	.L6599
	cmpb	6593(%rdi), %cl
	je	.L6600
	cmpb	6594(%rdi), %al
	je	.L6601
	cmpb	6595(%rdi), %dl
	je	.L6602
	cmpb	6596(%rdi), %cl
	je	.L6603
	cmpb	6597(%rdi), %al
	je	.L6604
	cmpb	6598(%rdi), %dl
	je	.L6605
	cmpb	6599(%rdi), %cl
	je	.L6606
	cmpb	6600(%rdi), %al
	je	.L6607
	cmpb	6601(%rdi), %dl
	je	.L6608
	cmpb	6602(%rdi), %cl
	je	.L6609
	cmpb	6603(%rdi), %al
	je	.L6610
	cmpb	6604(%rdi), %dl
	je	.L6611
	cmpb	6605(%rdi), %cl
	je	.L6612
	cmpb	6606(%rdi), %al
	je	.L6613
	cmpb	6607(%rdi), %dl
	je	.L6614
	cmpb	6608(%rdi), %cl
	je	.L6615
	cmpb	6609(%rdi), %al
	je	.L6616
	cmpb	6610(%rdi), %dl
	je	.L6617
	cmpb	6611(%rdi), %cl
	je	.L6618
	cmpb	6612(%rdi), %al
	je	.L6619
	cmpb	6613(%rdi), %dl
	je	.L6620
	cmpb	6614(%rdi), %cl
	je	.L6621
	cmpb	6615(%rdi), %al
	je	.L6622
	cmpb	6616(%rdi), %dl
	je	.L6623
	cmpb	6617(%rdi), %cl
	je	.L6624
	cmpb	6618(%rdi), %al
	je	.L6625
	cmpb	6619(%rdi), %dl
	je	.L6626
	cmpb	6620(%rdi), %cl
	je	.L6627
	cmpb	6621(%rdi), %al
	je	.L6628
	cmpb	6622(%rdi), %dl
	je	.L6629
	cmpb	6623(%rdi), %cl
	je	.L6630
	cmpb	6624(%rdi), %al
	je	.L6631
	cmpb	6625(%rdi), %dl
	je	.L6632
	cmpb	6626(%rdi), %cl
	je	.L6633
	cmpb	6627(%rdi), %al
	je	.L6634
	cmpb	6628(%rdi), %dl
	je	.L6635
	cmpb	6629(%rdi), %cl
	je	.L6636
	cmpb	6630(%rdi), %al
	je	.L6637
	cmpb	6631(%rdi), %dl
	je	.L6638
	cmpb	6632(%rdi), %cl
	je	.L6639
	cmpb	6633(%rdi), %al
	je	.L6640
	cmpb	6634(%rdi), %dl
	je	.L6641
	cmpb	6635(%rdi), %cl
	je	.L6642
	cmpb	6636(%rdi), %al
	je	.L6643
	cmpb	6637(%rdi), %dl
	je	.L6644
	cmpb	6638(%rdi), %cl
	je	.L6645
	cmpb	6639(%rdi), %al
	je	.L6646
	cmpb	6640(%rdi), %dl
	je	.L6647
	cmpb	6641(%rdi), %cl
	je	.L6648
	cmpb	6642(%rdi), %al
	je	.L6649
	cmpb	6643(%rdi), %dl
	je	.L6650
	cmpb	6644(%rdi), %cl
	je	.L6651
	cmpb	6645(%rdi), %al
	je	.L6652
	cmpb	6646(%rdi), %dl
	je	.L6653
	cmpb	6647(%rdi), %cl
	je	.L6654
	cmpb	6648(%rdi), %al
	je	.L6655
	cmpb	6649(%rdi), %dl
	je	.L6656
	cmpb	6650(%rdi), %cl
	je	.L6657
	cmpb	6651(%rdi), %al
	je	.L6658
	cmpb	6652(%rdi), %dl
	je	.L6659
	cmpb	6653(%rdi), %cl
	je	.L6660
	cmpb	6654(%rdi), %al
	je	.L6661
	cmpb	6655(%rdi), %dl
	je	.L6662
	cmpb	6656(%rdi), %cl
	je	.L6663
	cmpb	6657(%rdi), %al
	je	.L6664
	cmpb	6658(%rdi), %dl
	je	.L6665
	cmpb	6659(%rdi), %cl
	je	.L6666
	cmpb	6660(%rdi), %al
	je	.L6667
	cmpb	6661(%rdi), %dl
	je	.L6668
	cmpb	6662(%rdi), %cl
	je	.L6669
	cmpb	6663(%rdi), %al
	je	.L6670
	cmpb	6664(%rdi), %dl
	je	.L6671
	cmpb	6665(%rdi), %cl
	je	.L6672
	cmpb	6666(%rdi), %al
	je	.L6673
	cmpb	6667(%rdi), %dl
	je	.L6674
	cmpb	6668(%rdi), %cl
	je	.L6675
	cmpb	6669(%rdi), %al
	je	.L6676
	cmpb	6670(%rdi), %dl
	je	.L6677
	cmpb	6671(%rdi), %cl
	je	.L6678
	cmpb	6672(%rdi), %al
	je	.L6679
	cmpb	6673(%rdi), %dl
	je	.L6680
	cmpb	6674(%rdi), %cl
	je	.L6681
	cmpb	6675(%rdi), %al
	je	.L6682
	cmpb	6676(%rdi), %dl
	je	.L6683
	cmpb	6677(%rdi), %cl
	je	.L6684
	cmpb	6678(%rdi), %al
	je	.L6685
	cmpb	6679(%rdi), %dl
	je	.L6686
	cmpb	6680(%rdi), %cl
	je	.L6687
	cmpb	6681(%rdi), %al
	je	.L6688
	cmpb	6682(%rdi), %dl
	je	.L6689
	cmpb	6683(%rdi), %cl
	je	.L6690
	cmpb	6684(%rdi), %al
	je	.L6691
	cmpb	6685(%rdi), %dl
	je	.L6692
	cmpb	6686(%rdi), %cl
	je	.L6693
	cmpb	6687(%rdi), %al
	je	.L6694
	cmpb	6688(%rdi), %dl
	je	.L6695
	cmpb	6689(%rdi), %cl
	je	.L6696
	cmpb	6690(%rdi), %al
	je	.L6697
	cmpb	6691(%rdi), %dl
	je	.L6698
	cmpb	6692(%rdi), %cl
	je	.L6699
	cmpb	6693(%rdi), %al
	je	.L6700
	cmpb	6694(%rdi), %dl
	je	.L6701
	cmpb	6695(%rdi), %cl
	je	.L6702
	cmpb	6696(%rdi), %al
	je	.L6703
	cmpb	6697(%rdi), %dl
	je	.L6704
	cmpb	6698(%rdi), %cl
	je	.L6705
	cmpb	6699(%rdi), %al
	je	.L6706
	cmpb	6700(%rdi), %dl
	je	.L6707
	cmpb	6701(%rdi), %cl
	je	.L6708
	cmpb	6702(%rdi), %al
	je	.L6709
	cmpb	6703(%rdi), %dl
	je	.L6710
	cmpb	6704(%rdi), %cl
	je	.L6711
	cmpb	6705(%rdi), %al
	je	.L6712
	cmpb	6706(%rdi), %dl
	je	.L6713
	cmpb	6707(%rdi), %cl
	je	.L6714
	cmpb	6708(%rdi), %al
	je	.L6715
	cmpb	6709(%rdi), %dl
	je	.L6716
	cmpb	6710(%rdi), %cl
	je	.L6717
	cmpb	6711(%rdi), %al
	je	.L6718
	cmpb	6712(%rdi), %dl
	je	.L6719
	cmpb	6713(%rdi), %cl
	je	.L6720
	cmpb	6714(%rdi), %al
	je	.L6721
	cmpb	6715(%rdi), %dl
	je	.L6722
	cmpb	6716(%rdi), %cl
	je	.L6723
	cmpb	6717(%rdi), %al
	je	.L6724
	cmpb	6718(%rdi), %dl
	je	.L6725
	cmpb	6719(%rdi), %cl
	je	.L6726
	cmpb	6720(%rdi), %al
	je	.L6727
	cmpb	6721(%rdi), %dl
	je	.L6728
	cmpb	6722(%rdi), %cl
	je	.L6729
	cmpb	6723(%rdi), %al
	je	.L6730
	cmpb	6724(%rdi), %dl
	je	.L6731
	cmpb	6725(%rdi), %cl
	je	.L6732
	cmpb	6726(%rdi), %al
	je	.L6733
	cmpb	6727(%rdi), %dl
	je	.L6734
	cmpb	6728(%rdi), %cl
	je	.L6735
	cmpb	6729(%rdi), %al
	je	.L6736
	cmpb	6730(%rdi), %dl
	je	.L6737
	cmpb	6731(%rdi), %cl
	je	.L6738
	cmpb	6732(%rdi), %al
	je	.L6739
	cmpb	6733(%rdi), %dl
	je	.L6740
	cmpb	6734(%rdi), %cl
	je	.L6741
	cmpb	6735(%rdi), %al
	je	.L6742
	cmpb	6736(%rdi), %dl
	je	.L6743
	cmpb	6737(%rdi), %cl
	je	.L6744
	cmpb	6738(%rdi), %al
	je	.L6745
	cmpb	6739(%rdi), %dl
	je	.L6746
	cmpb	6740(%rdi), %cl
	je	.L6747
	cmpb	6741(%rdi), %al
	je	.L6748
	cmpb	6742(%rdi), %dl
	je	.L6749
	cmpb	6743(%rdi), %cl
	je	.L6750
	cmpb	6744(%rdi), %al
	je	.L6751
	cmpb	6745(%rdi), %dl
	je	.L6752
	cmpb	6746(%rdi), %cl
	je	.L6753
	cmpb	6747(%rdi), %al
	je	.L6754
	cmpb	6748(%rdi), %dl
	je	.L6755
	cmpb	6749(%rdi), %cl
	je	.L6756
	cmpb	6750(%rdi), %al
	je	.L6757
	cmpb	6751(%rdi), %dl
	je	.L6758
	cmpb	6752(%rdi), %cl
	je	.L6759
	cmpb	6753(%rdi), %al
	je	.L6760
	cmpb	6754(%rdi), %dl
	je	.L6761
	cmpb	6755(%rdi), %cl
	je	.L6762
	cmpb	6756(%rdi), %al
	je	.L6763
	cmpb	6757(%rdi), %dl
	je	.L6764
	cmpb	6758(%rdi), %cl
	je	.L6765
	cmpb	6759(%rdi), %al
	je	.L6766
	cmpb	6760(%rdi), %dl
	je	.L6767
	cmpb	6761(%rdi), %cl
	je	.L6768
	cmpb	6762(%rdi), %al
	je	.L6769
	cmpb	6763(%rdi), %dl
	je	.L6770
	cmpb	6764(%rdi), %cl
	je	.L6771
	cmpb	6765(%rdi), %al
	je	.L6772
	cmpb	6766(%rdi), %dl
	je	.L6773
	cmpb	6767(%rdi), %cl
	je	.L6774
	cmpb	6768(%rdi), %al
	je	.L6775
	cmpb	6769(%rdi), %dl
	je	.L6776
	cmpb	6770(%rdi), %cl
	je	.L6777
	cmpb	6771(%rdi), %al
	je	.L6778
	cmpb	6772(%rdi), %dl
	je	.L6779
	cmpb	6773(%rdi), %cl
	je	.L6780
	cmpb	6774(%rdi), %al
	je	.L6781
	cmpb	6775(%rdi), %dl
	je	.L6782
	cmpb	6776(%rdi), %cl
	je	.L6783
	cmpb	6777(%rdi), %al
	je	.L6784
	cmpb	6778(%rdi), %dl
	je	.L6785
	cmpb	6779(%rdi), %cl
	je	.L6786
	cmpb	6780(%rdi), %al
	je	.L6787
	cmpb	6781(%rdi), %dl
	je	.L6788
	cmpb	6782(%rdi), %cl
	je	.L6789
	cmpb	6783(%rdi), %al
	je	.L6790
	cmpb	6784(%rdi), %dl
	je	.L6791
	cmpb	6785(%rdi), %cl
	je	.L6792
	cmpb	6786(%rdi), %al
	je	.L6793
	cmpb	6787(%rdi), %dl
	je	.L6794
	cmpb	6788(%rdi), %cl
	je	.L6795
	cmpb	6789(%rdi), %al
	je	.L6796
	cmpb	6790(%rdi), %dl
	je	.L6797
	cmpb	6791(%rdi), %cl
	je	.L6798
	cmpb	6792(%rdi), %al
	je	.L6799
	cmpb	6793(%rdi), %dl
	je	.L6800
	cmpb	6794(%rdi), %cl
	je	.L6801
	cmpb	6795(%rdi), %al
	je	.L6802
	cmpb	6796(%rdi), %dl
	je	.L6803
	cmpb	6797(%rdi), %cl
	je	.L6804
	cmpb	6798(%rdi), %al
	je	.L6805
	cmpb	6799(%rdi), %dl
	je	.L6806
	cmpb	6800(%rdi), %cl
	je	.L6807
	cmpb	6801(%rdi), %al
	je	.L6808
	cmpb	6802(%rdi), %dl
	je	.L6809
	cmpb	6803(%rdi), %cl
	je	.L6810
	cmpb	6804(%rdi), %al
	je	.L6811
	cmpb	6805(%rdi), %dl
	je	.L6812
	cmpb	6806(%rdi), %cl
	je	.L6813
	cmpb	6807(%rdi), %al
	je	.L6814
	cmpb	6808(%rdi), %dl
	je	.L6815
	cmpb	6809(%rdi), %cl
	je	.L6816
	cmpb	6810(%rdi), %al
	je	.L6817
	cmpb	6811(%rdi), %dl
	je	.L6818
	cmpb	6812(%rdi), %cl
	je	.L6819
	cmpb	6813(%rdi), %al
	je	.L6820
	cmpb	6814(%rdi), %dl
	je	.L6821
	cmpb	6815(%rdi), %cl
	je	.L6822
	cmpb	6816(%rdi), %al
	je	.L6823
	cmpb	6817(%rdi), %dl
	je	.L6824
	cmpb	6818(%rdi), %cl
	je	.L6825
	cmpb	6819(%rdi), %al
	je	.L6826
	cmpb	6820(%rdi), %dl
	je	.L6827
	cmpb	6821(%rdi), %cl
	je	.L6828
	cmpb	6822(%rdi), %al
	je	.L6829
	cmpb	6823(%rdi), %dl
	je	.L6830
	cmpb	6824(%rdi), %cl
	je	.L6831
	cmpb	6825(%rdi), %al
	je	.L6832
	cmpb	6826(%rdi), %dl
	je	.L6833
	cmpb	6827(%rdi), %cl
	je	.L6834
	cmpb	6828(%rdi), %al
	je	.L6835
	cmpb	6829(%rdi), %dl
	je	.L6836
	cmpb	6830(%rdi), %cl
	je	.L6837
	cmpb	6831(%rdi), %al
	je	.L6838
	cmpb	6832(%rdi), %dl
	je	.L6839
	cmpb	6833(%rdi), %cl
	je	.L6840
	cmpb	6834(%rdi), %al
	je	.L6841
	cmpb	6835(%rdi), %dl
	je	.L6842
	cmpb	6836(%rdi), %cl
	je	.L6843
	cmpb	6837(%rdi), %al
	je	.L6844
	cmpb	6838(%rdi), %dl
	je	.L6845
	cmpb	6839(%rdi), %cl
	je	.L6846
	cmpb	6840(%rdi), %al
	je	.L6847
	cmpb	6841(%rdi), %dl
	je	.L6848
	cmpb	6842(%rdi), %cl
	je	.L6849
	cmpb	6843(%rdi), %al
	je	.L6850
	cmpb	6844(%rdi), %dl
	je	.L6851
	cmpb	6845(%rdi), %cl
	je	.L6852
	cmpb	6846(%rdi), %al
	je	.L6853
	cmpb	6847(%rdi), %dl
	je	.L6854
	cmpb	6848(%rdi), %cl
	je	.L6855
	cmpb	6849(%rdi), %al
	je	.L6856
	cmpb	6850(%rdi), %dl
	je	.L6857
	cmpb	6851(%rdi), %cl
	je	.L6858
	cmpb	6852(%rdi), %al
	je	.L6859
	cmpb	6853(%rdi), %dl
	je	.L6860
	cmpb	6854(%rdi), %cl
	je	.L6861
	cmpb	6855(%rdi), %al
	je	.L6862
	cmpb	6856(%rdi), %dl
	je	.L6863
	cmpb	6857(%rdi), %cl
	je	.L6864
	cmpb	6858(%rdi), %al
	je	.L6865
	cmpb	6859(%rdi), %dl
	je	.L6866
	cmpb	6860(%rdi), %cl
	je	.L6867
	cmpb	6861(%rdi), %al
	je	.L6868
	cmpb	6862(%rdi), %dl
	je	.L6869
	cmpb	6863(%rdi), %cl
	je	.L6870
	cmpb	6864(%rdi), %al
	je	.L6871
	cmpb	6865(%rdi), %dl
	je	.L6872
	cmpb	6866(%rdi), %cl
	je	.L6873
	cmpb	6867(%rdi), %al
	je	.L6874
	cmpb	6868(%rdi), %dl
	je	.L6875
	cmpb	6869(%rdi), %cl
	je	.L6876
	cmpb	6870(%rdi), %al
	je	.L6877
	cmpb	6871(%rdi), %dl
	je	.L6878
	cmpb	6872(%rdi), %cl
	je	.L6879
	cmpb	6873(%rdi), %al
	je	.L6880
	cmpb	6874(%rdi), %dl
	je	.L6881
	cmpb	6875(%rdi), %cl
	je	.L6882
	cmpb	6876(%rdi), %al
	je	.L6883
	cmpb	6877(%rdi), %dl
	je	.L6884
	cmpb	6878(%rdi), %cl
	je	.L6885
	cmpb	6879(%rdi), %al
	je	.L6886
	cmpb	6880(%rdi), %dl
	je	.L6887
	cmpb	6881(%rdi), %cl
	je	.L6888
	cmpb	6882(%rdi), %al
	je	.L6889
	cmpb	6883(%rdi), %dl
	je	.L6890
	cmpb	6884(%rdi), %cl
	je	.L6891
	cmpb	6885(%rdi), %al
	je	.L6892
	cmpb	6886(%rdi), %dl
	je	.L6893
	cmpb	6887(%rdi), %cl
	je	.L6894
	cmpb	6888(%rdi), %al
	je	.L6895
	cmpb	6889(%rdi), %dl
	je	.L6896
	cmpb	6890(%rdi), %cl
	je	.L6897
	cmpb	6891(%rdi), %al
	je	.L6898
	cmpb	6892(%rdi), %dl
	je	.L6899
	cmpb	6893(%rdi), %cl
	je	.L6900
	cmpb	6894(%rdi), %al
	je	.L6901
	cmpb	6895(%rdi), %dl
	je	.L6902
	cmpb	6896(%rdi), %cl
	je	.L6903
	cmpb	6897(%rdi), %al
	je	.L6904
	cmpb	6898(%rdi), %dl
	je	.L6905
	cmpb	6899(%rdi), %cl
	je	.L6906
	cmpb	6900(%rdi), %al
	je	.L6907
	cmpb	6901(%rdi), %dl
	je	.L6908
	cmpb	6902(%rdi), %cl
	je	.L6909
	cmpb	6903(%rdi), %al
	je	.L6910
	cmpb	6904(%rdi), %dl
	je	.L6911
	cmpb	6905(%rdi), %cl
	je	.L6912
	cmpb	6906(%rdi), %al
	je	.L6913
	cmpb	6907(%rdi), %dl
	je	.L6914
	cmpb	6908(%rdi), %cl
	je	.L6915
	cmpb	6909(%rdi), %al
	je	.L6916
	cmpb	6910(%rdi), %dl
	je	.L6917
	cmpb	6911(%rdi), %cl
	je	.L6918
	cmpb	6912(%rdi), %al
	je	.L6919
	cmpb	6913(%rdi), %dl
	je	.L6920
	cmpb	6914(%rdi), %cl
	je	.L6921
	cmpb	6915(%rdi), %al
	je	.L6922
	cmpb	6916(%rdi), %dl
	je	.L6923
	cmpb	6917(%rdi), %cl
	je	.L6924
	cmpb	6918(%rdi), %al
	je	.L6925
	cmpb	6919(%rdi), %dl
	je	.L6926
	cmpb	6920(%rdi), %cl
	je	.L6927
	cmpb	6921(%rdi), %al
	je	.L6928
	cmpb	6922(%rdi), %dl
	je	.L6929
	cmpb	6923(%rdi), %cl
	je	.L6930
	cmpb	6924(%rdi), %al
	je	.L6931
	cmpb	6925(%rdi), %dl
	je	.L6932
	cmpb	6926(%rdi), %cl
	je	.L6933
	cmpb	6927(%rdi), %al
	je	.L6934
	cmpb	6928(%rdi), %dl
	je	.L6935
	cmpb	6929(%rdi), %cl
	je	.L6936
	cmpb	6930(%rdi), %al
	je	.L6937
	cmpb	6931(%rdi), %dl
	je	.L6938
	cmpb	6932(%rdi), %cl
	je	.L6939
	cmpb	6933(%rdi), %al
	je	.L6940
	cmpb	6934(%rdi), %dl
	je	.L6941
	cmpb	6935(%rdi), %cl
	je	.L6942
	cmpb	6936(%rdi), %al
	je	.L6943
	cmpb	6937(%rdi), %dl
	je	.L6944
	cmpb	6938(%rdi), %cl
	je	.L6945
	cmpb	6939(%rdi), %al
	je	.L6946
	cmpb	6940(%rdi), %dl
	je	.L6947
	cmpb	6941(%rdi), %cl
	je	.L6948
	cmpb	6942(%rdi), %al
	je	.L6949
	cmpb	6943(%rdi), %dl
	je	.L6950
	cmpb	6944(%rdi), %cl
	je	.L6951
	cmpb	6945(%rdi), %al
	je	.L6952
	cmpb	6946(%rdi), %dl
	je	.L6953
	cmpb	6947(%rdi), %cl
	je	.L6954
	cmpb	6948(%rdi), %al
	je	.L6955
	cmpb	6949(%rdi), %dl
	je	.L6956
	cmpb	6950(%rdi), %cl
	je	.L6957
	cmpb	6951(%rdi), %al
	je	.L6958
	cmpb	6952(%rdi), %dl
	je	.L6959
	cmpb	6953(%rdi), %cl
	je	.L6960
	cmpb	6954(%rdi), %al
	je	.L6961
	cmpb	6955(%rdi), %dl
	je	.L6962
	cmpb	6956(%rdi), %cl
	je	.L6963
	cmpb	6957(%rdi), %al
	je	.L6964
	cmpb	6958(%rdi), %dl
	je	.L6965
	cmpb	6959(%rdi), %cl
	je	.L6966
	cmpb	6960(%rdi), %al
	je	.L6967
	cmpb	6961(%rdi), %dl
	je	.L6968
	cmpb	6962(%rdi), %cl
	je	.L6969
	cmpb	6963(%rdi), %al
	je	.L6970
	cmpb	6964(%rdi), %dl
	je	.L6971
	cmpb	6965(%rdi), %cl
	je	.L6972
	cmpb	6966(%rdi), %al
	je	.L6973
	cmpb	6967(%rdi), %dl
	je	.L6974
	cmpb	6968(%rdi), %cl
	je	.L6975
	cmpb	6969(%rdi), %al
	je	.L6976
	cmpb	6970(%rdi), %dl
	je	.L6977
	cmpb	6971(%rdi), %cl
	je	.L6978
	cmpb	6972(%rdi), %al
	je	.L6979
	cmpb	6973(%rdi), %dl
	je	.L6980
	cmpb	6974(%rdi), %cl
	je	.L6981
	cmpb	6975(%rdi), %al
	je	.L6982
	cmpb	6976(%rdi), %dl
	je	.L6983
	cmpb	6977(%rdi), %cl
	je	.L6984
	cmpb	6978(%rdi), %al
	je	.L6985
	cmpb	6979(%rdi), %dl
	je	.L6986
	cmpb	6980(%rdi), %cl
	je	.L6987
	cmpb	6981(%rdi), %al
	je	.L6988
	cmpb	6982(%rdi), %dl
	je	.L6989
	cmpb	6983(%rdi), %cl
	je	.L6990
	cmpb	6984(%rdi), %al
	je	.L6991
	cmpb	6985(%rdi), %dl
	je	.L6992
	cmpb	6986(%rdi), %cl
	je	.L6993
	cmpb	6987(%rdi), %al
	je	.L6994
	cmpb	6988(%rdi), %dl
	je	.L6995
	cmpb	6989(%rdi), %cl
	je	.L6996
	cmpb	6990(%rdi), %al
	je	.L6997
	cmpb	6991(%rdi), %dl
	je	.L6998
	cmpb	6992(%rdi), %cl
	je	.L6999
	cmpb	6993(%rdi), %al
	je	.L7000
	cmpb	6994(%rdi), %dl
	je	.L7001
	cmpb	6995(%rdi), %cl
	je	.L7002
	cmpb	6996(%rdi), %al
	je	.L7003
	cmpb	6997(%rdi), %dl
	je	.L7004
	cmpb	6998(%rdi), %cl
	je	.L7005
	cmpb	6999(%rdi), %al
	je	.L7006
	cmpb	7000(%rdi), %dl
	je	.L7007
	cmpb	7001(%rdi), %cl
	je	.L7008
	cmpb	7002(%rdi), %al
	je	.L7009
	cmpb	7003(%rdi), %dl
	je	.L7010
	cmpb	7004(%rdi), %cl
	je	.L7011
	cmpb	7005(%rdi), %al
	je	.L7012
	cmpb	7006(%rdi), %dl
	je	.L7013
	cmpb	7007(%rdi), %cl
	je	.L7014
	cmpb	7008(%rdi), %al
	je	.L7015
	cmpb	7009(%rdi), %dl
	je	.L7016
	cmpb	7010(%rdi), %cl
	je	.L7017
	cmpb	7011(%rdi), %al
	je	.L7018
	cmpb	7012(%rdi), %dl
	je	.L7019
	cmpb	7013(%rdi), %cl
	je	.L7020
	cmpb	7014(%rdi), %al
	je	.L7021
	cmpb	7015(%rdi), %dl
	je	.L7022
	cmpb	7016(%rdi), %cl
	je	.L7023
	cmpb	7017(%rdi), %al
	je	.L7024
	cmpb	7018(%rdi), %dl
	je	.L7025
	cmpb	7019(%rdi), %cl
	je	.L7026
	cmpb	7020(%rdi), %al
	je	.L7027
	cmpb	7021(%rdi), %dl
	je	.L7028
	cmpb	7022(%rdi), %cl
	je	.L7029
	cmpb	7023(%rdi), %al
	je	.L7030
	cmpb	7024(%rdi), %dl
	je	.L7031
	cmpb	7025(%rdi), %cl
	je	.L7032
	cmpb	7026(%rdi), %al
	je	.L7033
	cmpb	7027(%rdi), %dl
	je	.L7034
	cmpb	7028(%rdi), %cl
	je	.L7035
	cmpb	7029(%rdi), %al
	je	.L7036
	cmpb	7030(%rdi), %dl
	je	.L7037
	cmpb	7031(%rdi), %cl
	je	.L7038
	cmpb	7032(%rdi), %al
	je	.L7039
	cmpb	7033(%rdi), %dl
	je	.L7040
	cmpb	7034(%rdi), %cl
	je	.L7041
	cmpb	7035(%rdi), %al
	je	.L7042
	cmpb	7036(%rdi), %dl
	je	.L7043
	cmpb	7037(%rdi), %cl
	je	.L7044
	cmpb	7038(%rdi), %al
	je	.L7045
	cmpb	7039(%rdi), %dl
	je	.L7046
	cmpb	7040(%rdi), %cl
	je	.L7047
	cmpb	7041(%rdi), %al
	je	.L7048
	cmpb	7042(%rdi), %dl
	je	.L7049
	cmpb	7043(%rdi), %cl
	je	.L7050
	cmpb	7044(%rdi), %al
	je	.L7051
	cmpb	7045(%rdi), %dl
	je	.L7052
	cmpb	7046(%rdi), %cl
	je	.L7053
	cmpb	7047(%rdi), %al
	je	.L7054
	cmpb	7048(%rdi), %dl
	je	.L7055
	cmpb	7049(%rdi), %cl
	je	.L7056
	cmpb	7050(%rdi), %al
	je	.L7057
	cmpb	7051(%rdi), %dl
	je	.L7058
	cmpb	7052(%rdi), %cl
	je	.L7059
	cmpb	7053(%rdi), %al
	je	.L7060
	cmpb	7054(%rdi), %dl
	je	.L7061
	cmpb	7055(%rdi), %cl
	je	.L7062
	cmpb	7056(%rdi), %al
	je	.L7063
	cmpb	7057(%rdi), %dl
	je	.L7064
	cmpb	7058(%rdi), %cl
	je	.L7065
	cmpb	7059(%rdi), %al
	je	.L7066
	cmpb	7060(%rdi), %dl
	je	.L7067
	cmpb	7061(%rdi), %cl
	je	.L7068
	cmpb	7062(%rdi), %al
	je	.L7069
	cmpb	7063(%rdi), %dl
	je	.L7070
	cmpb	7064(%rdi), %cl
	je	.L7071
	cmpb	7065(%rdi), %al
	je	.L7072
	cmpb	7066(%rdi), %dl
	je	.L7073
	cmpb	7067(%rdi), %cl
	je	.L7074
	cmpb	7068(%rdi), %al
	je	.L7075
	cmpb	7069(%rdi), %dl
	je	.L7076
	cmpb	7070(%rdi), %cl
	je	.L7077
	cmpb	7071(%rdi), %al
	je	.L7078
	cmpb	7072(%rdi), %dl
	je	.L7079
	cmpb	7073(%rdi), %cl
	je	.L7080
	cmpb	7074(%rdi), %al
	je	.L7081
	cmpb	7075(%rdi), %dl
	je	.L7082
	cmpb	7076(%rdi), %cl
	je	.L7083
	cmpb	7077(%rdi), %al
	je	.L7084
	cmpb	7078(%rdi), %dl
	je	.L7085
	cmpb	7079(%rdi), %cl
	je	.L7086
	cmpb	7080(%rdi), %al
	je	.L7087
	cmpb	7081(%rdi), %dl
	je	.L7088
	cmpb	7082(%rdi), %cl
	je	.L7089
	cmpb	7083(%rdi), %al
	je	.L7090
	cmpb	7084(%rdi), %dl
	je	.L7091
	cmpb	7085(%rdi), %cl
	je	.L7092
	cmpb	7086(%rdi), %al
	je	.L7093
	cmpb	7087(%rdi), %dl
	je	.L7094
	cmpb	7088(%rdi), %cl
	je	.L7095
	cmpb	7089(%rdi), %al
	je	.L7096
	cmpb	7090(%rdi), %dl
	je	.L7097
	cmpb	7091(%rdi), %cl
	je	.L7098
	cmpb	7092(%rdi), %al
	je	.L7099
	cmpb	7093(%rdi), %dl
	je	.L7100
	cmpb	7094(%rdi), %cl
	je	.L7101
	cmpb	7095(%rdi), %al
	je	.L7102
	cmpb	7096(%rdi), %dl
	je	.L7103
	cmpb	7097(%rdi), %cl
	je	.L7104
	cmpb	7098(%rdi), %al
	je	.L7105
	cmpb	7099(%rdi), %dl
	je	.L7106
	cmpb	7100(%rdi), %cl
	je	.L7107
	cmpb	7101(%rdi), %al
	je	.L7108
	cmpb	7102(%rdi), %dl
	je	.L7109
	cmpb	7103(%rdi), %cl
	je	.L7110
	cmpb	7104(%rdi), %al
	je	.L7111
	cmpb	7105(%rdi), %dl
	je	.L7112
	cmpb	7106(%rdi), %cl
	je	.L7113
	cmpb	7107(%rdi), %al
	je	.L7114
	cmpb	7108(%rdi), %dl
	je	.L7115
	cmpb	7109(%rdi), %cl
	je	.L7116
	cmpb	7110(%rdi), %al
	je	.L7117
	cmpb	7111(%rdi), %dl
	je	.L7118
	cmpb	7112(%rdi), %cl
	je	.L7119
	cmpb	7113(%rdi), %al
	je	.L7120
	cmpb	7114(%rdi), %dl
	je	.L7121
	cmpb	7115(%rdi), %cl
	je	.L7122
	cmpb	7116(%rdi), %al
	je	.L7123
	cmpb	7117(%rdi), %dl
	je	.L7124
	cmpb	7118(%rdi), %cl
	je	.L7125
	cmpb	7119(%rdi), %al
	je	.L7126
	cmpb	7120(%rdi), %dl
	je	.L7127
	cmpb	7121(%rdi), %cl
	je	.L7128
	cmpb	7122(%rdi), %al
	je	.L7129
	cmpb	7123(%rdi), %dl
	je	.L7130
	cmpb	7124(%rdi), %cl
	je	.L7131
	cmpb	7125(%rdi), %al
	je	.L7132
	cmpb	7126(%rdi), %dl
	je	.L7133
	cmpb	7127(%rdi), %cl
	je	.L7134
	cmpb	7128(%rdi), %al
	je	.L7135
	cmpb	7129(%rdi), %dl
	je	.L7136
	cmpb	7130(%rdi), %cl
	je	.L7137
	cmpb	7131(%rdi), %al
	je	.L7138
	cmpb	7132(%rdi), %dl
	je	.L7139
	cmpb	7133(%rdi), %cl
	je	.L7140
	cmpb	7134(%rdi), %al
	je	.L7141
	cmpb	7135(%rdi), %dl
	je	.L7142
	cmpb	7136(%rdi), %cl
	je	.L7143
	cmpb	7137(%rdi), %al
	je	.L7144
	cmpb	7138(%rdi), %dl
	je	.L7145
	cmpb	7139(%rdi), %cl
	je	.L7146
	cmpb	7140(%rdi), %al
	je	.L7147
	cmpb	7141(%rdi), %dl
	je	.L7148
	cmpb	7142(%rdi), %cl
	je	.L7149
	cmpb	7143(%rdi), %al
	je	.L7150
	cmpb	7144(%rdi), %dl
	je	.L7151
	cmpb	7145(%rdi), %cl
	je	.L7152
	cmpb	7146(%rdi), %al
	je	.L7153
	cmpb	7147(%rdi), %dl
	je	.L7154
	cmpb	7148(%rdi), %cl
	je	.L7155
	cmpb	7149(%rdi), %al
	je	.L7156
	cmpb	7150(%rdi), %dl
	je	.L7157
	cmpb	7151(%rdi), %cl
	je	.L7158
	cmpb	7152(%rdi), %al
	je	.L7159
	cmpb	7153(%rdi), %dl
	je	.L7160
	cmpb	7154(%rdi), %cl
	je	.L7161
	cmpb	7155(%rdi), %al
	je	.L7162
	cmpb	7156(%rdi), %dl
	je	.L7163
	cmpb	7157(%rdi), %cl
	je	.L7164
	cmpb	7158(%rdi), %al
	je	.L7165
	cmpb	7159(%rdi), %dl
	je	.L7166
	cmpb	7160(%rdi), %cl
	je	.L7167
	cmpb	7161(%rdi), %al
	je	.L7168
	cmpb	7162(%rdi), %dl
	je	.L7169
	cmpb	7163(%rdi), %cl
	je	.L7170
	cmpb	7164(%rdi), %al
	je	.L7171
	cmpb	7165(%rdi), %dl
	je	.L7172
	cmpb	7166(%rdi), %cl
	je	.L7173
	cmpb	7167(%rdi), %al
	je	.L7174
	cmpb	7168(%rdi), %dl
	je	.L7175
	cmpb	7169(%rdi), %cl
	je	.L7176
	cmpb	7170(%rdi), %al
	je	.L7177
	cmpb	7171(%rdi), %dl
	je	.L7178
	cmpb	7172(%rdi), %cl
	je	.L7179
	cmpb	7173(%rdi), %al
	je	.L7180
	cmpb	7174(%rdi), %dl
	je	.L7181
	cmpb	7175(%rdi), %cl
	je	.L7182
	cmpb	7176(%rdi), %al
	je	.L7183
	cmpb	7177(%rdi), %dl
	je	.L7184
	cmpb	7178(%rdi), %cl
	je	.L7185
	cmpb	7179(%rdi), %al
	je	.L7186
	cmpb	7180(%rdi), %dl
	je	.L7187
	cmpb	7181(%rdi), %cl
	je	.L7188
	cmpb	7182(%rdi), %al
	je	.L7189
	cmpb	7183(%rdi), %dl
	je	.L7190
	cmpb	7184(%rdi), %cl
	je	.L7191
	cmpb	7185(%rdi), %al
	je	.L7192
	cmpb	7186(%rdi), %dl
	je	.L7193
	cmpb	7187(%rdi), %cl
	je	.L7194
	cmpb	7188(%rdi), %al
	je	.L7195
	cmpb	7189(%rdi), %dl
	je	.L7196
	cmpb	7190(%rdi), %cl
	je	.L7197
	cmpb	7191(%rdi), %al
	je	.L7198
	cmpb	7192(%rdi), %dl
	je	.L7199
	cmpb	7193(%rdi), %cl
	je	.L7200
	cmpb	7194(%rdi), %al
	je	.L7201
	cmpb	7195(%rdi), %dl
	je	.L7202
	cmpb	7196(%rdi), %cl
	je	.L7203
	cmpb	7197(%rdi), %al
	je	.L7204
	cmpb	7198(%rdi), %dl
	je	.L7205
	cmpb	7199(%rdi), %cl
	je	.L7206
	cmpb	7200(%rdi), %al
	je	.L7207
	cmpb	7201(%rdi), %dl
	je	.L7208
	cmpb	7202(%rdi), %cl
	je	.L7209
	cmpb	7203(%rdi), %al
	je	.L7210
	cmpb	7204(%rdi), %dl
	je	.L7211
	cmpb	7205(%rdi), %cl
	je	.L7212
	cmpb	7206(%rdi), %al
	je	.L7213
	cmpb	7207(%rdi), %dl
	je	.L7214
	cmpb	7208(%rdi), %cl
	je	.L7215
	cmpb	7209(%rdi), %al
	je	.L7216
	cmpb	7210(%rdi), %dl
	je	.L7217
	cmpb	7211(%rdi), %cl
	je	.L7218
	cmpb	7212(%rdi), %al
	je	.L7219
	cmpb	7213(%rdi), %dl
	je	.L7220
	cmpb	7214(%rdi), %cl
	je	.L7221
	cmpb	7215(%rdi), %al
	je	.L7222
	cmpb	7216(%rdi), %dl
	je	.L7223
	cmpb	7217(%rdi), %cl
	je	.L7224
	cmpb	7218(%rdi), %al
	je	.L7225
	cmpb	7219(%rdi), %dl
	je	.L7226
	cmpb	7220(%rdi), %cl
	je	.L7227
	cmpb	7221(%rdi), %al
	je	.L7228
	cmpb	7222(%rdi), %dl
	je	.L7229
	cmpb	7223(%rdi), %cl
	je	.L7230
	cmpb	7224(%rdi), %al
	je	.L7231
	cmpb	7225(%rdi), %dl
	je	.L7232
	cmpb	7226(%rdi), %cl
	je	.L7233
	cmpb	7227(%rdi), %al
	je	.L7234
	cmpb	7228(%rdi), %dl
	je	.L7235
	cmpb	7229(%rdi), %cl
	je	.L7236
	cmpb	7230(%rdi), %al
	je	.L7237
	cmpb	7231(%rdi), %dl
	je	.L7238
	cmpb	7232(%rdi), %cl
	je	.L7239
	cmpb	7233(%rdi), %al
	je	.L7240
	cmpb	7234(%rdi), %dl
	je	.L7241
	cmpb	7235(%rdi), %cl
	je	.L7242
	cmpb	7236(%rdi), %al
	je	.L7243
	cmpb	7237(%rdi), %dl
	je	.L7244
	cmpb	7238(%rdi), %cl
	je	.L7245
	cmpb	7239(%rdi), %al
	je	.L7246
	cmpb	7240(%rdi), %dl
	je	.L7247
	cmpb	7241(%rdi), %cl
	je	.L7248
	cmpb	7242(%rdi), %al
	je	.L7249
	cmpb	7243(%rdi), %dl
	je	.L7250
	cmpb	7244(%rdi), %cl
	je	.L7251
	cmpb	7245(%rdi), %al
	je	.L7252
	cmpb	7246(%rdi), %dl
	je	.L7253
	cmpb	7247(%rdi), %cl
	je	.L7254
	cmpb	7248(%rdi), %al
	je	.L7255
	cmpb	7249(%rdi), %dl
	je	.L7256
	cmpb	7250(%rdi), %cl
	je	.L7257
	cmpb	7251(%rdi), %al
	je	.L7258
	cmpb	7252(%rdi), %dl
	je	.L7259
	cmpb	7253(%rdi), %cl
	je	.L7260
	cmpb	7254(%rdi), %al
	je	.L7261
	cmpb	7255(%rdi), %dl
	je	.L7262
	cmpb	7256(%rdi), %cl
	je	.L7263
	cmpb	7257(%rdi), %al
	je	.L7264
	cmpb	7258(%rdi), %dl
	je	.L7265
	cmpb	7259(%rdi), %cl
	je	.L7266
	cmpb	7260(%rdi), %al
	je	.L7267
	cmpb	7261(%rdi), %dl
	je	.L7268
	cmpb	7262(%rdi), %cl
	je	.L7269
	cmpb	7263(%rdi), %al
	je	.L7270
	cmpb	7264(%rdi), %dl
	je	.L7271
	cmpb	7265(%rdi), %cl
	je	.L7272
	cmpb	7266(%rdi), %al
	je	.L7273
	cmpb	7267(%rdi), %dl
	je	.L7274
	cmpb	7268(%rdi), %cl
	je	.L7275
	cmpb	7269(%rdi), %al
	je	.L7276
	cmpb	7270(%rdi), %dl
	je	.L7277
	cmpb	7271(%rdi), %cl
	je	.L7278
	cmpb	7272(%rdi), %al
	je	.L7279
	cmpb	7273(%rdi), %dl
	je	.L7280
	cmpb	7274(%rdi), %cl
	je	.L7281
	cmpb	7275(%rdi), %al
	je	.L7282
	cmpb	7276(%rdi), %dl
	je	.L7283
	cmpb	7277(%rdi), %cl
	je	.L7284
	cmpb	7278(%rdi), %al
	je	.L7285
	cmpb	7279(%rdi), %dl
	je	.L7286
	cmpb	7280(%rdi), %cl
	je	.L7287
	cmpb	7281(%rdi), %al
	je	.L7288
	cmpb	7282(%rdi), %dl
	je	.L7289
	cmpb	7283(%rdi), %cl
	je	.L7290
	cmpb	7284(%rdi), %al
	je	.L7291
	cmpb	7285(%rdi), %dl
	je	.L7292
	cmpb	7286(%rdi), %cl
	je	.L7293
	cmpb	7287(%rdi), %al
	je	.L7294
	cmpb	7288(%rdi), %dl
	je	.L7295
	cmpb	7289(%rdi), %cl
	je	.L7296
	cmpb	7290(%rdi), %al
	je	.L7297
	cmpb	7291(%rdi), %dl
	je	.L7298
	cmpb	7292(%rdi), %cl
	je	.L7299
	cmpb	7293(%rdi), %al
	je	.L7300
	cmpb	7294(%rdi), %dl
	je	.L7301
	cmpb	7295(%rdi), %cl
	je	.L7302
	cmpb	7296(%rdi), %al
	je	.L7303
	cmpb	7297(%rdi), %dl
	je	.L7304
	cmpb	7298(%rdi), %cl
	je	.L7305
	cmpb	7299(%rdi), %al
	je	.L7306
	cmpb	7300(%rdi), %dl
	je	.L7307
	cmpb	7301(%rdi), %cl
	je	.L7308
	cmpb	7302(%rdi), %al
	je	.L7309
	cmpb	7303(%rdi), %dl
	je	.L7310
	cmpb	7304(%rdi), %cl
	je	.L7311
	cmpb	7305(%rdi), %al
	je	.L7312
	cmpb	7306(%rdi), %dl
	je	.L7313
	cmpb	7307(%rdi), %cl
	je	.L7314
	cmpb	7308(%rdi), %al
	je	.L7315
	cmpb	7309(%rdi), %dl
	je	.L7316
	cmpb	7310(%rdi), %cl
	je	.L7317
	cmpb	7311(%rdi), %al
	je	.L7318
	cmpb	7312(%rdi), %dl
	je	.L7319
	cmpb	7313(%rdi), %cl
	je	.L7320
	cmpb	7314(%rdi), %al
	je	.L7321
	cmpb	7315(%rdi), %dl
	je	.L7322
	cmpb	7316(%rdi), %cl
	je	.L7323
	cmpb	7317(%rdi), %al
	je	.L7324
	cmpb	7318(%rdi), %dl
	je	.L7325
	cmpb	7319(%rdi), %cl
	je	.L7326
	cmpb	7320(%rdi), %al
	je	.L7327
	cmpb	7321(%rdi), %dl
	je	.L7328
	cmpb	7322(%rdi), %cl
	je	.L7329
	cmpb	7323(%rdi), %al
	je	.L7330
	cmpb	7324(%rdi), %dl
	je	.L7331
	cmpb	7325(%rdi), %cl
	je	.L7332
	cmpb	7326(%rdi), %al
	je	.L7333
	cmpb	7327(%rdi), %dl
	je	.L7334
	cmpb	7328(%rdi), %cl
	je	.L7335
	cmpb	7329(%rdi), %al
	je	.L7336
	cmpb	7330(%rdi), %dl
	je	.L7337
	cmpb	7331(%rdi), %cl
	je	.L7338
	cmpb	7332(%rdi), %al
	je	.L7339
	cmpb	7333(%rdi), %dl
	je	.L7340
	cmpb	7334(%rdi), %cl
	je	.L7341
	cmpb	7335(%rdi), %al
	je	.L7342
	cmpb	7336(%rdi), %dl
	je	.L7343
	cmpb	7337(%rdi), %cl
	je	.L7344
	cmpb	7338(%rdi), %al
	je	.L7345
	cmpb	7339(%rdi), %dl
	je	.L7346
	cmpb	7340(%rdi), %cl
	je	.L7347
	cmpb	7341(%rdi), %al
	je	.L7348
	cmpb	7342(%rdi), %dl
	je	.L7349
	cmpb	7343(%rdi), %cl
	je	.L7350
	cmpb	7344(%rdi), %al
	je	.L7351
	cmpb	7345(%rdi), %dl
	je	.L7352
	cmpb	7346(%rdi), %cl
	je	.L7353
	cmpb	7347(%rdi), %al
	je	.L7354
	cmpb	7348(%rdi), %dl
	je	.L7355
	cmpb	7349(%rdi), %cl
	je	.L7356
	cmpb	7350(%rdi), %al
	je	.L7357
	cmpb	7351(%rdi), %dl
	je	.L7358
	cmpb	7352(%rdi), %cl
	je	.L7359
	cmpb	7353(%rdi), %al
	je	.L7360
	cmpb	7354(%rdi), %dl
	je	.L7361
	cmpb	7355(%rdi), %cl
	je	.L7362
	cmpb	7356(%rdi), %al
	je	.L7363
	cmpb	7357(%rdi), %dl
	je	.L7364
	cmpb	7358(%rdi), %cl
	je	.L7365
	cmpb	7359(%rdi), %al
	je	.L7366
	cmpb	7360(%rdi), %dl
	je	.L7367
	cmpb	7361(%rdi), %cl
	je	.L7368
	cmpb	7362(%rdi), %al
	je	.L7369
	cmpb	7363(%rdi), %dl
	je	.L7370
	cmpb	7364(%rdi), %cl
	je	.L7371
	cmpb	7365(%rdi), %al
	je	.L7372
	cmpb	7366(%rdi), %dl
	je	.L7373
	cmpb	7367(%rdi), %cl
	je	.L7374
	cmpb	7368(%rdi), %al
	je	.L7375
	cmpb	7369(%rdi), %dl
	je	.L7376
	cmpb	7370(%rdi), %cl
	je	.L7377
	cmpb	7371(%rdi), %al
	je	.L7378
	cmpb	7372(%rdi), %dl
	je	.L7379
	cmpb	7373(%rdi), %cl
	je	.L7380
	cmpb	7374(%rdi), %al
	je	.L7381
	cmpb	7375(%rdi), %dl
	je	.L7382
	cmpb	7376(%rdi), %cl
	je	.L7383
	cmpb	7377(%rdi), %al
	je	.L7384
	cmpb	7378(%rdi), %dl
	je	.L7385
	cmpb	7379(%rdi), %cl
	je	.L7386
	cmpb	7380(%rdi), %al
	je	.L7387
	cmpb	7381(%rdi), %dl
	je	.L7388
	cmpb	7382(%rdi), %cl
	je	.L7389
	cmpb	7383(%rdi), %al
	je	.L7390
	cmpb	7384(%rdi), %dl
	je	.L7391
	cmpb	7385(%rdi), %cl
	je	.L7392
	cmpb	7386(%rdi), %al
	je	.L7393
	cmpb	7387(%rdi), %dl
	je	.L7394
	cmpb	7388(%rdi), %cl
	je	.L7395
	cmpb	7389(%rdi), %al
	je	.L7396
	cmpb	7390(%rdi), %dl
	je	.L7397
	cmpb	7391(%rdi), %cl
	je	.L7398
	cmpb	7392(%rdi), %al
	je	.L7399
	cmpb	7393(%rdi), %dl
	je	.L7400
	cmpb	7394(%rdi), %cl
	je	.L7401
	cmpb	7395(%rdi), %al
	je	.L7402
	cmpb	7396(%rdi), %dl
	je	.L7403
	cmpb	7397(%rdi), %cl
	je	.L7404
	cmpb	7398(%rdi), %al
	je	.L7405
	cmpb	7399(%rdi), %dl
	je	.L7406
	cmpb	7400(%rdi), %cl
	je	.L7407
	cmpb	7401(%rdi), %al
	je	.L7408
	cmpb	7402(%rdi), %dl
	je	.L7409
	cmpb	7403(%rdi), %cl
	je	.L7410
	cmpb	7404(%rdi), %al
	je	.L7411
	cmpb	7405(%rdi), %dl
	je	.L7412
	cmpb	7406(%rdi), %cl
	je	.L7413
	cmpb	7407(%rdi), %al
	je	.L7414
	cmpb	7408(%rdi), %dl
	je	.L7415
	cmpb	7409(%rdi), %cl
	je	.L7416
	cmpb	7410(%rdi), %al
	je	.L7417
	cmpb	7411(%rdi), %dl
	je	.L7418
	cmpb	7412(%rdi), %cl
	je	.L7419
	cmpb	7413(%rdi), %al
	je	.L7420
	cmpb	7414(%rdi), %dl
	je	.L7421
	cmpb	7415(%rdi), %cl
	je	.L7422
	cmpb	7416(%rdi), %al
	je	.L7423
	cmpb	7417(%rdi), %dl
	je	.L7424
	cmpb	7418(%rdi), %cl
	je	.L7425
	cmpb	7419(%rdi), %al
	je	.L7426
	cmpb	7420(%rdi), %dl
	je	.L7427
	cmpb	7421(%rdi), %cl
	je	.L7428
	cmpb	7422(%rdi), %al
	je	.L7429
	cmpb	7423(%rdi), %dl
	je	.L7430
	cmpb	7424(%rdi), %cl
	je	.L7431
	cmpb	7425(%rdi), %al
	je	.L7432
	cmpb	7426(%rdi), %dl
	je	.L7433
	cmpb	7427(%rdi), %cl
	je	.L7434
	cmpb	7428(%rdi), %al
	je	.L7435
	cmpb	7429(%rdi), %dl
	je	.L7436
	cmpb	7430(%rdi), %cl
	je	.L7437
	cmpb	7431(%rdi), %al
	je	.L7438
	cmpb	7432(%rdi), %dl
	je	.L7439
	cmpb	7433(%rdi), %cl
	je	.L7440
	cmpb	7434(%rdi), %al
	je	.L7441
	cmpb	7435(%rdi), %dl
	je	.L7442
	cmpb	7436(%rdi), %cl
	je	.L7443
	cmpb	7437(%rdi), %al
	je	.L7444
	cmpb	7438(%rdi), %dl
	je	.L7445
	cmpb	7439(%rdi), %cl
	je	.L7446
	cmpb	7440(%rdi), %al
	je	.L7447
	cmpb	7441(%rdi), %dl
	je	.L7448
	cmpb	7442(%rdi), %cl
	je	.L7449
	cmpb	7443(%rdi), %al
	je	.L7450
	cmpb	7444(%rdi), %dl
	je	.L7451
	cmpb	7445(%rdi), %cl
	je	.L7452
	cmpb	7446(%rdi), %al
	je	.L7453
	cmpb	7447(%rdi), %dl
	je	.L7454
	cmpb	7448(%rdi), %cl
	je	.L7455
	cmpb	7449(%rdi), %al
	je	.L7456
	cmpb	7450(%rdi), %dl
	je	.L7457
	cmpb	7451(%rdi), %cl
	je	.L7458
	cmpb	7452(%rdi), %al
	je	.L7459
	cmpb	7453(%rdi), %dl
	je	.L7460
	cmpb	7454(%rdi), %cl
	je	.L7461
	cmpb	7455(%rdi), %al
	je	.L7462
	cmpb	7456(%rdi), %dl
	je	.L7463
	cmpb	7457(%rdi), %cl
	je	.L7464
	cmpb	7458(%rdi), %al
	je	.L7465
	cmpb	7459(%rdi), %dl
	je	.L7466
	cmpb	7460(%rdi), %cl
	je	.L7467
	cmpb	7461(%rdi), %al
	je	.L7468
	cmpb	7462(%rdi), %dl
	je	.L7469
	cmpb	7463(%rdi), %cl
	je	.L7470
	cmpb	7464(%rdi), %al
	je	.L7471
	cmpb	7465(%rdi), %dl
	je	.L7472
	cmpb	7466(%rdi), %cl
	je	.L7473
	cmpb	7467(%rdi), %al
	je	.L7474
	cmpb	7468(%rdi), %dl
	je	.L7475
	cmpb	7469(%rdi), %cl
	je	.L7476
	cmpb	7470(%rdi), %al
	je	.L7477
	cmpb	7471(%rdi), %dl
	je	.L7478
	cmpb	7472(%rdi), %cl
	je	.L7479
	cmpb	7473(%rdi), %al
	je	.L7480
	cmpb	7474(%rdi), %dl
	je	.L7481
	cmpb	7475(%rdi), %cl
	je	.L7482
	cmpb	7476(%rdi), %al
	je	.L7483
	cmpb	7477(%rdi), %dl
	je	.L7484
	cmpb	7478(%rdi), %cl
	je	.L7485
	cmpb	7479(%rdi), %al
	je	.L7486
	cmpb	7480(%rdi), %dl
	je	.L7487
	cmpb	7481(%rdi), %cl
	je	.L7488
	cmpb	7482(%rdi), %al
	je	.L7489
	cmpb	7483(%rdi), %dl
	je	.L7490
	cmpb	7484(%rdi), %cl
	je	.L7491
	cmpb	7485(%rdi), %al
	je	.L7492
	cmpb	7486(%rdi), %dl
	je	.L7493
	cmpb	7487(%rdi), %cl
	je	.L7494
	cmpb	7488(%rdi), %al
	je	.L7495
	cmpb	7489(%rdi), %dl
	je	.L7496
	cmpb	7490(%rdi), %cl
	je	.L7497
	cmpb	7491(%rdi), %al
	je	.L7498
	cmpb	7492(%rdi), %dl
	je	.L7499
	cmpb	7493(%rdi), %cl
	je	.L7500
	cmpb	7494(%rdi), %al
	je	.L7501
	cmpb	7495(%rdi), %dl
	je	.L7502
	cmpb	7496(%rdi), %cl
	je	.L7503
	cmpb	7497(%rdi), %al
	je	.L7504
	cmpb	7498(%rdi), %dl
	je	.L7505
	cmpb	7499(%rdi), %cl
	je	.L7506
	cmpb	7500(%rdi), %al
	je	.L7507
	cmpb	7501(%rdi), %dl
	je	.L7508
	cmpb	7502(%rdi), %cl
	je	.L7509
	cmpb	7503(%rdi), %al
	je	.L7510
	cmpb	7504(%rdi), %dl
	je	.L7511
	cmpb	7505(%rdi), %cl
	je	.L7512
	cmpb	7506(%rdi), %al
	je	.L7513
	cmpb	7507(%rdi), %dl
	je	.L7514
	cmpb	7508(%rdi), %cl
	je	.L7515
	cmpb	7509(%rdi), %al
	je	.L7516
	cmpb	7510(%rdi), %dl
	je	.L7517
	cmpb	7511(%rdi), %cl
	je	.L7518
	cmpb	7512(%rdi), %al
	je	.L7519
	cmpb	7513(%rdi), %dl
	je	.L7520
	cmpb	7514(%rdi), %cl
	je	.L7521
	cmpb	7515(%rdi), %al
	je	.L7522
	cmpb	7516(%rdi), %dl
	je	.L7523
	cmpb	7517(%rdi), %cl
	je	.L7524
	cmpb	7518(%rdi), %al
	je	.L7525
	cmpb	7519(%rdi), %dl
	je	.L7526
	cmpb	7520(%rdi), %cl
	je	.L7527
	cmpb	7521(%rdi), %al
	je	.L7528
	cmpb	7522(%rdi), %dl
	je	.L7529
	cmpb	7523(%rdi), %cl
	je	.L7530
	cmpb	7524(%rdi), %al
	je	.L7531
	cmpb	7525(%rdi), %dl
	je	.L7532
	cmpb	7526(%rdi), %cl
	je	.L7533
	cmpb	7527(%rdi), %al
	je	.L7534
	cmpb	7528(%rdi), %dl
	je	.L7535
	cmpb	7529(%rdi), %cl
	je	.L7536
	cmpb	7530(%rdi), %al
	je	.L7537
	cmpb	7531(%rdi), %dl
	je	.L7538
	cmpb	7532(%rdi), %cl
	je	.L7539
	cmpb	7533(%rdi), %al
	je	.L7540
	cmpb	7534(%rdi), %dl
	je	.L7541
	cmpb	7535(%rdi), %cl
	je	.L7542
	cmpb	7536(%rdi), %al
	je	.L7543
	cmpb	7537(%rdi), %dl
	je	.L7544
	cmpb	7538(%rdi), %cl
	je	.L7545
	cmpb	7539(%rdi), %al
	je	.L7546
	cmpb	7540(%rdi), %dl
	je	.L7547
	cmpb	7541(%rdi), %cl
	je	.L7548
	cmpb	7542(%rdi), %al
	je	.L7549
	cmpb	7543(%rdi), %dl
	je	.L7550
	cmpb	7544(%rdi), %cl
	je	.L7551
	cmpb	7545(%rdi), %al
	je	.L7552
	cmpb	7546(%rdi), %dl
	je	.L7553
	cmpb	7547(%rdi), %cl
	je	.L7554
	cmpb	7548(%rdi), %al
	je	.L7555
	cmpb	7549(%rdi), %dl
	je	.L7556
	cmpb	7550(%rdi), %cl
	je	.L7557
	cmpb	7551(%rdi), %al
	je	.L7558
	cmpb	7552(%rdi), %dl
	je	.L7559
	cmpb	7553(%rdi), %cl
	je	.L7560
	cmpb	7554(%rdi), %al
	je	.L7561
	cmpb	7555(%rdi), %dl
	je	.L7562
	cmpb	7556(%rdi), %cl
	je	.L7563
	cmpb	7557(%rdi), %al
	je	.L7564
	cmpb	7558(%rdi), %dl
	je	.L7565
	cmpb	7559(%rdi), %cl
	je	.L7566
	cmpb	7560(%rdi), %al
	je	.L7567
	cmpb	7561(%rdi), %dl
	je	.L7568
	cmpb	7562(%rdi), %cl
	je	.L7569
	cmpb	7563(%rdi), %al
	je	.L7570
	cmpb	7564(%rdi), %dl
	je	.L7571
	cmpb	7565(%rdi), %cl
	je	.L7572
	cmpb	7566(%rdi), %al
	je	.L7573
	cmpb	7567(%rdi), %dl
	je	.L7574
	cmpb	7568(%rdi), %cl
	je	.L7575
	cmpb	7569(%rdi), %al
	je	.L7576
	cmpb	7570(%rdi), %dl
	je	.L7577
	cmpb	7571(%rdi), %cl
	je	.L7578
	cmpb	7572(%rdi), %al
	je	.L7579
	cmpb	7573(%rdi), %dl
	je	.L7580
	cmpb	7574(%rdi), %cl
	je	.L7581
	cmpb	7575(%rdi), %al
	je	.L7582
	cmpb	7576(%rdi), %dl
	je	.L7583
	cmpb	7577(%rdi), %cl
	je	.L7584
	cmpb	7578(%rdi), %al
	je	.L7585
	cmpb	7579(%rdi), %dl
	je	.L7586
	cmpb	7580(%rdi), %cl
	je	.L7587
	cmpb	7581(%rdi), %al
	je	.L7588
	cmpb	7582(%rdi), %dl
	je	.L7589
	cmpb	7583(%rdi), %cl
	je	.L7590
	cmpb	7584(%rdi), %al
	je	.L7591
	cmpb	7585(%rdi), %dl
	je	.L7592
	cmpb	7586(%rdi), %cl
	je	.L7593
	cmpb	7587(%rdi), %al
	je	.L7594
	cmpb	7588(%rdi), %dl
	je	.L7595
	cmpb	7589(%rdi), %cl
	je	.L7596
	cmpb	7590(%rdi), %al
	je	.L7597
	cmpb	7591(%rdi), %dl
	je	.L7598
	cmpb	7592(%rdi), %cl
	je	.L7599
	cmpb	7593(%rdi), %al
	je	.L7600
	cmpb	7594(%rdi), %dl
	je	.L7601
	cmpb	7595(%rdi), %cl
	je	.L7602
	cmpb	7596(%rdi), %al
	je	.L7603
	cmpb	7597(%rdi), %dl
	je	.L7604
	cmpb	7598(%rdi), %cl
	je	.L7605
